
target/i686-unknown-linux-gnu/release/keyboard:     file format elf32-i386


Disassembly of section .text:

00001000 <_RNvCs9xNfxAkRhBx_7___rustc26___rust_alloc_error_handler>:
    1000:	53                   	push   %ebx
    1001:	83 ec 08             	sub    $0x8,%esp
    1004:	e8 00 00 00 00       	call   1009 <_RNvCs9xNfxAkRhBx_7___rustc26___rust_alloc_error_handler+0x9>
    1009:	5b                   	pop    %ebx
    100a:	81 c3 eb 8f 00 00    	add    $0x8feb,%ebx
    1010:	e8 6b 00 00 00       	call   1080 <_RNvCs9xNfxAkRhBx_7___rustc9___rdl_oom>

00001015 <_ZN5alloc5alloc18handle_alloc_error17h692534c446c02bcdE>:
    1015:	53                   	push   %ebx
    1016:	83 ec 08             	sub    $0x8,%esp
    1019:	e8 00 00 00 00       	call   101e <_ZN5alloc5alloc18handle_alloc_error17h692534c446c02bcdE+0x9>
    101e:	5b                   	pop    %ebx
    101f:	81 c3 d6 8f 00 00    	add    $0x8fd6,%ebx
    1025:	e8 d6 ff ff ff       	call   1000 <_RNvCs9xNfxAkRhBx_7___rustc26___rust_alloc_error_handler>
    102a:	66 90                	xchg   %ax,%ax
    102c:	66 90                	xchg   %ax,%ax
    102e:	66 90                	xchg   %ax,%ax

00001030 <_ZN5alloc7raw_vec17capacity_overflow17hf4854d1cf84712dcE>:
    1030:	53                   	push   %ebx
    1031:	83 ec 18             	sub    $0x18,%esp
    1034:	e8 00 00 00 00       	call   1039 <_ZN5alloc7raw_vec17capacity_overflow17hf4854d1cf84712dcE+0x9>
    1039:	5b                   	pop    %ebx
    103a:	81 c3 bb 8f 00 00    	add    $0x8fbb,%ebx
    1040:	8d 83 28 fd ff ff    	lea    -0x2d8(%ebx),%eax
    1046:	89 04 24             	mov    %eax,(%esp)
    1049:	c7 44 24 04 01 00 00 	movl   $0x1,0x4(%esp)
    1050:	00 
    1051:	c7 44 24 10 00 00 00 	movl   $0x0,0x10(%esp)
    1058:	00 
    1059:	c7 44 24 08 04 00 00 	movl   $0x4,0x8(%esp)
    1060:	00 
    1061:	c7 44 24 0c 00 00 00 	movl   $0x0,0xc(%esp)
    1068:	00 
    1069:	8d 93 78 fe ff ff    	lea    -0x188(%ebx),%edx
    106f:	89 e1                	mov    %esp,%ecx
    1071:	e8 ba 00 00 00       	call   1130 <_ZN4core9panicking9panic_fmt17he08b1796856e5d1aE>
    1076:	66 90                	xchg   %ax,%ax
    1078:	66 90                	xchg   %ax,%ax
    107a:	66 90                	xchg   %ax,%ax
    107c:	66 90                	xchg   %ax,%ax
    107e:	66 90                	xchg   %ax,%ax

00001080 <_RNvCs9xNfxAkRhBx_7___rustc9___rdl_oom>:
    1080:	53                   	push   %ebx
    1081:	83 ec 28             	sub    $0x28,%esp
    1084:	e8 00 00 00 00       	call   1089 <_RNvCs9xNfxAkRhBx_7___rustc9___rdl_oom+0x9>
    1089:	5b                   	pop    %ebx
    108a:	81 c3 6b 8f 00 00    	add    $0x8f6b,%ebx
    1090:	89 4c 24 04          	mov    %ecx,0x4(%esp)
    1094:	8d 44 24 04          	lea    0x4(%esp),%eax
    1098:	89 44 24 08          	mov    %eax,0x8(%esp)
    109c:	8d 83 8c 8d ff ff    	lea    -0x7274(%ebx),%eax
    10a2:	89 44 24 0c          	mov    %eax,0xc(%esp)
    10a6:	8d 83 30 fd ff ff    	lea    -0x2d0(%ebx),%eax
    10ac:	89 44 24 10          	mov    %eax,0x10(%esp)
    10b0:	c7 44 24 14 02 00 00 	movl   $0x2,0x14(%esp)
    10b7:	00 
    10b8:	c7 44 24 20 00 00 00 	movl   $0x0,0x20(%esp)
    10bf:	00 
    10c0:	8d 44 24 08          	lea    0x8(%esp),%eax
    10c4:	89 44 24 18          	mov    %eax,0x18(%esp)
    10c8:	c7 44 24 1c 01 00 00 	movl   $0x1,0x1c(%esp)
    10cf:	00 
    10d0:	8d 4c 24 10          	lea    0x10(%esp),%ecx
    10d4:	e8 b7 02 00 00       	call   1390 <_ZN4core9panicking18panic_nounwind_fmt17hebbe881a71c93670E>

000010d9 <_ZN4core9panicking18panic_bounds_check17h1db588f06ac7ac58E>:
    10d9:	53                   	push   %ebx
    10da:	56                   	push   %esi
    10db:	83 ec 34             	sub    $0x34,%esp
    10de:	e8 00 00 00 00       	call   10e3 <_ZN4core9panicking18panic_bounds_check17h1db588f06ac7ac58E+0xa>
    10e3:	5b                   	pop    %ebx
    10e4:	81 c3 11 8f 00 00    	add    $0x8f11,%ebx
    10ea:	8d 44 24 04          	lea    0x4(%esp),%eax
    10ee:	89 08                	mov    %ecx,(%eax)
    10f0:	8d 4c 24 08          	lea    0x8(%esp),%ecx
    10f4:	89 11                	mov    %edx,(%ecx)
    10f6:	8d 74 24 0c          	lea    0xc(%esp),%esi
    10fa:	89 0e                	mov    %ecx,(%esi)
    10fc:	8d 93 8c 8d ff ff    	lea    -0x7274(%ebx),%edx
    1102:	89 56 04             	mov    %edx,0x4(%esi)
    1105:	89 46 08             	mov    %eax,0x8(%esi)
    1108:	8d 83 68 fd ff ff    	lea    -0x298(%ebx),%eax
    110e:	8d 4c 24 1c          	lea    0x1c(%esp),%ecx
    1112:	89 01                	mov    %eax,(%ecx)
    1114:	6a 02                	push   $0x2
    1116:	58                   	pop    %eax
    1117:	89 41 04             	mov    %eax,0x4(%ecx)
    111a:	83 61 10 00          	andl   $0x0,0x10(%ecx)
    111e:	89 56 0c             	mov    %edx,0xc(%esi)
    1121:	8b 54 24 40          	mov    0x40(%esp),%edx
    1125:	89 71 08             	mov    %esi,0x8(%ecx)
    1128:	89 41 0c             	mov    %eax,0xc(%ecx)
    112b:	e8 00 00 00 00       	call   1130 <_ZN4core9panicking9panic_fmt17he08b1796856e5d1aE>

00001130 <_ZN4core9panicking9panic_fmt17he08b1796856e5d1aE>:
    1130:	53                   	push   %ebx
    1131:	83 ec 18             	sub    $0x18,%esp
    1134:	e8 00 00 00 00       	call   1139 <_ZN4core9panicking9panic_fmt17he08b1796856e5d1aE+0x9>
    1139:	5b                   	pop    %ebx
    113a:	81 c3 bb 8e 00 00    	add    $0x8ebb,%ebx
    1140:	89 4c 24 0c          	mov    %ecx,0xc(%esp)
    1144:	89 54 24 10          	mov    %edx,0x10(%esp)
    1148:	66 c7 44 24 14 01 00 	movw   $0x1,0x14(%esp)
    114f:	8d 4c 24 0c          	lea    0xc(%esp),%ecx
    1153:	e8 68 3f 00 00       	call   50c0 <_RNvCs9xNfxAkRhBx_7___rustc17rust_begin_unwind>
    1158:	66 90                	xchg   %ax,%ax
    115a:	66 90                	xchg   %ax,%ax
    115c:	66 90                	xchg   %ax,%ax
    115e:	66 90                	xchg   %ax,%ax

00001160 <_ZN4core5slice5index24slice_end_index_len_fail17hf6067e6df4b8d597E>:
    1160:	53                   	push   %ebx
    1161:	83 ec 08             	sub    $0x8,%esp
    1164:	e8 00 00 00 00       	call   1169 <_ZN4core5slice5index24slice_end_index_len_fail17hf6067e6df4b8d597E+0x9>
    1169:	5b                   	pop    %ebx
    116a:	81 c3 8b 8e 00 00    	add    $0x8e8b,%ebx
    1170:	e8 0b 00 00 00       	call   1180 <_ZN4core5slice5index24slice_end_index_len_fail8do_panic7runtime17h4789dd0a006d5905E>
    1175:	66 90                	xchg   %ax,%ax
    1177:	66 90                	xchg   %ax,%ax
    1179:	66 90                	xchg   %ax,%ax
    117b:	66 90                	xchg   %ax,%ax
    117d:	66 90                	xchg   %ax,%ax
    117f:	90                   	nop

00001180 <_ZN4core5slice5index24slice_end_index_len_fail8do_panic7runtime17h4789dd0a006d5905E>:
    1180:	53                   	push   %ebx
    1181:	83 ec 38             	sub    $0x38,%esp
    1184:	e8 00 00 00 00       	call   1189 <_ZN4core5slice5index24slice_end_index_len_fail8do_panic7runtime17h4789dd0a006d5905E+0x9>
    1189:	5b                   	pop    %ebx
    118a:	81 c3 6b 8e 00 00    	add    $0x8e6b,%ebx
    1190:	89 4c 24 08          	mov    %ecx,0x8(%esp)
    1194:	89 54 24 0c          	mov    %edx,0xc(%esp)
    1198:	8d 44 24 08          	lea    0x8(%esp),%eax
    119c:	89 44 24 10          	mov    %eax,0x10(%esp)
    11a0:	8d 83 8c 8d ff ff    	lea    -0x7274(%ebx),%eax
    11a6:	89 44 24 14          	mov    %eax,0x14(%esp)
    11aa:	8d 4c 24 0c          	lea    0xc(%esp),%ecx
    11ae:	89 4c 24 18          	mov    %ecx,0x18(%esp)
    11b2:	89 44 24 1c          	mov    %eax,0x1c(%esp)
    11b6:	8d 83 c0 fd ff ff    	lea    -0x240(%ebx),%eax
    11bc:	89 44 24 20          	mov    %eax,0x20(%esp)
    11c0:	c7 44 24 24 02 00 00 	movl   $0x2,0x24(%esp)
    11c7:	00 
    11c8:	c7 44 24 30 00 00 00 	movl   $0x0,0x30(%esp)
    11cf:	00 
    11d0:	8d 44 24 10          	lea    0x10(%esp),%eax
    11d4:	89 44 24 28          	mov    %eax,0x28(%esp)
    11d8:	c7 44 24 2c 02 00 00 	movl   $0x2,0x2c(%esp)
    11df:	00 
    11e0:	8d 93 a0 fd ff ff    	lea    -0x260(%ebx),%edx
    11e6:	8d 4c 24 20          	lea    0x20(%esp),%ecx
    11ea:	e8 41 ff ff ff       	call   1130 <_ZN4core9panicking9panic_fmt17he08b1796856e5d1aE>
    11ef:	90                   	nop

000011f0 <_ZN4core9panicking5panic17hdc0bb452f89252d5E>:
    11f0:	53                   	push   %ebx
    11f1:	83 ec 28             	sub    $0x28,%esp
    11f4:	e8 00 00 00 00       	call   11f9 <_ZN4core9panicking5panic17hdc0bb452f89252d5E+0x9>
    11f9:	5b                   	pop    %ebx
    11fa:	81 c3 fb 8d 00 00    	add    $0x8dfb,%ebx
    1200:	8b 44 24 30          	mov    0x30(%esp),%eax
    1204:	89 4c 24 08          	mov    %ecx,0x8(%esp)
    1208:	89 54 24 0c          	mov    %edx,0xc(%esp)
    120c:	8d 4c 24 08          	lea    0x8(%esp),%ecx
    1210:	89 4c 24 10          	mov    %ecx,0x10(%esp)
    1214:	c7 44 24 14 01 00 00 	movl   $0x1,0x14(%esp)
    121b:	00 
    121c:	c7 44 24 20 00 00 00 	movl   $0x0,0x20(%esp)
    1223:	00 
    1224:	c7 44 24 18 04 00 00 	movl   $0x4,0x18(%esp)
    122b:	00 
    122c:	c7 44 24 1c 00 00 00 	movl   $0x0,0x1c(%esp)
    1233:	00 
    1234:	8d 4c 24 10          	lea    0x10(%esp),%ecx
    1238:	89 c2                	mov    %eax,%edx
    123a:	e8 f1 fe ff ff       	call   1130 <_ZN4core9panicking9panic_fmt17he08b1796856e5d1aE>
    123f:	90                   	nop

00001240 <_ZN4core5slice5index22slice_index_order_fail17h3a5e48f4441e7556E>:
    1240:	53                   	push   %ebx
    1241:	83 ec 08             	sub    $0x8,%esp
    1244:	e8 00 00 00 00       	call   1249 <_ZN4core5slice5index22slice_index_order_fail17h3a5e48f4441e7556E+0x9>
    1249:	5b                   	pop    %ebx
    124a:	81 c3 ab 8d 00 00    	add    $0x8dab,%ebx
    1250:	e8 3b 00 00 00       	call   1290 <_ZN4core5slice5index22slice_index_order_fail8do_panic7runtime17h5d63dcd23c3ff4bfE>
    1255:	66 90                	xchg   %ax,%ax
    1257:	66 90                	xchg   %ax,%ax
    1259:	66 90                	xchg   %ax,%ax
    125b:	66 90                	xchg   %ax,%ax
    125d:	66 90                	xchg   %ax,%ax
    125f:	90                   	nop

00001260 <_ZN4core6option13unwrap_failed17h1dfb8fb8ddfcbd94E>:
    1260:	53                   	push   %ebx
    1261:	83 ec 08             	sub    $0x8,%esp
    1264:	e8 00 00 00 00       	call   1269 <_ZN4core6option13unwrap_failed17h1dfb8fb8ddfcbd94E+0x9>
    1269:	5b                   	pop    %ebx
    126a:	81 c3 8b 8d 00 00    	add    $0x8d8b,%ebx
    1270:	89 0c 24             	mov    %ecx,(%esp)
    1273:	8d 8b b3 db ff ff    	lea    -0x244d(%ebx),%ecx
    1279:	ba 2b 00 00 00       	mov    $0x2b,%edx
    127e:	e8 6d ff ff ff       	call   11f0 <_ZN4core9panicking5panic17hdc0bb452f89252d5E>
    1283:	66 90                	xchg   %ax,%ax
    1285:	66 90                	xchg   %ax,%ax
    1287:	66 90                	xchg   %ax,%ax
    1289:	66 90                	xchg   %ax,%ax
    128b:	66 90                	xchg   %ax,%ax
    128d:	66 90                	xchg   %ax,%ax
    128f:	90                   	nop

00001290 <_ZN4core5slice5index22slice_index_order_fail8do_panic7runtime17h5d63dcd23c3ff4bfE>:
    1290:	53                   	push   %ebx
    1291:	83 ec 38             	sub    $0x38,%esp
    1294:	e8 00 00 00 00       	call   1299 <_ZN4core5slice5index22slice_index_order_fail8do_panic7runtime17h5d63dcd23c3ff4bfE+0x9>
    1299:	5b                   	pop    %ebx
    129a:	81 c3 5b 8d 00 00    	add    $0x8d5b,%ebx
    12a0:	89 4c 24 08          	mov    %ecx,0x8(%esp)
    12a4:	89 54 24 0c          	mov    %edx,0xc(%esp)
    12a8:	8d 44 24 08          	lea    0x8(%esp),%eax
    12ac:	89 44 24 10          	mov    %eax,0x10(%esp)
    12b0:	8d 83 8c 8d ff ff    	lea    -0x7274(%ebx),%eax
    12b6:	89 44 24 14          	mov    %eax,0x14(%esp)
    12ba:	8d 4c 24 0c          	lea    0xc(%esp),%ecx
    12be:	89 4c 24 18          	mov    %ecx,0x18(%esp)
    12c2:	89 44 24 1c          	mov    %eax,0x1c(%esp)
    12c6:	8d 83 d0 fd ff ff    	lea    -0x230(%ebx),%eax
    12cc:	89 44 24 20          	mov    %eax,0x20(%esp)
    12d0:	c7 44 24 24 02 00 00 	movl   $0x2,0x24(%esp)
    12d7:	00 
    12d8:	c7 44 24 30 00 00 00 	movl   $0x0,0x30(%esp)
    12df:	00 
    12e0:	8d 44 24 10          	lea    0x10(%esp),%eax
    12e4:	89 44 24 28          	mov    %eax,0x28(%esp)
    12e8:	c7 44 24 2c 02 00 00 	movl   $0x2,0x2c(%esp)
    12ef:	00 
    12f0:	8d 93 a0 fd ff ff    	lea    -0x260(%ebx),%edx
    12f6:	8d 4c 24 20          	lea    0x20(%esp),%ecx
    12fa:	e8 31 fe ff ff       	call   1130 <_ZN4core9panicking9panic_fmt17he08b1796856e5d1aE>
    12ff:	90                   	nop

00001300 <_ZN4core6result13unwrap_failed17he01453759a0dabd3E>:
    1300:	53                   	push   %ebx
    1301:	57                   	push   %edi
    1302:	56                   	push   %esi
    1303:	83 ec 40             	sub    $0x40,%esp
    1306:	89 d0                	mov    %edx,%eax
    1308:	e8 00 00 00 00       	call   130d <_ZN4core6result13unwrap_failed17he01453759a0dabd3E+0xd>
    130d:	5b                   	pop    %ebx
    130e:	81 c3 e7 8c 00 00    	add    $0x8ce7,%ebx
    1314:	8b 54 24 58          	mov    0x58(%esp),%edx
    1318:	8b 74 24 54          	mov    0x54(%esp),%esi
    131c:	8b 7c 24 50          	mov    0x50(%esp),%edi
    1320:	89 4c 24 08          	mov    %ecx,0x8(%esp)
    1324:	89 44 24 0c          	mov    %eax,0xc(%esp)
    1328:	89 7c 24 10          	mov    %edi,0x10(%esp)
    132c:	89 74 24 14          	mov    %esi,0x14(%esp)
    1330:	8d 44 24 08          	lea    0x8(%esp),%eax
    1334:	89 44 24 18          	mov    %eax,0x18(%esp)
    1338:	8d 83 1c 97 ff ff    	lea    -0x68e4(%ebx),%eax
    133e:	89 44 24 1c          	mov    %eax,0x1c(%esp)
    1342:	8d 44 24 10          	lea    0x10(%esp),%eax
    1346:	89 44 24 20          	mov    %eax,0x20(%esp)
    134a:	8d 83 4c 97 ff ff    	lea    -0x68b4(%ebx),%eax
    1350:	89 44 24 24          	mov    %eax,0x24(%esp)
    1354:	8d 83 78 fd ff ff    	lea    -0x288(%ebx),%eax
    135a:	89 44 24 28          	mov    %eax,0x28(%esp)
    135e:	c7 44 24 2c 02 00 00 	movl   $0x2,0x2c(%esp)
    1365:	00 
    1366:	c7 44 24 38 00 00 00 	movl   $0x0,0x38(%esp)
    136d:	00 
    136e:	8d 44 24 18          	lea    0x18(%esp),%eax
    1372:	89 44 24 30          	mov    %eax,0x30(%esp)
    1376:	c7 44 24 34 02 00 00 	movl   $0x2,0x34(%esp)
    137d:	00 
    137e:	8d 4c 24 28          	lea    0x28(%esp),%ecx
    1382:	e8 a9 fd ff ff       	call   1130 <_ZN4core9panicking9panic_fmt17he08b1796856e5d1aE>
    1387:	66 90                	xchg   %ax,%ax
    1389:	66 90                	xchg   %ax,%ax
    138b:	66 90                	xchg   %ax,%ax
    138d:	66 90                	xchg   %ax,%ax
    138f:	90                   	nop

00001390 <_ZN4core9panicking18panic_nounwind_fmt17hebbe881a71c93670E>:
    1390:	53                   	push   %ebx
    1391:	83 ec 28             	sub    $0x28,%esp
    1394:	e8 00 00 00 00       	call   1399 <_ZN4core9panicking18panic_nounwind_fmt17hebbe881a71c93670E+0x9>
    1399:	5b                   	pop    %ebx
    139a:	81 c3 5b 8c 00 00    	add    $0x8c5b,%ebx
    13a0:	8b 41 14             	mov    0x14(%ecx),%eax
    13a3:	89 44 24 24          	mov    %eax,0x24(%esp)
    13a7:	8b 41 10             	mov    0x10(%ecx),%eax
    13aa:	89 44 24 20          	mov    %eax,0x20(%esp)
    13ae:	8b 41 0c             	mov    0xc(%ecx),%eax
    13b1:	89 44 24 1c          	mov    %eax,0x1c(%esp)
    13b5:	8b 41 08             	mov    0x8(%ecx),%eax
    13b8:	89 44 24 18          	mov    %eax,0x18(%esp)
    13bc:	8b 01                	mov    (%ecx),%eax
    13be:	8b 49 04             	mov    0x4(%ecx),%ecx
    13c1:	89 4c 24 14          	mov    %ecx,0x14(%esp)
    13c5:	89 44 24 10          	mov    %eax,0x10(%esp)
    13c9:	8d 44 24 10          	lea    0x10(%esp),%eax
    13cd:	89 44 24 04          	mov    %eax,0x4(%esp)
    13d1:	8d 83 40 fd ff ff    	lea    -0x2c0(%ebx),%eax
    13d7:	89 44 24 08          	mov    %eax,0x8(%esp)
    13db:	66 c7 44 24 0c 00 00 	movw   $0x0,0xc(%esp)
    13e2:	8d 4c 24 04          	lea    0x4(%esp),%ecx
    13e6:	e8 d5 3c 00 00       	call   50c0 <_RNvCs9xNfxAkRhBx_7___rustc17rust_begin_unwind>
    13eb:	66 90                	xchg   %ax,%ax
    13ed:	66 90                	xchg   %ax,%ax
    13ef:	90                   	nop

000013f0 <init>:
    13f0:	55                   	push   %ebp
    13f1:	53                   	push   %ebx
    13f2:	57                   	push   %edi
    13f3:	56                   	push   %esi
    13f4:	81 ec 3c 01 00 00    	sub    $0x13c,%esp
    13fa:	e8 00 00 00 00       	call   13ff <init+0xf>
    13ff:	5b                   	pop    %ebx
    1400:	81 c3 f5 8b 00 00    	add    $0x8bf5,%ebx
    1406:	b9 01 00 00 00       	mov    $0x1,%ecx
    140b:	31 c0                	xor    %eax,%eax
    140d:	f0 0f b1 8b 40 27 00 	lock cmpxchg %ecx,0x2740(%ebx)
    1414:	00 
    1415:	0f 85 80 00 00 00    	jne    149b <init+0xab>
    141b:	8d 83 6c e5 ff ff    	lea    -0x1a94(%ebx),%eax
    1421:	89 83 24 00 00 00    	mov    %eax,0x24(%ebx)
    1427:	8d 83 28 fe ff ff    	lea    -0x1d8(%ebx),%eax
    142d:	89 83 28 00 00 00    	mov    %eax,0x28(%ebx)
    1433:	c7 83 40 27 00 00 02 	movl   $0x2,0x2740(%ebx)
    143a:	00 00 00 
    143d:	c7 83 44 27 00 00 04 	movl   $0x4,0x2744(%ebx)
    1444:	00 00 00 
    1447:	c7 44 24 3c 06 00 00 	movl   $0x6,0x3c(%esp)
    144e:	00 
    144f:	c7 44 24 40 6b 65 79 	movl   $0x6279656b,0x40(%esp)
    1456:	62 
    1457:	66 c7 44 24 44 72 64 	movw   $0x6472,0x44(%esp)
    145e:	c7 44 24 4c 00 00 00 	movl   $0x0,0x4c(%esp)
    1465:	00 
    1466:	8d 74 24 3c          	lea    0x3c(%esp),%esi
    146a:	b8 81 00 00 00       	mov    $0x81,%eax
    146f:	89 f2                	mov    %esi,%edx
    1471:	cd 80                	int    $0x80
    1473:	8d 48 ff             	lea    -0x1(%eax),%ecx
    1476:	83 f9 0a             	cmp    $0xa,%ecx
    1479:	73 63                	jae    14de <init+0xee>
    147b:	89 c7                	mov    %eax,%edi
    147d:	bd 02 00 00 00       	mov    $0x2,%ebp
    1482:	83 fd 04             	cmp    $0x4,%ebp
    1485:	0f 85 9c 04 00 00    	jne    1927 <init+0x537>
    148b:	8d 93 6c a4 ff ff    	lea    -0x5b94(%ebx),%edx
    1491:	b9 02 00 00 00       	mov    $0x2,%ecx
    1496:	e8 55 3e 00 00       	call   52f0 <_ZN10kernel_lib8complete17hbeb237b8ef5fd0e2E>
    149b:	83 f8 01             	cmp    $0x1,%eax
    149e:	75 18                	jne    14b8 <init+0xc8>
    14a0:	8b 83 40 27 00 00    	mov    0x2740(%ebx),%eax
    14a6:	83 f8 01             	cmp    $0x1,%eax
    14a9:	75 0d                	jne    14b8 <init+0xc8>
    14ab:	f3 90                	pause
    14ad:	8b 83 40 27 00 00    	mov    0x2740(%ebx),%eax
    14b3:	83 f8 01             	cmp    $0x1,%eax
    14b6:	74 f3                	je     14ab <init+0xbb>
    14b8:	83 ec 04             	sub    $0x4,%esp
    14bb:	8d 83 10 fd ff ff    	lea    -0x2f0(%ebx),%eax
    14c1:	8d b3 50 fc ff ff    	lea    -0x3b0(%ebx),%esi
    14c7:	8d 7c 24 18          	lea    0x18(%esp),%edi
    14cb:	8d 8b 64 e4 ff ff    	lea    -0x1b9c(%ebx),%ecx
    14d1:	ba 2b 00 00 00       	mov    $0x2b,%edx
    14d6:	50                   	push   %eax
    14d7:	56                   	push   %esi
    14d8:	57                   	push   %edi
    14d9:	e8 22 fe ff ff       	call   1300 <_ZN4core6result13unwrap_failed17he01453759a0dabd3E>
    14de:	bf 42 00 00 00       	mov    $0x42,%edi
    14e3:	85 c0                	test   %eax,%eax
    14e5:	75 96                	jne    147d <init+0x8d>
    14e7:	c6 44 24 1c 01       	movb   $0x1,0x1c(%esp)
    14ec:	c7 44 24 24 00 00 00 	movl   $0x0,0x24(%esp)
    14f3:	00 
    14f4:	c7 44 24 20 06 00 00 	movl   $0x6,0x20(%esp)
    14fb:	00 
    14fc:	c7 44 24 10 00 00 00 	movl   $0x0,0x10(%esp)
    1503:	00 
    1504:	8d 4c 24 10          	lea    0x10(%esp),%ecx
    1508:	8d 54 24 1c          	lea    0x1c(%esp),%edx
    150c:	b8 8b 00 00 00       	mov    $0x8b,%eax
    1511:	cd 80                	int    $0x80
    1513:	89 c7                	mov    %eax,%edi
    1515:	48                   	dec    %eax
    1516:	83 f8 0a             	cmp    $0xa,%eax
    1519:	73 07                	jae    1522 <init+0x132>
    151b:	31 ed                	xor    %ebp,%ebp
    151d:	e9 60 ff ff ff       	jmp    1482 <init+0x92>
    1522:	85 ff                	test   %edi,%edi
    1524:	bf 42 00 00 00       	mov    $0x42,%edi
    1529:	75 f0                	jne    151b <init+0x12b>
    152b:	8b 83 44 27 00 00    	mov    0x2744(%ebx),%eax
    1531:	83 f8 04             	cmp    $0x4,%eax
    1534:	0f 82 d2 00 00 00    	jb     160c <init+0x21c>
    153a:	8d 44 24 10          	lea    0x10(%esp),%eax
    153e:	89 44 24 14          	mov    %eax,0x14(%esp)
    1542:	8d 83 dc a4 ff ff    	lea    -0x5b24(%ebx),%eax
    1548:	89 44 24 18          	mov    %eax,0x18(%esp)
    154c:	c7 44 24 5c 04 00 00 	movl   $0x4,0x5c(%esp)
    1553:	00 
    1554:	8d 83 5e e5 ff ff    	lea    -0x1aa2(%ebx),%eax
    155a:	89 44 24 60          	mov    %eax,0x60(%esp)
    155e:	c7 44 24 64 0e 00 00 	movl   $0xe,0x64(%esp)
    1565:	00 
    1566:	8d 8b 20 fe ff ff    	lea    -0x1e0(%ebx),%ecx
    156c:	89 4c 24 68          	mov    %ecx,0x68(%esp)
    1570:	c7 44 24 6c 01 00 00 	movl   $0x1,0x6c(%esp)
    1577:	00 
    1578:	8d 4c 24 14          	lea    0x14(%esp),%ecx
    157c:	89 4c 24 70          	mov    %ecx,0x70(%esp)
    1580:	c7 44 24 74 01 00 00 	movl   $0x1,0x74(%esp)
    1587:	00 
    1588:	8d 8b 04 e5 ff ff    	lea    -0x1afc(%ebx),%ecx
    158e:	89 4c 24 78          	mov    %ecx,0x78(%esp)
    1592:	c7 44 24 7c 01 00 00 	movl   $0x1,0x7c(%esp)
    1599:	00 
    159a:	c7 44 24 44 00 00 00 	movl   $0x0,0x44(%esp)
    15a1:	00 
    15a2:	89 44 24 48          	mov    %eax,0x48(%esp)
    15a6:	c7 44 24 4c 0e 00 00 	movl   $0xe,0x4c(%esp)
    15ad:	00 
    15ae:	c7 44 24 50 00 00 00 	movl   $0x0,0x50(%esp)
    15b5:	00 
    15b6:	8d 83 1c e5 ff ff    	lea    -0x1ae4(%ebx),%eax
    15bc:	89 44 24 54          	mov    %eax,0x54(%esp)
    15c0:	c7 44 24 58 42 00 00 	movl   $0x42,0x58(%esp)
    15c7:	00 
    15c8:	c7 44 24 3c 01 00 00 	movl   $0x1,0x3c(%esp)
    15cf:	00 
    15d0:	c7 44 24 40 1e 00 00 	movl   $0x1e,0x40(%esp)
    15d7:	00 
    15d8:	8b 83 40 27 00 00    	mov    0x2740(%ebx),%eax
    15de:	83 f8 02             	cmp    $0x2,%eax
    15e1:	74 08                	je     15eb <init+0x1fb>
    15e3:	8d 83 18 ff ff ff    	lea    -0xe8(%ebx),%eax
    15e9:	eb 06                	jmp    15f1 <init+0x201>
    15eb:	8b 83 28 00 00 00    	mov    0x28(%ebx),%eax
    15f1:	74 08                	je     15fb <init+0x20b>
    15f3:	8d 8b 9b ea ff ff    	lea    -0x1565(%ebx),%ecx
    15f9:	eb 06                	jmp    1601 <init+0x211>
    15fb:	8b 8b 24 00 00 00    	mov    0x24(%ebx),%ecx
    1601:	83 ec 08             	sub    $0x8,%esp
    1604:	56                   	push   %esi
    1605:	51                   	push   %ecx
    1606:	ff 50 10             	call   *0x10(%eax)
    1609:	83 c4 10             	add    $0x10,%esp
    160c:	8b 44 24 10          	mov    0x10(%esp),%eax
    1610:	89 44 24 30          	mov    %eax,0x30(%esp)
    1614:	c7 44 24 14 00 00 00 	movl   $0x0,0x14(%esp)
    161b:	00 
    161c:	8d 6c 24 14          	lea    0x14(%esp),%ebp
    1620:	b8 90 00 00 00       	mov    $0x90,%eax
    1625:	89 ea                	mov    %ebp,%edx
    1627:	cd 80                	int    $0x80
    1629:	89 c7                	mov    %eax,%edi
    162b:	48                   	dec    %eax
    162c:	83 f8 0a             	cmp    $0xa,%eax
    162f:	73 13                	jae    1644 <init+0x254>
    1631:	bd 02 00 00 00       	mov    $0x2,%ebp
    1636:	8b 4c 24 30          	mov    0x30(%esp),%ecx
    163a:	e8 c1 54 00 00       	call   6b00 <_ZN81_$LT$kernel_types..object..handle..RawHandle$u20$as$u20$core..ops..drop..Drop$GT$4drop17h3ae0020523155c57E>
    163f:	e9 3e fe ff ff       	jmp    1482 <init+0x92>
    1644:	85 ff                	test   %edi,%edi
    1646:	bf 42 00 00 00       	mov    $0x42,%edi
    164b:	75 e4                	jne    1631 <init+0x241>
    164d:	8b 83 44 27 00 00    	mov    0x2744(%ebx),%eax
    1653:	83 f8 04             	cmp    $0x4,%eax
    1656:	0f 82 ce 00 00 00    	jb     172a <init+0x33a>
    165c:	89 6c 24 1c          	mov    %ebp,0x1c(%esp)
    1660:	8d 83 dc a4 ff ff    	lea    -0x5b24(%ebx),%eax
    1666:	89 44 24 20          	mov    %eax,0x20(%esp)
    166a:	c7 44 24 5c 04 00 00 	movl   $0x4,0x5c(%esp)
    1671:	00 
    1672:	8d 83 be e6 ff ff    	lea    -0x1942(%ebx),%eax
    1678:	89 44 24 60          	mov    %eax,0x60(%esp)
    167c:	c7 44 24 64 19 00 00 	movl   $0x19,0x64(%esp)
    1683:	00 
    1684:	8d 8b 60 fe ff ff    	lea    -0x1a0(%ebx),%ecx
    168a:	89 4c 24 68          	mov    %ecx,0x68(%esp)
    168e:	c7 44 24 6c 01 00 00 	movl   $0x1,0x6c(%esp)
    1695:	00 
    1696:	8d 4c 24 1c          	lea    0x1c(%esp),%ecx
    169a:	89 4c 24 70          	mov    %ecx,0x70(%esp)
    169e:	c7 44 24 74 01 00 00 	movl   $0x1,0x74(%esp)
    16a5:	00 
    16a6:	8d 8b 04 e5 ff ff    	lea    -0x1afc(%ebx),%ecx
    16ac:	89 4c 24 78          	mov    %ecx,0x78(%esp)
    16b0:	c7 44 24 7c 01 00 00 	movl   $0x1,0x7c(%esp)
    16b7:	00 
    16b8:	c7 44 24 44 00 00 00 	movl   $0x0,0x44(%esp)
    16bf:	00 
    16c0:	89 44 24 48          	mov    %eax,0x48(%esp)
    16c4:	c7 44 24 4c 19 00 00 	movl   $0x19,0x4c(%esp)
    16cb:	00 
    16cc:	c7 44 24 50 00 00 00 	movl   $0x0,0x50(%esp)
    16d3:	00 
    16d4:	8d 83 76 e6 ff ff    	lea    -0x198a(%ebx),%eax
    16da:	89 44 24 54          	mov    %eax,0x54(%esp)
    16de:	c7 44 24 58 48 00 00 	movl   $0x48,0x58(%esp)
    16e5:	00 
    16e6:	c7 44 24 3c 01 00 00 	movl   $0x1,0x3c(%esp)
    16ed:	00 
    16ee:	c7 44 24 40 11 00 00 	movl   $0x11,0x40(%esp)
    16f5:	00 
    16f6:	8b 83 40 27 00 00    	mov    0x2740(%ebx),%eax
    16fc:	83 f8 02             	cmp    $0x2,%eax
    16ff:	74 08                	je     1709 <init+0x319>
    1701:	8d 83 18 ff ff ff    	lea    -0xe8(%ebx),%eax
    1707:	eb 06                	jmp    170f <init+0x31f>
    1709:	8b 83 28 00 00 00    	mov    0x28(%ebx),%eax
    170f:	74 08                	je     1719 <init+0x329>
    1711:	8d 8b 9b ea ff ff    	lea    -0x1565(%ebx),%ecx
    1717:	eb 06                	jmp    171f <init+0x32f>
    1719:	8b 8b 24 00 00 00    	mov    0x24(%ebx),%ecx
    171f:	83 ec 08             	sub    $0x8,%esp
    1722:	56                   	push   %esi
    1723:	51                   	push   %ecx
    1724:	ff 50 10             	call   *0x10(%eax)
    1727:	83 c4 10             	add    $0x10,%esp
    172a:	8b 7c 24 14          	mov    0x14(%esp),%edi
    172e:	0f b6 83 3c 27 00 00 	movzbl 0x273c(%ebx),%eax
    1735:	b1 01                	mov    $0x1,%cl
    1737:	90                   	nop
    1738:	90                   	nop
    1739:	90                   	nop
    173a:	90                   	nop
    173b:	90                   	nop
    173c:	90                   	nop
    173d:	90                   	nop
    173e:	90                   	nop
    173f:	90                   	nop
    1740:	31 c0                	xor    %eax,%eax
    1742:	f0 0f b0 8b 0c 00 00 	lock cmpxchg %cl,0xc(%ebx)
    1749:	00 
    174a:	74 1e                	je     176a <init+0x37a>
    174c:	90                   	nop
    174d:	90                   	nop
    174e:	90                   	nop
    174f:	90                   	nop
    1750:	0f b6 83 0c 00 00 00 	movzbl 0xc(%ebx),%eax
    1757:	84 c0                	test   %al,%al
    1759:	74 e5                	je     1740 <init+0x350>
    175b:	f3 90                	pause
    175d:	0f b6 83 0c 00 00 00 	movzbl 0xc(%ebx),%eax
    1764:	84 c0                	test   %al,%al
    1766:	75 f3                	jne    175b <init+0x36b>
    1768:	eb d6                	jmp    1740 <init+0x350>
    176a:	b9 04 00 00 00       	mov    $0x4,%ecx
    176f:	ba 1c 01 00 00       	mov    $0x11c,%edx
    1774:	e8 37 31 00 00       	call   48b0 <_ZN4talc4talc13Talc$LT$O$GT$6malloc17hfb0da288b1d6f9eaE>
    1779:	c6 83 0c 00 00 00 00 	movb   $0x0,0xc(%ebx)
    1780:	85 c0                	test   %eax,%eax
    1782:	75 1a                	jne    179e <init+0x3ae>
    1784:	89 f9                	mov    %edi,%ecx
    1786:	e8 75 53 00 00       	call   6b00 <_ZN81_$LT$kernel_types..object..handle..RawHandle$u20$as$u20$core..ops..drop..Drop$GT$4drop17h3ae0020523155c57E>
    178b:	8b 4c 24 30          	mov    0x30(%esp),%ecx
    178f:	e8 6c 53 00 00       	call   6b00 <_ZN81_$LT$kernel_types..object..handle..RawHandle$u20$as$u20$core..ops..drop..Drop$GT$4drop17h3ae0020523155c57E>
    1794:	bd 03 00 00 00       	mov    $0x3,%ebp
    1799:	e9 e4 fc ff ff       	jmp    1482 <init+0x92>
    179e:	c7 00 01 00 00 00    	movl   $0x1,(%eax)
    17a4:	c7 40 04 01 00 00 00 	movl   $0x1,0x4(%eax)
    17ab:	c6 40 08 00          	movb   $0x0,0x8(%eax)
    17af:	89 44 24 0c          	mov    %eax,0xc(%esp)
    17b3:	0f b7 44 24 1c       	movzwl 0x1c(%esp),%eax
    17b8:	8b 4c 24 0c          	mov    0xc(%esp),%ecx
    17bc:	66 89 41 09          	mov    %ax,0x9(%ecx)
    17c0:	0f b6 44 24 1e       	movzbl 0x1e(%esp),%eax
    17c5:	8b 4c 24 0c          	mov    0xc(%esp),%ecx
    17c9:	88 41 0b             	mov    %al,0xb(%ecx)
    17cc:	8b 44 24 0c          	mov    0xc(%esp),%eax
    17d0:	89 78 0c             	mov    %edi,0xc(%eax)
    17d3:	8b 44 24 30          	mov    0x30(%esp),%eax
    17d7:	8b 4c 24 0c          	mov    0xc(%esp),%ecx
    17db:	89 41 10             	mov    %eax,0x10(%ecx)
    17de:	8b 44 24 0c          	mov    0xc(%esp),%eax
    17e2:	c7 40 14 00 00 00 00 	movl   $0x0,0x14(%eax)
    17e9:	8b 44 24 0c          	mov    0xc(%esp),%eax
    17ed:	c7 40 18 00 00 00 00 	movl   $0x0,0x18(%eax)
    17f4:	8b 44 24 0c          	mov    0xc(%esp),%eax
    17f8:	83 c0 1c             	add    $0x1c,%eax
    17fb:	83 ec 04             	sub    $0x4,%esp
    17fe:	68 ff 00 00 00       	push   $0xff
    1803:	56                   	push   %esi
    1804:	50                   	push   %eax
    1805:	e8 46 56 00 00       	call   6e50 <memcpy>
    180a:	8b 44 24 1c          	mov    0x1c(%esp),%eax
    180e:	83 c4 10             	add    $0x10,%esp
    1811:	c6 80 1b 01 00 00 00 	movb   $0x0,0x11b(%eax)
    1818:	f0 ff 00             	lock incl (%eax)
    181b:	7f 02                	jg     181f <init+0x42f>
    181d:	0f 0b                	ud2
    181f:	83 c0 08             	add    $0x8,%eax
    1822:	89 44 24 3c          	mov    %eax,0x3c(%esp)
    1826:	8d 83 1c 7a ff ff    	lea    -0x85e4(%ebx),%eax
    182c:	89 44 24 40          	mov    %eax,0x40(%esp)
    1830:	66 c7 44 24 44 03 00 	movw   $0x3,0x44(%esp)
    1837:	c7 44 24 1c 00 00 00 	movl   $0x0,0x1c(%esp)
    183e:	00 
    183f:	8d 4c 24 3c          	lea    0x3c(%esp),%ecx
    1843:	8d 54 24 1c          	lea    0x1c(%esp),%edx
    1847:	b8 8a 00 00 00       	mov    $0x8a,%eax
    184c:	cd 80                	int    $0x80
    184e:	8d 48 ff             	lea    -0x1(%eax),%ecx
    1851:	83 f9 0a             	cmp    $0xa,%ecx
    1854:	73 22                	jae    1878 <init+0x488>
    1856:	89 c7                	mov    %eax,%edi
    1858:	bd 02 00 00 00       	mov    $0x2,%ebp
    185d:	8b 44 24 0c          	mov    0xc(%esp),%eax
    1861:	f0 ff 08             	lock decl (%eax)
    1864:	0f 85 18 fc ff ff    	jne    1482 <init+0x92>
    186a:	8b 4c 24 0c          	mov    0xc(%esp),%ecx
    186e:	e8 bd 09 00 00       	call   2230 <_ZN5alloc4sync16Arc$LT$T$C$A$GT$9drop_slow17h8ab668c117dcba90E>
    1873:	e9 0a fc ff ff       	jmp    1482 <init+0x92>
    1878:	bf 42 00 00 00       	mov    $0x42,%edi
    187d:	85 c0                	test   %eax,%eax
    187f:	75 d7                	jne    1858 <init+0x468>
    1881:	8b 44 24 1c          	mov    0x1c(%esp),%eax
    1885:	89 44 24 10          	mov    %eax,0x10(%esp)
    1889:	8b 83 44 27 00 00    	mov    0x2744(%ebx),%eax
    188f:	83 f8 02             	cmp    $0x2,%eax
    1892:	76 6d                	jbe    1901 <init+0x511>
    1894:	8d 44 24 10          	lea    0x10(%esp),%eax
    1898:	89 44 24 14          	mov    %eax,0x14(%esp)
    189c:	8d 83 8c 8d ff ff    	lea    -0x7274(%ebx),%eax
    18a2:	89 44 24 18          	mov    %eax,0x18(%esp)
    18a6:	8d 83 b0 fc ff ff    	lea    -0x350(%ebx),%eax
    18ac:	89 44 24 3c          	mov    %eax,0x3c(%esp)
    18b0:	c7 44 24 40 01 00 00 	movl   $0x1,0x40(%esp)
    18b7:	00 
    18b8:	c7 44 24 4c 00 00 00 	movl   $0x0,0x4c(%esp)
    18bf:	00 
    18c0:	89 6c 24 44          	mov    %ebp,0x44(%esp)
    18c4:	c7 44 24 48 01 00 00 	movl   $0x1,0x48(%esp)
    18cb:	00 
    18cc:	8d 83 bb d7 ff ff    	lea    -0x2845(%ebx),%eax
    18d2:	89 44 24 1c          	mov    %eax,0x1c(%esp)
    18d6:	c7 44 24 20 08 00 00 	movl   $0x8,0x20(%esp)
    18dd:	00 
    18de:	89 44 24 24          	mov    %eax,0x24(%esp)
    18e2:	c7 44 24 28 08 00 00 	movl   $0x8,0x28(%esp)
    18e9:	00 
    18ea:	8d 83 b8 fc ff ff    	lea    -0x348(%ebx),%eax
    18f0:	89 44 24 2c          	mov    %eax,0x2c(%esp)
    18f4:	8d 4c 24 3c          	lea    0x3c(%esp),%ecx
    18f8:	8d 54 24 1c          	lea    0x1c(%esp),%edx
    18fc:	e8 9f 09 00 00       	call   22a0 <_ZN3log13__private_api3log17hdf6e64cab5f2ccf3E>
    1901:	8b 44 24 0c          	mov    0xc(%esp),%eax
    1905:	f0 ff 08             	lock decl (%eax)
    1908:	0f 85 7d fb ff ff    	jne    148b <init+0x9b>
    190e:	8b 4c 24 0c          	mov    0xc(%esp),%ecx
    1912:	e8 19 09 00 00       	call   2230 <_ZN5alloc4sync16Arc$LT$T$C$A$GT$9drop_slow17h8ab668c117dcba90E>
    1917:	8d 93 6c a4 ff ff    	lea    -0x5b94(%ebx),%edx
    191d:	b9 02 00 00 00       	mov    $0x2,%ecx
    1922:	e8 c9 39 00 00       	call   52f0 <_ZN10kernel_lib8complete17hbeb237b8ef5fd0e2E>
    1927:	89 6c 24 34          	mov    %ebp,0x34(%esp)
    192b:	89 7c 24 38          	mov    %edi,0x38(%esp)
    192f:	8b 83 44 27 00 00    	mov    0x2744(%ebx),%eax
    1935:	85 c0                	test   %eax,%eax
    1937:	0f 84 c8 00 00 00    	je     1a05 <init+0x615>
    193d:	8d 44 24 34          	lea    0x34(%esp),%eax
    1941:	89 44 24 1c          	mov    %eax,0x1c(%esp)
    1945:	8d 83 6c c9 ff ff    	lea    -0x3694(%ebx),%eax
    194b:	89 44 24 20          	mov    %eax,0x20(%esp)
    194f:	c7 44 24 5c 01 00 00 	movl   $0x1,0x5c(%esp)
    1956:	00 
    1957:	8d 83 bb d7 ff ff    	lea    -0x2845(%ebx),%eax
    195d:	89 44 24 60          	mov    %eax,0x60(%esp)
    1961:	c7 44 24 64 08 00 00 	movl   $0x8,0x64(%esp)
    1968:	00 
    1969:	8d 8b 20 fd ff ff    	lea    -0x2e0(%ebx),%ecx
    196f:	89 4c 24 68          	mov    %ecx,0x68(%esp)
    1973:	c7 44 24 6c 01 00 00 	movl   $0x1,0x6c(%esp)
    197a:	00 
    197b:	8d 4c 24 1c          	lea    0x1c(%esp),%ecx
    197f:	89 4c 24 70          	mov    %ecx,0x70(%esp)
    1983:	c7 44 24 74 01 00 00 	movl   $0x1,0x74(%esp)
    198a:	00 
    198b:	c7 44 24 78 00 00 00 	movl   $0x0,0x78(%esp)
    1992:	00 
    1993:	c7 44 24 44 00 00 00 	movl   $0x0,0x44(%esp)
    199a:	00 
    199b:	89 44 24 48          	mov    %eax,0x48(%esp)
    199f:	c7 44 24 4c 08 00 00 	movl   $0x8,0x4c(%esp)
    19a6:	00 
    19a7:	c7 44 24 50 00 00 00 	movl   $0x0,0x50(%esp)
    19ae:	00 
    19af:	8d 83 67 d7 ff ff    	lea    -0x2899(%ebx),%eax
    19b5:	89 44 24 54          	mov    %eax,0x54(%esp)
    19b9:	c7 44 24 58 14 00 00 	movl   $0x14,0x58(%esp)
    19c0:	00 
    19c1:	c7 44 24 3c 01 00 00 	movl   $0x1,0x3c(%esp)
    19c8:	00 
    19c9:	c7 44 24 40 18 00 00 	movl   $0x18,0x40(%esp)
    19d0:	00 
    19d1:	8b 83 40 27 00 00    	mov    0x2740(%ebx),%eax
    19d7:	83 f8 02             	cmp    $0x2,%eax
    19da:	74 08                	je     19e4 <init+0x5f4>
    19dc:	8d 83 18 ff ff ff    	lea    -0xe8(%ebx),%eax
    19e2:	eb 06                	jmp    19ea <init+0x5fa>
    19e4:	8b 83 28 00 00 00    	mov    0x28(%ebx),%eax
    19ea:	74 08                	je     19f4 <init+0x604>
    19ec:	8d 8b 9b ea ff ff    	lea    -0x1565(%ebx),%ecx
    19f2:	eb 06                	jmp    19fa <init+0x60a>
    19f4:	8b 8b 24 00 00 00    	mov    0x24(%ebx),%ecx
    19fa:	83 ec 08             	sub    $0x8,%esp
    19fd:	56                   	push   %esi
    19fe:	51                   	push   %ecx
    19ff:	ff 50 10             	call   *0x10(%eax)
    1a02:	83 c4 10             	add    $0x10,%esp
    1a05:	b8 01 00 00 00       	mov    $0x1,%eax
    1a0a:	89 c0                	mov    %eax,%eax
    1a0c:	cd 81                	int    $0x81
    1a0e:	0f 0b                	ud2

00001a10 <_ZN8keyboard10handle_irq17hf44868b823578babE>:
    1a10:	55                   	push   %ebp
    1a11:	53                   	push   %ebx
    1a12:	57                   	push   %edi
    1a13:	56                   	push   %esi
    1a14:	81 ec 9c 00 00 00    	sub    $0x9c,%esp
    1a1a:	e8 00 00 00 00       	call   1a1f <_ZN8keyboard10handle_irq17hf44868b823578babE+0xf>
    1a1f:	5b                   	pop    %ebx
    1a20:	81 c3 d5 85 00 00    	add    $0x85d5,%ebx
    1a26:	8b b4 24 b0 00 00 00 	mov    0xb0(%esp),%esi
    1a2d:	8b 83 44 27 00 00    	mov    0x2744(%ebx),%eax
    1a33:	8d 8b bb d7 ff ff    	lea    -0x2845(%ebx),%ecx
    1a39:	89 4c 24 60          	mov    %ecx,0x60(%esp)
    1a3d:	83 f8 03             	cmp    $0x3,%eax
    1a40:	0f 86 b7 00 00 00    	jbe    1afd <_ZN8keyboard10handle_irq17hf44868b823578babE+0xed>
    1a46:	c7 44 24 30 04 00 00 	movl   $0x4,0x30(%esp)
    1a4d:	00 
    1a4e:	8b 4c 24 60          	mov    0x60(%esp),%ecx
    1a52:	89 4c 24 34          	mov    %ecx,0x34(%esp)
    1a56:	c7 44 24 38 08 00 00 	movl   $0x8,0x38(%esp)
    1a5d:	00 
    1a5e:	8d 83 c8 fc ff ff    	lea    -0x338(%ebx),%eax
    1a64:	89 44 24 3c          	mov    %eax,0x3c(%esp)
    1a68:	c7 44 24 40 01 00 00 	movl   $0x1,0x40(%esp)
    1a6f:	00 
    1a70:	c7 44 24 44 04 00 00 	movl   $0x4,0x44(%esp)
    1a77:	00 
    1a78:	c7 44 24 48 00 00 00 	movl   $0x0,0x48(%esp)
    1a7f:	00 
    1a80:	c7 44 24 4c 00 00 00 	movl   $0x0,0x4c(%esp)
    1a87:	00 
    1a88:	c7 44 24 18 00 00 00 	movl   $0x0,0x18(%esp)
    1a8f:	00 
    1a90:	89 4c 24 1c          	mov    %ecx,0x1c(%esp)
    1a94:	c7 44 24 20 08 00 00 	movl   $0x8,0x20(%esp)
    1a9b:	00 
    1a9c:	c7 44 24 24 00 00 00 	movl   $0x0,0x24(%esp)
    1aa3:	00 
    1aa4:	8d 83 67 d7 ff ff    	lea    -0x2899(%ebx),%eax
    1aaa:	89 44 24 28          	mov    %eax,0x28(%esp)
    1aae:	c7 44 24 2c 14 00 00 	movl   $0x14,0x2c(%esp)
    1ab5:	00 
    1ab6:	c7 44 24 10 01 00 00 	movl   $0x1,0x10(%esp)
    1abd:	00 
    1abe:	c7 44 24 14 48 00 00 	movl   $0x48,0x14(%esp)
    1ac5:	00 
    1ac6:	8b 83 40 27 00 00    	mov    0x2740(%ebx),%eax
    1acc:	83 f8 02             	cmp    $0x2,%eax
    1acf:	74 10                	je     1ae1 <_ZN8keyboard10handle_irq17hf44868b823578babE+0xd1>
    1ad1:	8d 83 18 ff ff ff    	lea    -0xe8(%ebx),%eax
    1ad7:	75 10                	jne    1ae9 <_ZN8keyboard10handle_irq17hf44868b823578babE+0xd9>
    1ad9:	8b 8b 24 00 00 00    	mov    0x24(%ebx),%ecx
    1adf:	eb 0e                	jmp    1aef <_ZN8keyboard10handle_irq17hf44868b823578babE+0xdf>
    1ae1:	8b 83 28 00 00 00    	mov    0x28(%ebx),%eax
    1ae7:	74 f0                	je     1ad9 <_ZN8keyboard10handle_irq17hf44868b823578babE+0xc9>
    1ae9:	8d 8b 9b ea ff ff    	lea    -0x1565(%ebx),%ecx
    1aef:	8d 54 24 10          	lea    0x10(%esp),%edx
    1af3:	89 54 24 04          	mov    %edx,0x4(%esp)
    1af7:	89 0c 24             	mov    %ecx,(%esp)
    1afa:	ff 50 10             	call   *0x10(%eax)
    1afd:	b1 01                	mov    $0x1,%cl
    1aff:	31 c0                	xor    %eax,%eax
    1b01:	f0 0f b0 0e          	lock cmpxchg %cl,(%esi)
    1b05:	0f 85 57 06 00 00    	jne    2162 <_ZN8keyboard10handle_irq17hf44868b823578babE+0x752>
    1b0b:	8b 56 08             	mov    0x8(%esi),%edx
    1b0e:	b8 83 00 00 00       	mov    $0x83,%eax
    1b13:	89 94 24 98 00 00 00 	mov    %edx,0x98(%esp)
    1b1a:	cd 80                	int    $0x80
    1b1c:	85 c0                	test   %eax,%eax
    1b1e:	0f 85 7b 06 00 00    	jne    219f <_ZN8keyboard10handle_irq17hf44868b823578babE+0x78f>
    1b24:	c6 06 00             	movb   $0x0,(%esi)
    1b27:	8d 6c 24 58          	lea    0x58(%esp),%ebp
    1b2b:	8d 83 ac c3 ff ff    	lea    -0x3c54(%ebx),%eax
    1b31:	89 84 24 94 00 00 00 	mov    %eax,0x94(%esp)
    1b38:	8d bb 47 e4 ff ff    	lea    -0x1bb9(%ebx),%edi
    1b3e:	8d 83 e0 fd ff ff    	lea    -0x220(%ebx),%eax
    1b44:	89 84 24 90 00 00 00 	mov    %eax,0x90(%esp)
    1b4b:	8d 83 e0 e3 ff ff    	lea    -0x1c20(%ebx),%eax
    1b51:	89 84 24 8c 00 00 00 	mov    %eax,0x8c(%esp)
    1b58:	8d 83 18 ff ff ff    	lea    -0xe8(%ebx),%eax
    1b5e:	89 44 24 74          	mov    %eax,0x74(%esp)
    1b62:	8d 83 9b ea ff ff    	lea    -0x1565(%ebx),%eax
    1b68:	89 44 24 70          	mov    %eax,0x70(%esp)
    1b6c:	8d 74 24 10          	lea    0x10(%esp),%esi
    1b70:	8d 83 fc a0 ff ff    	lea    -0x5f04(%ebx),%eax
    1b76:	89 84 24 88 00 00 00 	mov    %eax,0x88(%esp)
    1b7d:	8d 83 58 d7 ff ff    	lea    -0x28a8(%ebx),%eax
    1b83:	89 44 24 6c          	mov    %eax,0x6c(%esp)
    1b87:	8d 83 60 fc ff ff    	lea    -0x3a0(%ebx),%eax
    1b8d:	89 84 24 84 00 00 00 	mov    %eax,0x84(%esp)
    1b94:	8d 83 46 d7 ff ff    	lea    -0x28ba(%ebx),%eax
    1b9a:	89 44 24 68          	mov    %eax,0x68(%esp)
    1b9e:	89 bc 24 80 00 00 00 	mov    %edi,0x80(%esp)
    1ba5:	eb 19                	jmp    1bc0 <_ZN8keyboard10handle_irq17hf44868b823578babE+0x1b0>
    1ba7:	90                   	nop
    1ba8:	90                   	nop
    1ba9:	90                   	nop
    1baa:	90                   	nop
    1bab:	90                   	nop
    1bac:	90                   	nop
    1bad:	90                   	nop
    1bae:	90                   	nop
    1baf:	90                   	nop
    1bb0:	8d 8b 9b ea ff ff    	lea    -0x1565(%ebx),%ecx
    1bb6:	89 74 24 04          	mov    %esi,0x4(%esp)
    1bba:	89 0c 24             	mov    %ecx,(%esp)
    1bbd:	ff 50 10             	call   *0x10(%eax)
    1bc0:	b8 8e 00 00 00       	mov    $0x8e,%eax
    1bc5:	8b 8c 24 98 00 00 00 	mov    0x98(%esp),%ecx
    1bcc:	8d 54 24 67          	lea    0x67(%esp),%edx
    1bd0:	cd 80                	int    $0x80
    1bd2:	8d 48 ff             	lea    -0x1(%eax),%ecx
    1bd5:	83 f9 0a             	cmp    $0xa,%ecx
    1bd8:	0f 83 44 02 00 00    	jae    1e22 <_ZN8keyboard10handle_irq17hf44868b823578babE+0x412>
    1bde:	89 c1                	mov    %eax,%ecx
    1be0:	89 4c 24 78          	mov    %ecx,0x78(%esp)
    1be4:	8d 44 24 78          	lea    0x78(%esp),%eax
    1be8:	89 44 24 0c          	mov    %eax,0xc(%esp)
    1bec:	8b 83 44 27 00 00    	mov    0x2744(%ebx),%eax
    1bf2:	85 c0                	test   %eax,%eax
    1bf4:	0f 84 9d 04 00 00    	je     2097 <_ZN8keyboard10handle_irq17hf44868b823578babE+0x687>
    1bfa:	8d 44 24 0c          	lea    0xc(%esp),%eax
    1bfe:	89 44 24 58          	mov    %eax,0x58(%esp)
    1c02:	8b 84 24 94 00 00 00 	mov    0x94(%esp),%eax
    1c09:	89 44 24 5c          	mov    %eax,0x5c(%esp)
    1c0d:	c7 44 24 30 01 00 00 	movl   $0x1,0x30(%esp)
    1c14:	00 
    1c15:	89 7c 24 34          	mov    %edi,0x34(%esp)
    1c19:	c7 44 24 38 1b 00 00 	movl   $0x1b,0x38(%esp)
    1c20:	00 
    1c21:	8b 84 24 90 00 00 00 	mov    0x90(%esp),%eax
    1c28:	89 44 24 3c          	mov    %eax,0x3c(%esp)
    1c2c:	c7 44 24 40 01 00 00 	movl   $0x1,0x40(%esp)
    1c33:	00 
    1c34:	89 6c 24 44          	mov    %ebp,0x44(%esp)
    1c38:	c7 44 24 48 01 00 00 	movl   $0x1,0x48(%esp)
    1c3f:	00 
    1c40:	c7 44 24 4c 00 00 00 	movl   $0x0,0x4c(%esp)
    1c47:	00 
    1c48:	c7 44 24 18 00 00 00 	movl   $0x0,0x18(%esp)
    1c4f:	00 
    1c50:	89 7c 24 1c          	mov    %edi,0x1c(%esp)
    1c54:	c7 44 24 20 1b 00 00 	movl   $0x1b,0x20(%esp)
    1c5b:	00 
    1c5c:	c7 44 24 24 00 00 00 	movl   $0x0,0x24(%esp)
    1c63:	00 
    1c64:	8b 84 24 8c 00 00 00 	mov    0x8c(%esp),%eax
    1c6b:	89 44 24 28          	mov    %eax,0x28(%esp)
    1c6f:	c7 44 24 2c 4a 00 00 	movl   $0x4a,0x2c(%esp)
    1c76:	00 
    1c77:	c7 44 24 10 01 00 00 	movl   $0x1,0x10(%esp)
    1c7e:	00 
    1c7f:	c7 44 24 14 23 00 00 	movl   $0x23,0x14(%esp)
    1c86:	00 
    1c87:	8b 83 40 27 00 00    	mov    0x2740(%ebx),%eax
    1c8d:	83 f8 02             	cmp    $0x2,%eax
    1c90:	74 0e                	je     1ca0 <_ZN8keyboard10handle_irq17hf44868b823578babE+0x290>
    1c92:	8b 44 24 74          	mov    0x74(%esp),%eax
    1c96:	75 10                	jne    1ca8 <_ZN8keyboard10handle_irq17hf44868b823578babE+0x298>
    1c98:	8b 8b 24 00 00 00    	mov    0x24(%ebx),%ecx
    1c9e:	eb 0c                	jmp    1cac <_ZN8keyboard10handle_irq17hf44868b823578babE+0x29c>
    1ca0:	8b 83 28 00 00 00    	mov    0x28(%ebx),%eax
    1ca6:	74 f0                	je     1c98 <_ZN8keyboard10handle_irq17hf44868b823578babE+0x288>
    1ca8:	8b 4c 24 70          	mov    0x70(%esp),%ecx
    1cac:	89 74 24 04          	mov    %esi,0x4(%esp)
    1cb0:	89 0c 24             	mov    %ecx,(%esp)
    1cb3:	ff 50 10             	call   *0x10(%eax)
    1cb6:	83 7c 24 78 00       	cmpl   $0x0,0x78(%esp)
    1cbb:	0f 85 d6 03 00 00    	jne    2097 <_ZN8keyboard10handle_irq17hf44868b823578babE+0x687>
    1cc1:	c7 44 24 18 00 00 00 	movl   $0x0,0x18(%esp)
    1cc8:	00 
    1cc9:	c6 44 24 58 00       	movb   $0x0,0x58(%esp)
    1cce:	89 6c 24 14          	mov    %ebp,0x14(%esp)
    1cd2:	b8 02 00 60 00       	mov    $0x600002,%eax
    1cd7:	89 44 24 10          	mov    %eax,0x10(%esp)
    1cdb:	c7 44 24 18 01 00 00 	movl   $0x1,0x18(%esp)
    1ce2:	00 
    1ce3:	b8 84 00 00 00       	mov    $0x84,%eax
    1ce8:	b9 01 00 00 00       	mov    $0x1,%ecx
    1ced:	89 f2                	mov    %esi,%edx
    1cef:	cd 80                	int    $0x80
    1cf1:	85 c0                	test   %eax,%eax
    1cf3:	0f 85 74 04 00 00    	jne    216d <_ZN8keyboard10handle_irq17hf44868b823578babE+0x75d>
    1cf9:	0f b6 54 24 58       	movzbl 0x58(%esp),%edx
    1cfe:	88 54 24 0c          	mov    %dl,0xc(%esp)
    1d02:	8b 83 44 27 00 00    	mov    0x2744(%ebx),%eax
    1d08:	83 f8 03             	cmp    $0x3,%eax
    1d0b:	0f 86 d4 00 00 00    	jbe    1de5 <_ZN8keyboard10handle_irq17hf44868b823578babE+0x3d5>
    1d11:	8d 44 24 0c          	lea    0xc(%esp),%eax
    1d15:	89 44 24 58          	mov    %eax,0x58(%esp)
    1d19:	8b 84 24 88 00 00 00 	mov    0x88(%esp),%eax
    1d20:	89 44 24 5c          	mov    %eax,0x5c(%esp)
    1d24:	c7 44 24 30 04 00 00 	movl   $0x4,0x30(%esp)
    1d2b:	00 
    1d2c:	8b 44 24 6c          	mov    0x6c(%esp),%eax
    1d30:	89 44 24 34          	mov    %eax,0x34(%esp)
    1d34:	c7 44 24 38 0c 00 00 	movl   $0xc,0x38(%esp)
    1d3b:	00 
    1d3c:	8b 8c 24 84 00 00 00 	mov    0x84(%esp),%ecx
    1d43:	89 4c 24 3c          	mov    %ecx,0x3c(%esp)
    1d47:	c7 44 24 40 01 00 00 	movl   $0x1,0x40(%esp)
    1d4e:	00 
    1d4f:	89 6c 24 44          	mov    %ebp,0x44(%esp)
    1d53:	c7 44 24 48 01 00 00 	movl   $0x1,0x48(%esp)
    1d5a:	00 
    1d5b:	c7 44 24 4c 00 00 00 	movl   $0x0,0x4c(%esp)
    1d62:	00 
    1d63:	c7 44 24 18 00 00 00 	movl   $0x0,0x18(%esp)
    1d6a:	00 
    1d6b:	89 44 24 1c          	mov    %eax,0x1c(%esp)
    1d6f:	c7 44 24 20 0c 00 00 	movl   $0xc,0x20(%esp)
    1d76:	00 
    1d77:	c7 44 24 24 00 00 00 	movl   $0x0,0x24(%esp)
    1d7e:	00 
    1d7f:	8b 44 24 68          	mov    0x68(%esp),%eax
    1d83:	89 44 24 28          	mov    %eax,0x28(%esp)
    1d87:	c7 44 24 2c 12 00 00 	movl   $0x12,0x2c(%esp)
    1d8e:	00 
    1d8f:	c7 44 24 10 01 00 00 	movl   $0x1,0x10(%esp)
    1d96:	00 
    1d97:	c7 44 24 14 11 00 00 	movl   $0x11,0x14(%esp)
    1d9e:	00 
    1d9f:	8b 83 40 27 00 00    	mov    0x2740(%ebx),%eax
    1da5:	83 f8 02             	cmp    $0x2,%eax
    1da8:	74 16                	je     1dc0 <_ZN8keyboard10handle_irq17hf44868b823578babE+0x3b0>
    1daa:	8b 44 24 74          	mov    0x74(%esp),%eax
    1dae:	89 ef                	mov    %ebp,%edi
    1db0:	89 d5                	mov    %edx,%ebp
    1db2:	75 18                	jne    1dcc <_ZN8keyboard10handle_irq17hf44868b823578babE+0x3bc>
    1db4:	8b 8b 24 00 00 00    	mov    0x24(%ebx),%ecx
    1dba:	eb 14                	jmp    1dd0 <_ZN8keyboard10handle_irq17hf44868b823578babE+0x3c0>
    1dbc:	90                   	nop
    1dbd:	90                   	nop
    1dbe:	90                   	nop
    1dbf:	90                   	nop
    1dc0:	8b 83 28 00 00 00    	mov    0x28(%ebx),%eax
    1dc6:	89 ef                	mov    %ebp,%edi
    1dc8:	89 d5                	mov    %edx,%ebp
    1dca:	74 e8                	je     1db4 <_ZN8keyboard10handle_irq17hf44868b823578babE+0x3a4>
    1dcc:	8b 4c 24 70          	mov    0x70(%esp),%ecx
    1dd0:	89 74 24 04          	mov    %esi,0x4(%esp)
    1dd4:	89 0c 24             	mov    %ecx,(%esp)
    1dd7:	ff 50 10             	call   *0x10(%eax)
    1dda:	89 ea                	mov    %ebp,%edx
    1ddc:	89 fd                	mov    %edi,%ebp
    1dde:	8b bc 24 80 00 00 00 	mov    0x80(%esp),%edi
    1de5:	8d 4a f2             	lea    -0xe(%edx),%ecx
    1de8:	83 f9 2b             	cmp    $0x2b,%ecx
    1deb:	77 23                	ja     1e10 <_ZN8keyboard10handle_irq17hf44868b823578babE+0x400>
    1ded:	b8 0a 00 00 00       	mov    $0xa,%eax
    1df2:	8b 8c 8b f4 d2 ff ff 	mov    -0x2d0c(%ebx,%ecx,4),%ecx
    1df9:	01 d9                	add    %ebx,%ecx
    1dfb:	ff e1                	jmp    *%ecx
    1dfd:	b8 0d 00 00 00       	mov    $0xd,%eax
    1e02:	e9 b9 01 00 00       	jmp    1fc0 <_ZN8keyboard10handle_irq17hf44868b823578babE+0x5b0>
    1e07:	90                   	nop
    1e08:	90                   	nop
    1e09:	90                   	nop
    1e0a:	90                   	nop
    1e0b:	90                   	nop
    1e0c:	90                   	nop
    1e0d:	90                   	nop
    1e0e:	90                   	nop
    1e0f:	90                   	nop
    1e10:	81 fa b5 00 00 00    	cmp    $0xb5,%edx
    1e16:	75 1c                	jne    1e34 <_ZN8keyboard10handle_irq17hf44868b823578babE+0x424>
    1e18:	b8 2f 00 00 00       	mov    $0x2f,%eax
    1e1d:	e9 9e 01 00 00       	jmp    1fc0 <_ZN8keyboard10handle_irq17hf44868b823578babE+0x5b0>
    1e22:	b9 42 00 00 00       	mov    $0x42,%ecx
    1e27:	85 c0                	test   %eax,%eax
    1e29:	0f 84 92 fe ff ff    	je     1cc1 <_ZN8keyboard10handle_irq17hf44868b823578babE+0x2b1>
    1e2f:	e9 ac fd ff ff       	jmp    1be0 <_ZN8keyboard10handle_irq17hf44868b823578babE+0x1d0>
    1e34:	0f b6 4c 24 0c       	movzbl 0xc(%esp),%ecx
    1e39:	89 c8                	mov    %ecx,%eax
    1e3b:	04 fe                	add    $0xfe,%al
    1e3d:	3c 09                	cmp    $0x9,%al
    1e3f:	73 3a                	jae    1e7b <_ZN8keyboard10handle_irq17hf44868b823578babE+0x46b>
    1e41:	80 c2 fe             	add    $0xfe,%dl
    1e44:	0f b6 ca             	movzbl %dl,%ecx
    1e47:	80 fa 09             	cmp    $0x9,%dl
    1e4a:	0f 83 86 03 00 00    	jae    21d6 <_ZN8keyboard10handle_irq17hf44868b823578babE+0x7c6>
    1e50:	0f b6 84 0b dd d6 ff 	movzbl -0x2923(%ebx,%ecx,1),%eax
    1e57:	ff 
    1e58:	e9 63 01 00 00       	jmp    1fc0 <_ZN8keyboard10handle_irq17hf44868b823578babE+0x5b0>
    1e5d:	b8 20 00 00 00       	mov    $0x20,%eax
    1e62:	e9 59 01 00 00       	jmp    1fc0 <_ZN8keyboard10handle_irq17hf44868b823578babE+0x5b0>
    1e67:	b8 30 00 00 00       	mov    $0x30,%eax
    1e6c:	e9 4f 01 00 00       	jmp    1fc0 <_ZN8keyboard10handle_irq17hf44868b823578babE+0x5b0>
    1e71:	b8 2e 00 00 00       	mov    $0x2e,%eax
    1e76:	e9 45 01 00 00       	jmp    1fc0 <_ZN8keyboard10handle_irq17hf44868b823578babE+0x5b0>
    1e7b:	8b 83 44 27 00 00    	mov    0x2744(%ebx),%eax
    1e81:	83 f8 03             	cmp    $0x3,%eax
    1e84:	0f 86 c2 00 00 00    	jbe    1f4c <_ZN8keyboard10handle_irq17hf44868b823578babE+0x53c>
    1e8a:	c7 44 24 30 04 00 00 	movl   $0x4,0x30(%esp)
    1e91:	00 
    1e92:	8b 4c 24 6c          	mov    0x6c(%esp),%ecx
    1e96:	89 4c 24 34          	mov    %ecx,0x34(%esp)
    1e9a:	c7 44 24 38 0c 00 00 	movl   $0xc,0x38(%esp)
    1ea1:	00 
    1ea2:	8d 83 68 fc ff ff    	lea    -0x398(%ebx),%eax
    1ea8:	89 44 24 3c          	mov    %eax,0x3c(%esp)
    1eac:	c7 44 24 40 01 00 00 	movl   $0x1,0x40(%esp)
    1eb3:	00 
    1eb4:	c7 44 24 44 04 00 00 	movl   $0x4,0x44(%esp)
    1ebb:	00 
    1ebc:	c7 44 24 48 00 00 00 	movl   $0x0,0x48(%esp)
    1ec3:	00 
    1ec4:	c7 44 24 4c 00 00 00 	movl   $0x0,0x4c(%esp)
    1ecb:	00 
    1ecc:	c7 44 24 18 00 00 00 	movl   $0x0,0x18(%esp)
    1ed3:	00 
    1ed4:	89 4c 24 1c          	mov    %ecx,0x1c(%esp)
    1ed8:	c7 44 24 20 0c 00 00 	movl   $0xc,0x20(%esp)
    1edf:	00 
    1ee0:	c7 44 24 24 00 00 00 	movl   $0x0,0x24(%esp)
    1ee7:	00 
    1ee8:	8b 44 24 68          	mov    0x68(%esp),%eax
    1eec:	89 44 24 28          	mov    %eax,0x28(%esp)
    1ef0:	c7 44 24 2c 12 00 00 	movl   $0x12,0x2c(%esp)
    1ef7:	00 
    1ef8:	c7 44 24 10 01 00 00 	movl   $0x1,0x10(%esp)
    1eff:	00 
    1f00:	c7 44 24 14 2e 00 00 	movl   $0x2e,0x14(%esp)
    1f07:	00 
    1f08:	8b 83 40 27 00 00    	mov    0x2740(%ebx),%eax
    1f0e:	83 f8 02             	cmp    $0x2,%eax
    1f11:	74 14                	je     1f27 <_ZN8keyboard10handle_irq17hf44868b823578babE+0x517>
    1f13:	8d 83 18 ff ff ff    	lea    -0xe8(%ebx),%eax
    1f19:	89 54 24 7c          	mov    %edx,0x7c(%esp)
    1f1d:	75 14                	jne    1f33 <_ZN8keyboard10handle_irq17hf44868b823578babE+0x523>
    1f1f:	8b 8b 24 00 00 00    	mov    0x24(%ebx),%ecx
    1f25:	eb 12                	jmp    1f39 <_ZN8keyboard10handle_irq17hf44868b823578babE+0x529>
    1f27:	8b 83 28 00 00 00    	mov    0x28(%ebx),%eax
    1f2d:	89 54 24 7c          	mov    %edx,0x7c(%esp)
    1f31:	74 ec                	je     1f1f <_ZN8keyboard10handle_irq17hf44868b823578babE+0x50f>
    1f33:	8d 8b 9b ea ff ff    	lea    -0x1565(%ebx),%ecx
    1f39:	89 74 24 04          	mov    %esi,0x4(%esp)
    1f3d:	89 0c 24             	mov    %ecx,(%esp)
    1f40:	ff 50 10             	call   *0x10(%eax)
    1f43:	0f b6 4c 24 0c       	movzbl 0xc(%esp),%ecx
    1f48:	8b 54 24 7c          	mov    0x7c(%esp),%edx
    1f4c:	89 c8                	mov    %ecx,%eax
    1f4e:	04 f0                	add    $0xf0,%al
    1f50:	3c 0d                	cmp    $0xd,%al
    1f52:	73 19                	jae    1f6d <_ZN8keyboard10handle_irq17hf44868b823578babE+0x55d>
    1f54:	80 c2 f0             	add    $0xf0,%dl
    1f57:	0f b6 ca             	movzbl %dl,%ecx
    1f5a:	80 fa 0a             	cmp    $0xa,%dl
    1f5d:	0f 83 8d 02 00 00    	jae    21f0 <_ZN8keyboard10handle_irq17hf44868b823578babE+0x7e0>
    1f63:	0f b6 84 0b c3 d6 ff 	movzbl -0x293d(%ebx,%ecx,1),%eax
    1f6a:	ff 
    1f6b:	eb 53                	jmp    1fc0 <_ZN8keyboard10handle_irq17hf44868b823578babE+0x5b0>
    1f6d:	89 c8                	mov    %ecx,%eax
    1f6f:	04 e2                	add    $0xe2,%al
    1f71:	3c 09                	cmp    $0x9,%al
    1f73:	73 19                	jae    1f8e <_ZN8keyboard10handle_irq17hf44868b823578babE+0x57e>
    1f75:	80 c2 e2             	add    $0xe2,%dl
    1f78:	0f b6 ca             	movzbl %dl,%ecx
    1f7b:	80 fa 09             	cmp    $0x9,%dl
    1f7e:	0f 83 7f 02 00 00    	jae    2203 <_ZN8keyboard10handle_irq17hf44868b823578babE+0x7f3>
    1f84:	0f b6 84 0b d4 d6 ff 	movzbl -0x292c(%ebx,%ecx,1),%eax
    1f8b:	ff 
    1f8c:	eb 32                	jmp    1fc0 <_ZN8keyboard10handle_irq17hf44868b823578babE+0x5b0>
    1f8e:	80 c1 d4             	add    $0xd4,%cl
    1f91:	b8 00 00 11 00       	mov    $0x110000,%eax
    1f96:	80 f9 07             	cmp    $0x7,%cl
    1f99:	73 25                	jae    1fc0 <_ZN8keyboard10handle_irq17hf44868b823578babE+0x5b0>
    1f9b:	80 c2 d4             	add    $0xd4,%dl
    1f9e:	0f b6 ca             	movzbl %dl,%ecx
    1fa1:	80 fa 06             	cmp    $0x6,%dl
    1fa4:	0f 87 6c 02 00 00    	ja     2216 <_ZN8keyboard10handle_irq17hf44868b823578babE+0x806>
    1faa:	0f b6 84 0b cd d6 ff 	movzbl -0x2933(%ebx,%ecx,1),%eax
    1fb1:	ff 
    1fb2:	90                   	nop
    1fb3:	90                   	nop
    1fb4:	90                   	nop
    1fb5:	90                   	nop
    1fb6:	90                   	nop
    1fb7:	90                   	nop
    1fb8:	90                   	nop
    1fb9:	90                   	nop
    1fba:	90                   	nop
    1fbb:	90                   	nop
    1fbc:	90                   	nop
    1fbd:	90                   	nop
    1fbe:	90                   	nop
    1fbf:	90                   	nop
    1fc0:	89 44 24 0c          	mov    %eax,0xc(%esp)
    1fc4:	8b 83 44 27 00 00    	mov    0x2744(%ebx),%eax
    1fca:	83 f8 03             	cmp    $0x3,%eax
    1fcd:	0f 86 ed fb ff ff    	jbe    1bc0 <_ZN8keyboard10handle_irq17hf44868b823578babE+0x1b0>
    1fd3:	8d 44 24 0c          	lea    0xc(%esp),%eax
    1fd7:	89 44 24 58          	mov    %eax,0x58(%esp)
    1fdb:	8d 83 3c 84 ff ff    	lea    -0x7bc4(%ebx),%eax
    1fe1:	89 44 24 5c          	mov    %eax,0x5c(%esp)
    1fe5:	c7 44 24 30 04 00 00 	movl   $0x4,0x30(%esp)
    1fec:	00 
    1fed:	8b 4c 24 60          	mov    0x60(%esp),%ecx
    1ff1:	89 4c 24 34          	mov    %ecx,0x34(%esp)
    1ff5:	c7 44 24 38 08 00 00 	movl   $0x8,0x38(%esp)
    1ffc:	00 
    1ffd:	8d 83 00 fd ff ff    	lea    -0x300(%ebx),%eax
    2003:	89 44 24 3c          	mov    %eax,0x3c(%esp)
    2007:	c7 44 24 40 01 00 00 	movl   $0x1,0x40(%esp)
    200e:	00 
    200f:	89 6c 24 44          	mov    %ebp,0x44(%esp)
    2013:	c7 44 24 48 01 00 00 	movl   $0x1,0x48(%esp)
    201a:	00 
    201b:	c7 44 24 4c 00 00 00 	movl   $0x0,0x4c(%esp)
    2022:	00 
    2023:	c7 44 24 18 00 00 00 	movl   $0x0,0x18(%esp)
    202a:	00 
    202b:	89 4c 24 1c          	mov    %ecx,0x1c(%esp)
    202f:	c7 44 24 20 08 00 00 	movl   $0x8,0x20(%esp)
    2036:	00 
    2037:	c7 44 24 24 00 00 00 	movl   $0x0,0x24(%esp)
    203e:	00 
    203f:	8d 83 67 d7 ff ff    	lea    -0x2899(%ebx),%eax
    2045:	89 44 24 28          	mov    %eax,0x28(%esp)
    2049:	c7 44 24 2c 14 00 00 	movl   $0x14,0x2c(%esp)
    2050:	00 
    2051:	c7 44 24 10 01 00 00 	movl   $0x1,0x10(%esp)
    2058:	00 
    2059:	c7 44 24 14 53 00 00 	movl   $0x53,0x14(%esp)
    2060:	00 
    2061:	8b 83 40 27 00 00    	mov    0x2740(%ebx),%eax
    2067:	83 f8 02             	cmp    $0x2,%eax
    206a:	74 14                	je     2080 <_ZN8keyboard10handle_irq17hf44868b823578babE+0x670>
    206c:	8d 83 18 ff ff ff    	lea    -0xe8(%ebx),%eax
    2072:	0f 85 38 fb ff ff    	jne    1bb0 <_ZN8keyboard10handle_irq17hf44868b823578babE+0x1a0>
    2078:	eb 12                	jmp    208c <_ZN8keyboard10handle_irq17hf44868b823578babE+0x67c>
    207a:	90                   	nop
    207b:	90                   	nop
    207c:	90                   	nop
    207d:	90                   	nop
    207e:	90                   	nop
    207f:	90                   	nop
    2080:	8b 83 28 00 00 00    	mov    0x28(%ebx),%eax
    2086:	0f 85 24 fb ff ff    	jne    1bb0 <_ZN8keyboard10handle_irq17hf44868b823578babE+0x1a0>
    208c:	8b 8b 24 00 00 00    	mov    0x24(%ebx),%ecx
    2092:	e9 1f fb ff ff       	jmp    1bb6 <_ZN8keyboard10handle_irq17hf44868b823578babE+0x1a6>
    2097:	8b 83 44 27 00 00    	mov    0x2744(%ebx),%eax
    209d:	83 f8 04             	cmp    $0x4,%eax
    20a0:	0f 82 ba 00 00 00    	jb     2160 <_ZN8keyboard10handle_irq17hf44868b823578babE+0x750>
    20a6:	c7 44 24 30 04 00 00 	movl   $0x4,0x30(%esp)
    20ad:	00 
    20ae:	8b 4c 24 60          	mov    0x60(%esp),%ecx
    20b2:	89 4c 24 34          	mov    %ecx,0x34(%esp)
    20b6:	c7 44 24 38 08 00 00 	movl   $0x8,0x38(%esp)
    20bd:	00 
    20be:	8d 83 08 fd ff ff    	lea    -0x2f8(%ebx),%eax
    20c4:	89 44 24 3c          	mov    %eax,0x3c(%esp)
    20c8:	c7 44 24 40 01 00 00 	movl   $0x1,0x40(%esp)
    20cf:	00 
    20d0:	c7 44 24 44 04 00 00 	movl   $0x4,0x44(%esp)
    20d7:	00 
    20d8:	c7 44 24 48 00 00 00 	movl   $0x0,0x48(%esp)
    20df:	00 
    20e0:	c7 44 24 4c 00 00 00 	movl   $0x0,0x4c(%esp)
    20e7:	00 
    20e8:	c7 44 24 18 00 00 00 	movl   $0x0,0x18(%esp)
    20ef:	00 
    20f0:	89 4c 24 1c          	mov    %ecx,0x1c(%esp)
    20f4:	c7 44 24 20 08 00 00 	movl   $0x8,0x20(%esp)
    20fb:	00 
    20fc:	c7 44 24 24 00 00 00 	movl   $0x0,0x24(%esp)
    2103:	00 
    2104:	8d 83 67 d7 ff ff    	lea    -0x2899(%ebx),%eax
    210a:	89 44 24 28          	mov    %eax,0x28(%esp)
    210e:	c7 44 24 2c 14 00 00 	movl   $0x14,0x2c(%esp)
    2115:	00 
    2116:	c7 44 24 10 01 00 00 	movl   $0x1,0x10(%esp)
    211d:	00 
    211e:	c7 44 24 14 56 00 00 	movl   $0x56,0x14(%esp)
    2125:	00 
    2126:	8b 83 40 27 00 00    	mov    0x2740(%ebx),%eax
    212c:	83 f8 02             	cmp    $0x2,%eax
    212f:	74 10                	je     2141 <_ZN8keyboard10handle_irq17hf44868b823578babE+0x731>
    2131:	8d 83 18 ff ff ff    	lea    -0xe8(%ebx),%eax
    2137:	75 10                	jne    2149 <_ZN8keyboard10handle_irq17hf44868b823578babE+0x739>
    2139:	8b 8b 24 00 00 00    	mov    0x24(%ebx),%ecx
    213f:	eb 0e                	jmp    214f <_ZN8keyboard10handle_irq17hf44868b823578babE+0x73f>
    2141:	8b 83 28 00 00 00    	mov    0x28(%ebx),%eax
    2147:	74 f0                	je     2139 <_ZN8keyboard10handle_irq17hf44868b823578babE+0x729>
    2149:	8d 8b 9b ea ff ff    	lea    -0x1565(%ebx),%ecx
    214f:	89 74 24 04          	mov    %esi,0x4(%esp)
    2153:	89 0c 24             	mov    %ecx,(%esp)
    2156:	ff 50 10             	call   *0x10(%eax)
    2159:	90                   	nop
    215a:	90                   	nop
    215b:	90                   	nop
    215c:	90                   	nop
    215d:	90                   	nop
    215e:	90                   	nop
    215f:	90                   	nop
    2160:	eb fe                	jmp    2160 <_ZN8keyboard10handle_irq17hf44868b823578babE+0x750>
    2162:	8d 8b d0 fc ff ff    	lea    -0x330(%ebx),%ecx
    2168:	e8 f3 f0 ff ff       	call   1260 <_ZN4core6option13unwrap_failed17h1dfb8fb8ddfcbd94E>
    216d:	89 c1                	mov    %eax,%ecx
    216f:	e8 5c 4c 00 00       	call   6dd0 <_ZN79_$LT$kernel_types..syscall..SyscallError$u20$as$u20$num_enum..FromPrimitive$GT$14from_primitive17h002ef1ea9aba70d5E>
    2174:	89 44 24 10          	mov    %eax,0x10(%esp)
    2178:	8d 83 f0 fc ff ff    	lea    -0x310(%ebx),%eax
    217e:	89 44 24 08          	mov    %eax,0x8(%esp)
    2182:	8d 83 30 fc ff ff    	lea    -0x3d0(%ebx),%eax
    2188:	89 44 24 04          	mov    %eax,0x4(%esp)
    218c:	89 34 24             	mov    %esi,(%esp)
    218f:	8d 8b e2 d7 ff ff    	lea    -0x281e(%ebx),%ecx
    2195:	ba 18 00 00 00       	mov    $0x18,%edx
    219a:	e8 61 f1 ff ff       	call   1300 <_ZN4core6result13unwrap_failed17he01453759a0dabd3E>
    219f:	8d 48 ff             	lea    -0x1(%eax),%ecx
    21a2:	83 f9 09             	cmp    $0x9,%ecx
    21a5:	77 42                	ja     21e9 <_ZN8keyboard10handle_irq17hf44868b823578babE+0x7d9>
    21a7:	89 44 24 10          	mov    %eax,0x10(%esp)
    21ab:	8d 83 e0 fc ff ff    	lea    -0x320(%ebx),%eax
    21b1:	89 44 24 08          	mov    %eax,0x8(%esp)
    21b5:	8d 83 40 fc ff ff    	lea    -0x3c0(%ebx),%eax
    21bb:	89 44 24 04          	mov    %eax,0x4(%esp)
    21bf:	8d 44 24 10          	lea    0x10(%esp),%eax
    21c3:	89 04 24             	mov    %eax,(%esp)
    21c6:	8d 8b 64 e4 ff ff    	lea    -0x1b9c(%ebx),%ecx
    21cc:	ba 2b 00 00 00       	mov    $0x2b,%edx
    21d1:	e8 2a f1 ff ff       	call   1300 <_ZN4core6result13unwrap_failed17he01453759a0dabd3E>
    21d6:	8d 83 a0 fc ff ff    	lea    -0x360(%ebx),%eax
    21dc:	89 04 24             	mov    %eax,(%esp)
    21df:	ba 09 00 00 00       	mov    $0x9,%edx
    21e4:	e8 f0 ee ff ff       	call   10d9 <_ZN4core9panicking18panic_bounds_check17h1db588f06ac7ac58E>
    21e9:	b8 42 00 00 00       	mov    $0x42,%eax
    21ee:	eb b7                	jmp    21a7 <_ZN8keyboard10handle_irq17hf44868b823578babE+0x797>
    21f0:	8d 83 90 fc ff ff    	lea    -0x370(%ebx),%eax
    21f6:	89 04 24             	mov    %eax,(%esp)
    21f9:	ba 0a 00 00 00       	mov    $0xa,%edx
    21fe:	e8 d6 ee ff ff       	call   10d9 <_ZN4core9panicking18panic_bounds_check17h1db588f06ac7ac58E>
    2203:	8d 83 80 fc ff ff    	lea    -0x380(%ebx),%eax
    2209:	89 04 24             	mov    %eax,(%esp)
    220c:	ba 09 00 00 00       	mov    $0x9,%edx
    2211:	e8 c3 ee ff ff       	call   10d9 <_ZN4core9panicking18panic_bounds_check17h1db588f06ac7ac58E>
    2216:	8d 83 70 fc ff ff    	lea    -0x390(%ebx),%eax
    221c:	89 04 24             	mov    %eax,(%esp)
    221f:	ba 07 00 00 00       	mov    $0x7,%edx
    2224:	e8 b0 ee ff ff       	call   10d9 <_ZN4core9panicking18panic_bounds_check17h1db588f06ac7ac58E>
    2229:	66 90                	xchg   %ax,%ax
    222b:	66 90                	xchg   %ax,%ax
    222d:	66 90                	xchg   %ax,%ax
    222f:	90                   	nop

00002230 <_ZN5alloc4sync16Arc$LT$T$C$A$GT$9drop_slow17h8ab668c117dcba90E>:
    2230:	53                   	push   %ebx
    2231:	56                   	push   %esi
    2232:	50                   	push   %eax
    2233:	89 ce                	mov    %ecx,%esi
    2235:	e8 00 00 00 00       	call   223a <_ZN5alloc4sync16Arc$LT$T$C$A$GT$9drop_slow17h8ab668c117dcba90E+0xa>
    223a:	5b                   	pop    %ebx
    223b:	81 c3 ba 7d 00 00    	add    $0x7dba,%ebx
    2241:	8b 49 0c             	mov    0xc(%ecx),%ecx
    2244:	e8 b7 48 00 00       	call   6b00 <_ZN81_$LT$kernel_types..object..handle..RawHandle$u20$as$u20$core..ops..drop..Drop$GT$4drop17h3ae0020523155c57E>
    2249:	8b 4e 10             	mov    0x10(%esi),%ecx
    224c:	e8 af 48 00 00       	call   6b00 <_ZN81_$LT$kernel_types..object..handle..RawHandle$u20$as$u20$core..ops..drop..Drop$GT$4drop17h3ae0020523155c57E>
    2251:	83 fe ff             	cmp    $0xffffffff,%esi
    2254:	74 3c                	je     2292 <_ZN5alloc4sync16Arc$LT$T$C$A$GT$9drop_slow17h8ab668c117dcba90E+0x62>
    2256:	f0 ff 4e 04          	lock decl 0x4(%esi)
    225a:	75 36                	jne    2292 <_ZN5alloc4sync16Arc$LT$T$C$A$GT$9drop_slow17h8ab668c117dcba90E+0x62>
    225c:	b1 01                	mov    $0x1,%cl
    225e:	90                   	nop
    225f:	90                   	nop
    2260:	31 c0                	xor    %eax,%eax
    2262:	f0 0f b0 8b 0c 00 00 	lock cmpxchg %cl,0xc(%ebx)
    2269:	00 
    226a:	75 06                	jne    2272 <_ZN5alloc4sync16Arc$LT$T$C$A$GT$9drop_slow17h8ab668c117dcba90E+0x42>
    226c:	eb 11                	jmp    227f <_ZN5alloc4sync16Arc$LT$T$C$A$GT$9drop_slow17h8ab668c117dcba90E+0x4f>
    226e:	90                   	nop
    226f:	90                   	nop
    2270:	f3 90                	pause
    2272:	0f b6 83 0c 00 00 00 	movzbl 0xc(%ebx),%eax
    2279:	84 c0                	test   %al,%al
    227b:	75 f3                	jne    2270 <_ZN5alloc4sync16Arc$LT$T$C$A$GT$9drop_slow17h8ab668c117dcba90E+0x40>
    227d:	eb e1                	jmp    2260 <_ZN5alloc4sync16Arc$LT$T$C$A$GT$9drop_slow17h8ab668c117dcba90E+0x30>
    227f:	89 f1                	mov    %esi,%ecx
    2281:	ba 1c 01 00 00       	mov    $0x11c,%edx
    2286:	e8 c5 1f 00 00       	call   4250 <_ZN4talc4talc13Talc$LT$O$GT$4free17h03e7af9670e8940dE>
    228b:	c6 83 0c 00 00 00 00 	movb   $0x0,0xc(%ebx)
    2292:	83 c4 04             	add    $0x4,%esp
    2295:	5e                   	pop    %esi
    2296:	5b                   	pop    %ebx
    2297:	c3                   	ret
    2298:	66 90                	xchg   %ax,%ax
    229a:	66 90                	xchg   %ax,%ax
    229c:	66 90                	xchg   %ax,%ax
    229e:	66 90                	xchg   %ax,%ax

000022a0 <_ZN3log13__private_api3log17hdf6e64cab5f2ccf3E>:
    22a0:	53                   	push   %ebx
    22a1:	57                   	push   %edi
    22a2:	56                   	push   %esi
    22a3:	83 ec 50             	sub    $0x50,%esp
    22a6:	8b 1a                	mov    (%edx),%ebx
    22a8:	8b 42 10             	mov    0x10(%edx),%eax
    22ab:	8b 30                	mov    (%eax),%esi
    22ad:	8b 78 04             	mov    0x4(%eax),%edi
    22b0:	8b 40 08             	mov    0x8(%eax),%eax
    22b3:	c7 44 24 2c 03 00 00 	movl   $0x3,0x2c(%esp)
    22ba:	00 
    22bb:	89 5c 24 30          	mov    %ebx,0x30(%esp)
    22bf:	8b 5a 04             	mov    0x4(%edx),%ebx
    22c2:	89 5c 24 34          	mov    %ebx,0x34(%esp)
    22c6:	8b 19                	mov    (%ecx),%ebx
    22c8:	89 5c 24 38          	mov    %ebx,0x38(%esp)
    22cc:	8b 59 04             	mov    0x4(%ecx),%ebx
    22cf:	89 5c 24 3c          	mov    %ebx,0x3c(%esp)
    22d3:	8b 59 08             	mov    0x8(%ecx),%ebx
    22d6:	89 5c 24 40          	mov    %ebx,0x40(%esp)
    22da:	8b 59 0c             	mov    0xc(%ecx),%ebx
    22dd:	89 5c 24 44          	mov    %ebx,0x44(%esp)
    22e1:	8b 59 10             	mov    0x10(%ecx),%ebx
    22e4:	89 5c 24 48          	mov    %ebx,0x48(%esp)
    22e8:	8b 49 14             	mov    0x14(%ecx),%ecx
    22eb:	89 4c 24 4c          	mov    %ecx,0x4c(%esp)
    22ef:	8b 4a 08             	mov    0x8(%edx),%ecx
    22f2:	c7 44 24 14 00 00 00 	movl   $0x0,0x14(%esp)
    22f9:	00 
    22fa:	89 4c 24 18          	mov    %ecx,0x18(%esp)
    22fe:	8b 4a 0c             	mov    0xc(%edx),%ecx
    2301:	89 4c 24 1c          	mov    %ecx,0x1c(%esp)
    2305:	c7 44 24 20 00 00 00 	movl   $0x0,0x20(%esp)
    230c:	00 
    230d:	89 74 24 24          	mov    %esi,0x24(%esp)
    2311:	89 7c 24 28          	mov    %edi,0x28(%esp)
    2315:	e8 00 00 00 00       	call   231a <_ZN3log13__private_api3log17hdf6e64cab5f2ccf3E+0x7a>
    231a:	5b                   	pop    %ebx
    231b:	81 c3 da 7c 00 00    	add    $0x7cda,%ebx
    2321:	c7 44 24 0c 01 00 00 	movl   $0x1,0xc(%esp)
    2328:	00 
    2329:	89 44 24 10          	mov    %eax,0x10(%esp)
    232d:	8b 83 40 27 00 00    	mov    0x2740(%ebx),%eax
    2333:	83 f8 02             	cmp    $0x2,%eax
    2336:	74 10                	je     2348 <_ZN3log13__private_api3log17hdf6e64cab5f2ccf3E+0xa8>
    2338:	8d 83 18 ff ff ff    	lea    -0xe8(%ebx),%eax
    233e:	75 10                	jne    2350 <_ZN3log13__private_api3log17hdf6e64cab5f2ccf3E+0xb0>
    2340:	8b 8b 24 00 00 00    	mov    0x24(%ebx),%ecx
    2346:	eb 0e                	jmp    2356 <_ZN3log13__private_api3log17hdf6e64cab5f2ccf3E+0xb6>
    2348:	8b 83 28 00 00 00    	mov    0x28(%ebx),%eax
    234e:	74 f0                	je     2340 <_ZN3log13__private_api3log17hdf6e64cab5f2ccf3E+0xa0>
    2350:	8d 8b 9b ea ff ff    	lea    -0x1565(%ebx),%ecx
    2356:	83 ec 08             	sub    $0x8,%esp
    2359:	8d 54 24 14          	lea    0x14(%esp),%edx
    235d:	52                   	push   %edx
    235e:	51                   	push   %ecx
    235f:	ff 50 10             	call   *0x10(%eax)
    2362:	83 c4 60             	add    $0x60,%esp
    2365:	5e                   	pop    %esi
    2366:	5f                   	pop    %edi
    2367:	5b                   	pop    %ebx
    2368:	c3                   	ret
    2369:	66 90                	xchg   %ax,%ax
    236b:	66 90                	xchg   %ax,%ax
    236d:	66 90                	xchg   %ax,%ax
    236f:	90                   	nop

00002370 <_ZN72_$LT$kernel_types..syscall..SyscallError$u20$as$u20$core..fmt..Debug$GT$3fmt17h51423209a3f15815E>:
    2370:	53                   	push   %ebx
    2371:	56                   	push   %esi
    2372:	50                   	push   %eax
    2373:	e8 00 00 00 00       	call   2378 <_ZN72_$LT$kernel_types..syscall..SyscallError$u20$as$u20$core..fmt..Debug$GT$3fmt17h51423209a3f15815E+0x8>
    2378:	5b                   	pop    %ebx
    2379:	81 c3 7c 7c 00 00    	add    $0x7c7c,%ebx
    237f:	8b 44 24 10          	mov    0x10(%esp),%eax
    2383:	8b 10                	mov    (%eax),%edx
    2385:	8d 83 23 ea ff ff    	lea    -0x15dd(%ebx),%eax
    238b:	b9 0c 00 00 00       	mov    $0xc,%ecx
    2390:	4a                   	dec    %edx
    2391:	8b 94 93 a4 d3 ff ff 	mov    -0x2c5c(%ebx,%edx,4),%edx
    2398:	01 da                	add    %ebx,%edx
    239a:	ff e2                	jmp    *%edx
    239c:	8d 83 2f ea ff ff    	lea    -0x15d1(%ebx),%eax
    23a2:	b9 0b 00 00 00       	mov    $0xb,%ecx
    23a7:	eb 69                	jmp    2412 <_ZN72_$LT$kernel_types..syscall..SyscallError$u20$as$u20$core..fmt..Debug$GT$3fmt17h51423209a3f15815E+0xa2>
    23a9:	8d 83 cb d7 ff ff    	lea    -0x2835(%ebx),%eax
    23af:	b9 08 00 00 00       	mov    $0x8,%ecx
    23b4:	eb 5c                	jmp    2412 <_ZN72_$LT$kernel_types..syscall..SyscallError$u20$as$u20$core..fmt..Debug$GT$3fmt17h51423209a3f15815E+0xa2>
    23b6:	8d 83 74 ea ff ff    	lea    -0x158c(%ebx),%eax
    23bc:	b9 0f 00 00 00       	mov    $0xf,%ecx
    23c1:	eb 4f                	jmp    2412 <_ZN72_$LT$kernel_types..syscall..SyscallError$u20$as$u20$core..fmt..Debug$GT$3fmt17h51423209a3f15815E+0xa2>
    23c3:	8d 83 3a ea ff ff    	lea    -0x15c6(%ebx),%eax
    23c9:	b9 0f 00 00 00       	mov    $0xf,%ecx
    23ce:	eb 42                	jmp    2412 <_ZN72_$LT$kernel_types..syscall..SyscallError$u20$as$u20$core..fmt..Debug$GT$3fmt17h51423209a3f15815E+0xa2>
    23d0:	8d 83 49 ea ff ff    	lea    -0x15b7(%ebx),%eax
    23d6:	eb 3a                	jmp    2412 <_ZN72_$LT$kernel_types..syscall..SyscallError$u20$as$u20$core..fmt..Debug$GT$3fmt17h51423209a3f15815E+0xa2>
    23d8:	8d 83 36 d7 ff ff    	lea    -0x28ca(%ebx),%eax
    23de:	b9 10 00 00 00       	mov    $0x10,%ecx
    23e3:	eb 2d                	jmp    2412 <_ZN72_$LT$kernel_types..syscall..SyscallError$u20$as$u20$core..fmt..Debug$GT$3fmt17h51423209a3f15815E+0xa2>
    23e5:	8d 83 83 ea ff ff    	lea    -0x157d(%ebx),%eax
    23eb:	b9 06 00 00 00       	mov    $0x6,%ecx
    23f0:	eb 20                	jmp    2412 <_ZN72_$LT$kernel_types..syscall..SyscallError$u20$as$u20$core..fmt..Debug$GT$3fmt17h51423209a3f15815E+0xa2>
    23f2:	8d 83 26 d7 ff ff    	lea    -0x28da(%ebx),%eax
    23f8:	b9 10 00 00 00       	mov    $0x10,%ecx
    23fd:	eb 13                	jmp    2412 <_ZN72_$LT$kernel_types..syscall..SyscallError$u20$as$u20$core..fmt..Debug$GT$3fmt17h51423209a3f15815E+0xa2>
    23ff:	8d 83 55 ea ff ff    	lea    -0x15ab(%ebx),%eax
    2405:	eb 0b                	jmp    2412 <_ZN72_$LT$kernel_types..syscall..SyscallError$u20$as$u20$core..fmt..Debug$GT$3fmt17h51423209a3f15815E+0xa2>
    2407:	8d 83 61 ea ff ff    	lea    -0x159f(%ebx),%eax
    240d:	b9 13 00 00 00       	mov    $0x13,%ecx
    2412:	8b 54 24 14          	mov    0x14(%esp),%edx
    2416:	8b 72 04             	mov    0x4(%edx),%esi
    2419:	83 ec 04             	sub    $0x4,%esp
    241c:	51                   	push   %ecx
    241d:	50                   	push   %eax
    241e:	ff 32                	push   (%edx)
    2420:	ff 56 0c             	call   *0xc(%esi)
    2423:	83 c4 14             	add    $0x14,%esp
    2426:	5e                   	pop    %esi
    2427:	5b                   	pop    %ebx
    2428:	c3                   	ret
    2429:	0f 0b                	ud2
    242b:	66 90                	xchg   %ax,%ax
    242d:	66 90                	xchg   %ax,%ax
    242f:	90                   	nop

00002430 <_ZN66_$LT$core..option..Option$LT$T$GT$$u20$as$u20$core..fmt..Debug$GT$3fmt17h8a01ea6ab674c328E>:
    2430:	55                   	push   %ebp
    2431:	53                   	push   %ebx
    2432:	57                   	push   %edi
    2433:	56                   	push   %esi
    2434:	83 ec 1c             	sub    $0x1c,%esp
    2437:	e8 00 00 00 00       	call   243c <_ZN66_$LT$core..option..Option$LT$T$GT$$u20$as$u20$core..fmt..Debug$GT$3fmt17h8a01ea6ab674c328E+0xc>
    243c:	5b                   	pop    %ebx
    243d:	81 c3 b8 7b 00 00    	add    $0x7bb8,%ebx
    2443:	8b 74 24 34          	mov    0x34(%esp),%esi
    2447:	8b 44 24 30          	mov    0x30(%esp),%eax
    244b:	81 38 00 00 11 00    	cmpl   $0x110000,(%eax)
    2451:	75 1c                	jne    246f <_ZN66_$LT$core..option..Option$LT$T$GT$$u20$as$u20$core..fmt..Debug$GT$3fmt17h8a01ea6ab674c328E+0x3f>
    2453:	8b 46 04             	mov    0x4(%esi),%eax
    2456:	83 ec 04             	sub    $0x4,%esp
    2459:	8d 8b a2 d6 ff ff    	lea    -0x295e(%ebx),%ecx
    245f:	6a 04                	push   $0x4
    2461:	51                   	push   %ecx
    2462:	ff 36                	push   (%esi)
    2464:	ff 50 0c             	call   *0xc(%eax)
    2467:	83 c4 2c             	add    $0x2c,%esp
    246a:	e9 f8 00 00 00       	jmp    2567 <_ZN66_$LT$core..option..Option$LT$T$GT$$u20$as$u20$core..fmt..Debug$GT$3fmt17h8a01ea6ab674c328E+0x137>
    246f:	8b 0e                	mov    (%esi),%ecx
    2471:	8b 46 04             	mov    0x4(%esi),%eax
    2474:	89 44 24 0c          	mov    %eax,0xc(%esp)
    2478:	8b 50 0c             	mov    0xc(%eax),%edx
    247b:	83 ec 04             	sub    $0x4,%esp
    247e:	8d 83 a6 d6 ff ff    	lea    -0x295a(%ebx),%eax
    2484:	6a 04                	push   $0x4
    2486:	50                   	push   %eax
    2487:	89 cf                	mov    %ecx,%edi
    2489:	51                   	push   %ecx
    248a:	89 d5                	mov    %edx,%ebp
    248c:	ff d2                	call   *%edx
    248e:	83 c4 10             	add    $0x10,%esp
    2491:	b1 01                	mov    $0x1,%cl
    2493:	84 c0                	test   %al,%al
    2495:	0f 85 c7 00 00 00    	jne    2562 <_ZN66_$LT$core..option..Option$LT$T$GT$$u20$as$u20$core..fmt..Debug$GT$3fmt17h8a01ea6ab674c328E+0x132>
    249b:	f6 46 0a 80          	testb  $0x80,0xa(%esi)
    249f:	75 3b                	jne    24dc <_ZN66_$LT$core..option..Option$LT$T$GT$$u20$as$u20$core..fmt..Debug$GT$3fmt17h8a01ea6ab674c328E+0xac>
    24a1:	83 ec 04             	sub    $0x4,%esp
    24a4:	8d 83 0d dc ff ff    	lea    -0x23f3(%ebx),%eax
    24aa:	6a 01                	push   $0x1
    24ac:	50                   	push   %eax
    24ad:	89 fe                	mov    %edi,%esi
    24af:	57                   	push   %edi
    24b0:	89 ef                	mov    %ebp,%edi
    24b2:	ff d5                	call   *%ebp
    24b4:	83 c4 10             	add    $0x10,%esp
    24b7:	84 c0                	test   %al,%al
    24b9:	75 74                	jne    252f <_ZN66_$LT$core..option..Option$LT$T$GT$$u20$as$u20$core..fmt..Debug$GT$3fmt17h8a01ea6ab674c328E+0xff>
    24bb:	83 ec 0c             	sub    $0xc,%esp
    24be:	8b 4c 24 3c          	mov    0x3c(%esp),%ecx
    24c2:	89 f2                	mov    %esi,%edx
    24c4:	ff 74 24 18          	push   0x18(%esp)
    24c8:	e8 a3 00 00 00       	call   2570 <_ZN42_$LT$$RF$T$u20$as$u20$core..fmt..Debug$GT$3fmt17h049a902c9901dd67E>
    24cd:	83 c4 10             	add    $0x10,%esp
    24d0:	84 c0                	test   %al,%al
    24d2:	b1 01                	mov    $0x1,%cl
    24d4:	0f 85 88 00 00 00    	jne    2562 <_ZN66_$LT$core..option..Option$LT$T$GT$$u20$as$u20$core..fmt..Debug$GT$3fmt17h8a01ea6ab674c328E+0x132>
    24da:	eb 72                	jmp    254e <_ZN66_$LT$core..option..Option$LT$T$GT$$u20$as$u20$core..fmt..Debug$GT$3fmt17h8a01ea6ab674c328E+0x11e>
    24dc:	83 ec 04             	sub    $0x4,%esp
    24df:	8d 83 0e dc ff ff    	lea    -0x23f2(%ebx),%eax
    24e5:	6a 02                	push   $0x2
    24e7:	50                   	push   %eax
    24e8:	89 fe                	mov    %edi,%esi
    24ea:	57                   	push   %edi
    24eb:	89 ef                	mov    %ebp,%edi
    24ed:	ff d5                	call   *%ebp
    24ef:	83 c4 10             	add    $0x10,%esp
    24f2:	84 c0                	test   %al,%al
    24f4:	75 39                	jne    252f <_ZN66_$LT$core..option..Option$LT$T$GT$$u20$as$u20$core..fmt..Debug$GT$3fmt17h8a01ea6ab674c328E+0xff>
    24f6:	c6 44 24 0b 01       	movb   $0x1,0xb(%esp)
    24fb:	89 74 24 10          	mov    %esi,0x10(%esp)
    24ff:	8b 44 24 0c          	mov    0xc(%esp),%eax
    2503:	89 44 24 14          	mov    %eax,0x14(%esp)
    2507:	8d 44 24 0b          	lea    0xb(%esp),%eax
    250b:	89 44 24 18          	mov    %eax,0x18(%esp)
    250f:	83 ec 0c             	sub    $0xc,%esp
    2512:	8d 83 88 fd ff ff    	lea    -0x278(%ebx),%eax
    2518:	8d 6c 24 1c          	lea    0x1c(%esp),%ebp
    251c:	8b 4c 24 3c          	mov    0x3c(%esp),%ecx
    2520:	89 ea                	mov    %ebp,%edx
    2522:	50                   	push   %eax
    2523:	e8 48 00 00 00       	call   2570 <_ZN42_$LT$$RF$T$u20$as$u20$core..fmt..Debug$GT$3fmt17h049a902c9901dd67E>
    2528:	83 c4 10             	add    $0x10,%esp
    252b:	84 c0                	test   %al,%al
    252d:	74 04                	je     2533 <_ZN66_$LT$core..option..Option$LT$T$GT$$u20$as$u20$core..fmt..Debug$GT$3fmt17h8a01ea6ab674c328E+0x103>
    252f:	b1 01                	mov    $0x1,%cl
    2531:	eb 2f                	jmp    2562 <_ZN66_$LT$core..option..Option$LT$T$GT$$u20$as$u20$core..fmt..Debug$GT$3fmt17h8a01ea6ab674c328E+0x132>
    2533:	83 ec 04             	sub    $0x4,%esp
    2536:	8d 83 08 dc ff ff    	lea    -0x23f8(%ebx),%eax
    253c:	6a 02                	push   $0x2
    253e:	50                   	push   %eax
    253f:	55                   	push   %ebp
    2540:	e8 9b 18 00 00       	call   3de0 <_ZN68_$LT$core..fmt..builders..PadAdapter$u20$as$u20$core..fmt..Write$GT$9write_str17h24b9d0f154c11ae5E>
    2545:	83 c4 10             	add    $0x10,%esp
    2548:	84 c0                	test   %al,%al
    254a:	b1 01                	mov    $0x1,%cl
    254c:	75 14                	jne    2562 <_ZN66_$LT$core..option..Option$LT$T$GT$$u20$as$u20$core..fmt..Debug$GT$3fmt17h8a01ea6ab674c328E+0x132>
    254e:	83 ec 04             	sub    $0x4,%esp
    2551:	8d 83 b1 db ff ff    	lea    -0x244f(%ebx),%eax
    2557:	6a 01                	push   $0x1
    2559:	50                   	push   %eax
    255a:	56                   	push   %esi
    255b:	ff d7                	call   *%edi
    255d:	83 c4 10             	add    $0x10,%esp
    2560:	89 c1                	mov    %eax,%ecx
    2562:	89 c8                	mov    %ecx,%eax
    2564:	83 c4 1c             	add    $0x1c,%esp
    2567:	5e                   	pop    %esi
    2568:	5f                   	pop    %edi
    2569:	5b                   	pop    %ebx
    256a:	5d                   	pop    %ebp
    256b:	c3                   	ret
    256c:	66 90                	xchg   %ax,%ax
    256e:	66 90                	xchg   %ax,%ax

00002570 <_ZN42_$LT$$RF$T$u20$as$u20$core..fmt..Debug$GT$3fmt17h049a902c9901dd67E>:
    2570:	55                   	push   %ebp
    2571:	53                   	push   %ebx
    2572:	57                   	push   %edi
    2573:	56                   	push   %esi
    2574:	83 ec 3c             	sub    $0x3c,%esp
    2577:	89 d6                	mov    %edx,%esi
    2579:	e8 00 00 00 00       	call   257e <_ZN42_$LT$$RF$T$u20$as$u20$core..fmt..Debug$GT$3fmt17h049a902c9901dd67E+0xe>
    257e:	5b                   	pop    %ebx
    257f:	81 c3 76 7a 00 00    	add    $0x7a76,%ebx
    2585:	8b 44 24 50          	mov    0x50(%esp),%eax
    2589:	8b 29                	mov    (%ecx),%ebp
    258b:	8b 78 10             	mov    0x10(%eax),%edi
    258e:	83 ec 08             	sub    $0x8,%esp
    2591:	89 5c 24 10          	mov    %ebx,0x10(%esp)
    2595:	6a 27                	push   $0x27
    2597:	52                   	push   %edx
    2598:	ff d7                	call   *%edi
    259a:	83 c4 10             	add    $0x10,%esp
    259d:	89 c1                	mov    %eax,%ecx
    259f:	b0 01                	mov    $0x1,%al
    25a1:	84 c9                	test   %cl,%cl
    25a3:	0f 85 9c 03 00 00    	jne    2945 <_ZN42_$LT$$RF$T$u20$as$u20$core..fmt..Debug$GT$3fmt17h049a902c9901dd67E+0x3d5>
    25a9:	89 74 24 1c          	mov    %esi,0x1c(%esp)
    25ad:	89 7c 24 38          	mov    %edi,0x38(%esp)
    25b1:	83 fd 27             	cmp    $0x27,%ebp
    25b4:	89 6c 24 0c          	mov    %ebp,0xc(%esp)
    25b8:	77 1b                	ja     25d5 <_ZN42_$LT$$RF$T$u20$as$u20$core..fmt..Debug$GT$3fmt17h049a902c9901dd67E+0x65>
    25ba:	8b 4c 24 08          	mov    0x8(%esp),%ecx
    25be:	8b 84 a9 ac d4 ff ff 	mov    -0x2b54(%ecx,%ebp,4),%eax
    25c5:	01 c8                	add    %ecx,%eax
    25c7:	ff e0                	jmp    *%eax
    25c9:	66 c7 44 24 10 5c 30 	movw   $0x305c,0x10(%esp)
    25d0:	e9 0e 01 00 00       	jmp    26e3 <_ZN42_$LT$$RF$T$u20$as$u20$core..fmt..Debug$GT$3fmt17h049a902c9901dd67E+0x173>
    25d5:	83 fd 5c             	cmp    $0x5c,%ebp
    25d8:	75 0c                	jne    25e6 <_ZN42_$LT$$RF$T$u20$as$u20$core..fmt..Debug$GT$3fmt17h049a902c9901dd67E+0x76>
    25da:	66 c7 44 24 10 5c 5c 	movw   $0x5c5c,0x10(%esp)
    25e1:	e9 fd 00 00 00       	jmp    26e3 <_ZN42_$LT$$RF$T$u20$as$u20$core..fmt..Debug$GT$3fmt17h049a902c9901dd67E+0x173>
    25e6:	8b 4c 24 0c          	mov    0xc(%esp),%ecx
    25ea:	81 f9 ff 02 00 00    	cmp    $0x2ff,%ecx
    25f0:	0f 86 50 01 00 00    	jbe    2746 <_ZN42_$LT$$RF$T$u20$as$u20$core..fmt..Debug$GT$3fmt17h049a902c9901dd67E+0x1d6>
    25f6:	8b 5c 24 08          	mov    0x8(%esp),%ebx
    25fa:	89 cf                	mov    %ecx,%edi
    25fc:	e8 cf 14 00 00       	call   3ad0 <_ZN4core7unicode12unicode_data15grapheme_extend11lookup_slow17h1564a2dab4ebeb9dE>
    2601:	84 c0                	test   %al,%al
    2603:	0f 84 1d 02 00 00    	je     2826 <_ZN42_$LT$$RF$T$u20$as$u20$core..fmt..Debug$GT$3fmt17h049a902c9901dd67E+0x2b6>
    2609:	89 f8                	mov    %edi,%eax
    260b:	83 c8 01             	or     $0x1,%eax
    260e:	0f bd c8             	bsr    %eax,%ecx
    2611:	83 f1 1c             	xor    $0x1c,%ecx
    2614:	c1 e9 02             	shr    $0x2,%ecx
    2617:	8d 71 fe             	lea    -0x2(%ecx),%esi
    261a:	c6 44 24 22 00       	movb   $0x0,0x22(%esp)
    261f:	66 c7 44 24 20 00 00 	movw   $0x0,0x20(%esp)
    2626:	89 f8                	mov    %edi,%eax
    2628:	c1 e8 14             	shr    $0x14,%eax
    262b:	0f b6 84 03 f6 d6 ff 	movzbl -0x290a(%ebx,%eax,1),%eax
    2632:	ff 
    2633:	88 44 24 23          	mov    %al,0x23(%esp)
    2637:	89 f8                	mov    %edi,%eax
    2639:	c1 e8 10             	shr    $0x10,%eax
    263c:	83 e0 0f             	and    $0xf,%eax
    263f:	0f b6 84 03 f6 d6 ff 	movzbl -0x290a(%ebx,%eax,1),%eax
    2646:	ff 
    2647:	88 44 24 24          	mov    %al,0x24(%esp)
    264b:	89 f8                	mov    %edi,%eax
    264d:	c1 e8 0c             	shr    $0xc,%eax
    2650:	83 e0 0f             	and    $0xf,%eax
    2653:	0f b6 84 03 f6 d6 ff 	movzbl -0x290a(%ebx,%eax,1),%eax
    265a:	ff 
    265b:	88 44 24 25          	mov    %al,0x25(%esp)
    265f:	89 f8                	mov    %edi,%eax
    2661:	c1 e8 08             	shr    $0x8,%eax
    2664:	83 e0 0f             	and    $0xf,%eax
    2667:	0f b6 84 03 f6 d6 ff 	movzbl -0x290a(%ebx,%eax,1),%eax
    266e:	ff 
    266f:	88 44 24 26          	mov    %al,0x26(%esp)
    2673:	89 f8                	mov    %edi,%eax
    2675:	c1 e8 04             	shr    $0x4,%eax
    2678:	83 e0 0f             	and    $0xf,%eax
    267b:	0f b6 84 03 f6 d6 ff 	movzbl -0x290a(%ebx,%eax,1),%eax
    2682:	ff 
    2683:	88 44 24 27          	mov    %al,0x27(%esp)
    2687:	83 e7 0f             	and    $0xf,%edi
    268a:	0f b6 84 3b f6 d6 ff 	movzbl -0x290a(%ebx,%edi,1),%eax
    2691:	ff 
    2692:	88 44 24 28          	mov    %al,0x28(%esp)
    2696:	c6 44 24 29 7d       	movb   $0x7d,0x29(%esp)
    269b:	66 c7 44 0c 1e 5c 75 	movw   $0x755c,0x1e(%esp,%ecx,1)
    26a2:	c6 44 0c 20 7b       	movb   $0x7b,0x20(%esp,%ecx,1)
    26a7:	8b 44 24 20          	mov    0x20(%esp),%eax
    26ab:	8b 4c 24 24          	mov    0x24(%esp),%ecx
    26af:	89 44 24 10          	mov    %eax,0x10(%esp)
    26b3:	89 4c 24 14          	mov    %ecx,0x14(%esp)
    26b7:	0f b7 44 24 28       	movzwl 0x28(%esp),%eax
    26bc:	e9 49 01 00 00       	jmp    280a <_ZN42_$LT$$RF$T$u20$as$u20$core..fmt..Debug$GT$3fmt17h049a902c9901dd67E+0x29a>
    26c1:	66 c7 44 24 10 5c 74 	movw   $0x745c,0x10(%esp)
    26c8:	eb 19                	jmp    26e3 <_ZN42_$LT$$RF$T$u20$as$u20$core..fmt..Debug$GT$3fmt17h049a902c9901dd67E+0x173>
    26ca:	66 c7 44 24 10 5c 27 	movw   $0x275c,0x10(%esp)
    26d1:	eb 10                	jmp    26e3 <_ZN42_$LT$$RF$T$u20$as$u20$core..fmt..Debug$GT$3fmt17h049a902c9901dd67E+0x173>
    26d3:	66 c7 44 24 10 5c 6e 	movw   $0x6e5c,0x10(%esp)
    26da:	eb 07                	jmp    26e3 <_ZN42_$LT$$RF$T$u20$as$u20$core..fmt..Debug$GT$3fmt17h049a902c9901dd67E+0x173>
    26dc:	66 c7 44 24 10 5c 72 	movw   $0x725c,0x10(%esp)
    26e3:	c7 44 24 16 00 00 00 	movl   $0x0,0x16(%esp)
    26ea:	00 
    26eb:	c7 44 24 12 00 00 00 	movl   $0x0,0x12(%esp)
    26f2:	00 
    26f3:	31 d2                	xor    %edx,%edx
    26f5:	b9 02 00 00 00       	mov    $0x2,%ecx
    26fa:	c6 44 24 0c 02       	movb   $0x2,0xc(%esp)
    26ff:	31 c0                	xor    %eax,%eax
    2701:	8b 74 24 1c          	mov    0x1c(%esp),%esi
    2705:	8b 5c 24 08          	mov    0x8(%esp),%ebx
    2709:	88 54 24 1a          	mov    %dl,0x1a(%esp)
    270d:	0f b6 54 24 0c       	movzbl 0xc(%esp),%edx
    2712:	88 54 24 1b          	mov    %dl,0x1b(%esp)
    2716:	80 7c 24 10 80       	cmpb   $0x80,0x10(%esp)
    271b:	8b 7c 24 38          	mov    0x38(%esp),%edi
    271f:	8b 54 24 50          	mov    0x50(%esp),%edx
    2723:	75 09                	jne    272e <_ZN42_$LT$$RF$T$u20$as$u20$core..fmt..Debug$GT$3fmt17h049a902c9901dd67E+0x1be>
    2725:	8b 44 24 14          	mov    0x14(%esp),%eax
    2729:	e9 fa 01 00 00       	jmp    2928 <_ZN42_$LT$$RF$T$u20$as$u20$core..fmt..Debug$GT$3fmt17h049a902c9901dd67E+0x3b8>
    272e:	0f b6 c0             	movzbl %al,%eax
    2731:	29 c1                	sub    %eax,%ecx
    2733:	01 e0                	add    %esp,%eax
    2735:	83 c0 10             	add    $0x10,%eax
    2738:	83 ec 04             	sub    $0x4,%esp
    273b:	51                   	push   %ecx
    273c:	50                   	push   %eax
    273d:	56                   	push   %esi
    273e:	ff 52 0c             	call   *0xc(%edx)
    2741:	e9 e9 01 00 00       	jmp    292f <_ZN42_$LT$$RF$T$u20$as$u20$core..fmt..Debug$GT$3fmt17h049a902c9901dd67E+0x3bf>
    2746:	83 f9 20             	cmp    $0x20,%ecx
    2749:	0f 83 b9 01 00 00    	jae    2908 <_ZN42_$LT$$RF$T$u20$as$u20$core..fmt..Debug$GT$3fmt17h049a902c9901dd67E+0x398>
    274f:	8b 54 24 0c          	mov    0xc(%esp),%edx
    2753:	89 d0                	mov    %edx,%eax
    2755:	83 c8 01             	or     $0x1,%eax
    2758:	0f bd c8             	bsr    %eax,%ecx
    275b:	83 f1 1c             	xor    $0x1c,%ecx
    275e:	c1 e9 02             	shr    $0x2,%ecx
    2761:	8d 71 fe             	lea    -0x2(%ecx),%esi
    2764:	c6 44 24 2e 00       	movb   $0x0,0x2e(%esp)
    2769:	66 c7 44 24 2c 00 00 	movw   $0x0,0x2c(%esp)
    2770:	89 d0                	mov    %edx,%eax
    2772:	c1 e8 14             	shr    $0x14,%eax
    2775:	8b 5c 24 08          	mov    0x8(%esp),%ebx
    2779:	0f b6 84 03 f6 d6 ff 	movzbl -0x290a(%ebx,%eax,1),%eax
    2780:	ff 
    2781:	88 44 24 2f          	mov    %al,0x2f(%esp)
    2785:	89 d0                	mov    %edx,%eax
    2787:	c1 e8 10             	shr    $0x10,%eax
    278a:	83 e0 0f             	and    $0xf,%eax
    278d:	0f b6 84 03 f6 d6 ff 	movzbl -0x290a(%ebx,%eax,1),%eax
    2794:	ff 
    2795:	88 44 24 30          	mov    %al,0x30(%esp)
    2799:	89 d0                	mov    %edx,%eax
    279b:	c1 e8 0c             	shr    $0xc,%eax
    279e:	83 e0 0f             	and    $0xf,%eax
    27a1:	0f b6 84 03 f6 d6 ff 	movzbl -0x290a(%ebx,%eax,1),%eax
    27a8:	ff 
    27a9:	88 44 24 31          	mov    %al,0x31(%esp)
    27ad:	89 d0                	mov    %edx,%eax
    27af:	c1 e8 08             	shr    $0x8,%eax
    27b2:	83 e0 0f             	and    $0xf,%eax
    27b5:	0f b6 84 03 f6 d6 ff 	movzbl -0x290a(%ebx,%eax,1),%eax
    27bc:	ff 
    27bd:	88 44 24 32          	mov    %al,0x32(%esp)
    27c1:	89 d0                	mov    %edx,%eax
    27c3:	c1 e8 04             	shr    $0x4,%eax
    27c6:	83 e0 0f             	and    $0xf,%eax
    27c9:	0f b6 84 03 f6 d6 ff 	movzbl -0x290a(%ebx,%eax,1),%eax
    27d0:	ff 
    27d1:	88 44 24 33          	mov    %al,0x33(%esp)
    27d5:	83 e2 0f             	and    $0xf,%edx
    27d8:	0f b6 84 13 f6 d6 ff 	movzbl -0x290a(%ebx,%edx,1),%eax
    27df:	ff 
    27e0:	88 44 24 34          	mov    %al,0x34(%esp)
    27e4:	c6 44 24 35 7d       	movb   $0x7d,0x35(%esp)
    27e9:	66 c7 44 0c 2a 5c 75 	movw   $0x755c,0x2a(%esp,%ecx,1)
    27f0:	c6 44 0c 2c 7b       	movb   $0x7b,0x2c(%esp,%ecx,1)
    27f5:	8b 44 24 2c          	mov    0x2c(%esp),%eax
    27f9:	8b 4c 24 30          	mov    0x30(%esp),%ecx
    27fd:	89 44 24 10          	mov    %eax,0x10(%esp)
    2801:	89 4c 24 14          	mov    %ecx,0x14(%esp)
    2805:	0f b7 44 24 34       	movzwl 0x34(%esp),%eax
    280a:	66 89 44 24 18       	mov    %ax,0x18(%esp)
    280f:	b9 0a 00 00 00       	mov    $0xa,%ecx
    2814:	c6 44 24 0c 0a       	movb   $0xa,0xc(%esp)
    2819:	89 f2                	mov    %esi,%edx
    281b:	89 f0                	mov    %esi,%eax
    281d:	8b 74 24 1c          	mov    0x1c(%esp),%esi
    2821:	e9 e3 fe ff ff       	jmp    2709 <_ZN42_$LT$$RF$T$u20$as$u20$core..fmt..Debug$GT$3fmt17h049a902c9901dd67E+0x199>
    2826:	81 ff 00 00 01 00    	cmp    $0x10000,%edi
    282c:	0f 82 1b 01 00 00    	jb     294d <_ZN42_$LT$$RF$T$u20$as$u20$core..fmt..Debug$GT$3fmt17h049a902c9901dd67E+0x3dd>
    2832:	8b 7c 24 0c          	mov    0xc(%esp),%edi
    2836:	81 ff 00 00 02 00    	cmp    $0x20000,%edi
    283c:	0f 83 e0 01 00 00    	jae    2a22 <_ZN42_$LT$$RF$T$u20$as$u20$core..fmt..Debug$GT$3fmt17h049a902c9901dd67E+0x4b2>
    2842:	31 c9                	xor    %ecx,%ecx
    2844:	31 db                	xor    %ebx,%ebx
    2846:	89 de                	mov    %ebx,%esi
    2848:	8b 7c 24 08          	mov    0x8(%esp),%edi
    284c:	0f b6 ac 1f 53 dd ff 	movzbl -0x22ad(%edi,%ebx,1),%ebp
    2853:	ff 
    2854:	83 c3 02             	add    $0x2,%ebx
    2857:	8d 14 29             	lea    (%ecx,%ebp,1),%edx
    285a:	8b 44 24 0c          	mov    0xc(%esp),%eax
    285e:	38 a4 37 52 dd ff ff 	cmp    %ah,-0x22ae(%edi,%esi,1)
    2865:	75 3a                	jne    28a1 <_ZN42_$LT$$RF$T$u20$as$u20$core..fmt..Debug$GT$3fmt17h049a902c9901dd67E+0x331>
    2867:	39 ca                	cmp    %ecx,%edx
    2869:	0f 82 56 02 00 00    	jb     2ac5 <_ZN42_$LT$$RF$T$u20$as$u20$core..fmt..Debug$GT$3fmt17h049a902c9901dd67E+0x555>
    286f:	81 fa d0 00 00 00    	cmp    $0xd0,%edx
    2875:	0f 87 63 02 00 00    	ja     2ade <_ZN42_$LT$$RF$T$u20$as$u20$core..fmt..Debug$GT$3fmt17h049a902c9901dd67E+0x56e>
    287b:	8b 44 24 08          	mov    0x8(%esp),%eax
    287f:	8d 34 08             	lea    (%eax,%ecx,1),%esi
    2882:	81 c6 aa dd ff ff    	add    $0xffffddaa,%esi
    2888:	31 c0                	xor    %eax,%eax
    288a:	39 c5                	cmp    %eax,%ebp
    288c:	74 15                	je     28a3 <_ZN42_$LT$$RF$T$u20$as$u20$core..fmt..Debug$GT$3fmt17h049a902c9901dd67E+0x333>
    288e:	8d 78 01             	lea    0x1(%eax),%edi
    2891:	8b 4c 24 0c          	mov    0xc(%esp),%ecx
    2895:	38 0c 06             	cmp    %cl,(%esi,%eax,1)
    2898:	89 f8                	mov    %edi,%eax
    289a:	75 ee                	jne    288a <_ZN42_$LT$$RF$T$u20$as$u20$core..fmt..Debug$GT$3fmt17h049a902c9901dd67E+0x31a>
    289c:	e9 ae fe ff ff       	jmp    274f <_ZN42_$LT$$RF$T$u20$as$u20$core..fmt..Debug$GT$3fmt17h049a902c9901dd67E+0x1df>
    28a1:	77 07                	ja     28aa <_ZN42_$LT$$RF$T$u20$as$u20$core..fmt..Debug$GT$3fmt17h049a902c9901dd67E+0x33a>
    28a3:	89 d1                	mov    %edx,%ecx
    28a5:	83 fb 58             	cmp    $0x58,%ebx
    28a8:	75 9c                	jne    2846 <_ZN42_$LT$$RF$T$u20$as$u20$core..fmt..Debug$GT$3fmt17h049a902c9901dd67E+0x2d6>
    28aa:	0f b7 4c 24 0c       	movzwl 0xc(%esp),%ecx
    28af:	31 d2                	xor    %edx,%edx
    28b1:	b3 01                	mov    $0x1,%bl
    28b3:	8b 74 24 08          	mov    0x8(%esp),%esi
    28b7:	8d 42 01             	lea    0x1(%edx),%eax
    28ba:	0f be ac 16 7a de ff 	movsbl -0x2186(%esi,%edx,1),%ebp
    28c1:	ff 
    28c2:	85 ed                	test   %ebp,%ebp
    28c4:	78 04                	js     28ca <_ZN42_$LT$$RF$T$u20$as$u20$core..fmt..Debug$GT$3fmt17h049a902c9901dd67E+0x35a>
    28c6:	89 c2                	mov    %eax,%edx
    28c8:	eb 22                	jmp    28ec <_ZN42_$LT$$RF$T$u20$as$u20$core..fmt..Debug$GT$3fmt17h049a902c9901dd67E+0x37c>
    28ca:	3d e6 01 00 00       	cmp    $0x1e6,%eax
    28cf:	0f 84 19 02 00 00    	je     2aee <_ZN42_$LT$$RF$T$u20$as$u20$core..fmt..Debug$GT$3fmt17h049a902c9901dd67E+0x57e>
    28d5:	8b 44 24 08          	mov    0x8(%esp),%eax
    28d9:	0f b6 84 10 7b de ff 	movzbl -0x2185(%eax,%edx,1),%eax
    28e0:	ff 
    28e1:	83 c2 02             	add    $0x2,%edx
    28e4:	83 e5 7f             	and    $0x7f,%ebp
    28e7:	c1 e5 08             	shl    $0x8,%ebp
    28ea:	09 c5                	or     %eax,%ebp
    28ec:	29 e9                	sub    %ebp,%ecx
    28ee:	0f 88 20 01 00 00    	js     2a14 <_ZN42_$LT$$RF$T$u20$as$u20$core..fmt..Debug$GT$3fmt17h049a902c9901dd67E+0x4a4>
    28f4:	80 f3 01             	xor    $0x1,%bl
    28f7:	81 fa e6 01 00 00    	cmp    $0x1e6,%edx
    28fd:	8b 74 24 08          	mov    0x8(%esp),%esi
    2901:	75 b4                	jne    28b7 <_ZN42_$LT$$RF$T$u20$as$u20$core..fmt..Debug$GT$3fmt17h049a902c9901dd67E+0x347>
    2903:	e9 0c 01 00 00       	jmp    2a14 <_ZN42_$LT$$RF$T$u20$as$u20$core..fmt..Debug$GT$3fmt17h049a902c9901dd67E+0x4a4>
    2908:	83 7c 24 0c 7f       	cmpl   $0x7f,0xc(%esp)
    290d:	73 3e                	jae    294d <_ZN42_$LT$$RF$T$u20$as$u20$core..fmt..Debug$GT$3fmt17h049a902c9901dd67E+0x3dd>
    290f:	c6 44 24 10 80       	movb   $0x80,0x10(%esp)
    2914:	8b 44 24 0c          	mov    0xc(%esp),%eax
    2918:	89 44 24 14          	mov    %eax,0x14(%esp)
    291c:	8b 7c 24 38          	mov    0x38(%esp),%edi
    2920:	8b 74 24 1c          	mov    0x1c(%esp),%esi
    2924:	8b 5c 24 08          	mov    0x8(%esp),%ebx
    2928:	83 ec 08             	sub    $0x8,%esp
    292b:	50                   	push   %eax
    292c:	56                   	push   %esi
    292d:	ff d7                	call   *%edi
    292f:	83 c4 10             	add    $0x10,%esp
    2932:	89 c1                	mov    %eax,%ecx
    2934:	b0 01                	mov    $0x1,%al
    2936:	84 c9                	test   %cl,%cl
    2938:	75 0b                	jne    2945 <_ZN42_$LT$$RF$T$u20$as$u20$core..fmt..Debug$GT$3fmt17h049a902c9901dd67E+0x3d5>
    293a:	83 ec 08             	sub    $0x8,%esp
    293d:	6a 27                	push   $0x27
    293f:	56                   	push   %esi
    2940:	ff d7                	call   *%edi
    2942:	83 c4 10             	add    $0x10,%esp
    2945:	83 c4 3c             	add    $0x3c,%esp
    2948:	5e                   	pop    %esi
    2949:	5f                   	pop    %edi
    294a:	5b                   	pop    %ebx
    294b:	5d                   	pop    %ebp
    294c:	c3                   	ret
    294d:	31 c9                	xor    %ecx,%ecx
    294f:	31 db                	xor    %ebx,%ebx
    2951:	89 de                	mov    %ebx,%esi
    2953:	8b 7c 24 08          	mov    0x8(%esp),%edi
    2957:	0f b6 ac 1f 61 e0 ff 	movzbl -0x1f9f(%edi,%ebx,1),%ebp
    295e:	ff 
    295f:	83 c3 02             	add    $0x2,%ebx
    2962:	8d 14 29             	lea    (%ecx,%ebp,1),%edx
    2965:	8b 44 24 0c          	mov    0xc(%esp),%eax
    2969:	38 a4 37 60 e0 ff ff 	cmp    %ah,-0x1fa0(%edi,%esi,1)
    2970:	75 45                	jne    29b7 <_ZN42_$LT$$RF$T$u20$as$u20$core..fmt..Debug$GT$3fmt17h049a902c9901dd67E+0x447>
    2972:	39 ca                	cmp    %ecx,%edx
    2974:	0f 82 4b 01 00 00    	jb     2ac5 <_ZN42_$LT$$RF$T$u20$as$u20$core..fmt..Debug$GT$3fmt17h049a902c9901dd67E+0x555>
    297a:	81 fa 22 01 00 00    	cmp    $0x122,%edx
    2980:	0f 87 48 01 00 00    	ja     2ace <_ZN42_$LT$$RF$T$u20$as$u20$core..fmt..Debug$GT$3fmt17h049a902c9901dd67E+0x55e>
    2986:	8b 44 24 08          	mov    0x8(%esp),%eax
    298a:	8d 34 08             	lea    (%eax,%ecx,1),%esi
    298d:	81 c6 b0 e0 ff ff    	add    $0xffffe0b0,%esi
    2993:	31 c0                	xor    %eax,%eax
    2995:	90                   	nop
    2996:	90                   	nop
    2997:	90                   	nop
    2998:	90                   	nop
    2999:	90                   	nop
    299a:	90                   	nop
    299b:	90                   	nop
    299c:	90                   	nop
    299d:	90                   	nop
    299e:	90                   	nop
    299f:	90                   	nop
    29a0:	39 c5                	cmp    %eax,%ebp
    29a2:	74 15                	je     29b9 <_ZN42_$LT$$RF$T$u20$as$u20$core..fmt..Debug$GT$3fmt17h049a902c9901dd67E+0x449>
    29a4:	8d 78 01             	lea    0x1(%eax),%edi
    29a7:	8b 4c 24 0c          	mov    0xc(%esp),%ecx
    29ab:	38 0c 06             	cmp    %cl,(%esi,%eax,1)
    29ae:	89 f8                	mov    %edi,%eax
    29b0:	75 ee                	jne    29a0 <_ZN42_$LT$$RF$T$u20$as$u20$core..fmt..Debug$GT$3fmt17h049a902c9901dd67E+0x430>
    29b2:	e9 98 fd ff ff       	jmp    274f <_ZN42_$LT$$RF$T$u20$as$u20$core..fmt..Debug$GT$3fmt17h049a902c9901dd67E+0x1df>
    29b7:	77 07                	ja     29c0 <_ZN42_$LT$$RF$T$u20$as$u20$core..fmt..Debug$GT$3fmt17h049a902c9901dd67E+0x450>
    29b9:	89 d1                	mov    %edx,%ecx
    29bb:	83 fb 50             	cmp    $0x50,%ebx
    29be:	75 91                	jne    2951 <_ZN42_$LT$$RF$T$u20$as$u20$core..fmt..Debug$GT$3fmt17h049a902c9901dd67E+0x3e1>
    29c0:	31 c0                	xor    %eax,%eax
    29c2:	b3 01                	mov    $0x1,%bl
    29c4:	8b 54 24 0c          	mov    0xc(%esp),%edx
    29c8:	8b 74 24 08          	mov    0x8(%esp),%esi
    29cc:	8d 48 01             	lea    0x1(%eax),%ecx
    29cf:	0f be ac 06 d2 e1 ff 	movsbl -0x1e2e(%esi,%eax,1),%ebp
    29d6:	ff 
    29d7:	85 ed                	test   %ebp,%ebp
    29d9:	78 04                	js     29df <_ZN42_$LT$$RF$T$u20$as$u20$core..fmt..Debug$GT$3fmt17h049a902c9901dd67E+0x46f>
    29db:	89 c8                	mov    %ecx,%eax
    29dd:	eb 23                	jmp    2a02 <_ZN42_$LT$$RF$T$u20$as$u20$core..fmt..Debug$GT$3fmt17h049a902c9901dd67E+0x492>
    29df:	81 f9 29 01 00 00    	cmp    $0x129,%ecx
    29e5:	0f 84 03 01 00 00    	je     2aee <_ZN42_$LT$$RF$T$u20$as$u20$core..fmt..Debug$GT$3fmt17h049a902c9901dd67E+0x57e>
    29eb:	8b 4c 24 08          	mov    0x8(%esp),%ecx
    29ef:	0f b6 8c 01 d3 e1 ff 	movzbl -0x1e2d(%ecx,%eax,1),%ecx
    29f6:	ff 
    29f7:	83 c0 02             	add    $0x2,%eax
    29fa:	83 e5 7f             	and    $0x7f,%ebp
    29fd:	c1 e5 08             	shl    $0x8,%ebp
    2a00:	09 cd                	or     %ecx,%ebp
    2a02:	29 ea                	sub    %ebp,%edx
    2a04:	78 0e                	js     2a14 <_ZN42_$LT$$RF$T$u20$as$u20$core..fmt..Debug$GT$3fmt17h049a902c9901dd67E+0x4a4>
    2a06:	80 f3 01             	xor    $0x1,%bl
    2a09:	3d 29 01 00 00       	cmp    $0x129,%eax
    2a0e:	8b 74 24 08          	mov    0x8(%esp),%esi
    2a12:	75 b8                	jne    29cc <_ZN42_$LT$$RF$T$u20$as$u20$core..fmt..Debug$GT$3fmt17h049a902c9901dd67E+0x45c>
    2a14:	f6 c3 01             	test   $0x1,%bl
    2a17:	0f 84 32 fd ff ff    	je     274f <_ZN42_$LT$$RF$T$u20$as$u20$core..fmt..Debug$GT$3fmt17h049a902c9901dd67E+0x1df>
    2a1d:	e9 ed fe ff ff       	jmp    290f <_ZN42_$LT$$RF$T$u20$as$u20$core..fmt..Debug$GT$3fmt17h049a902c9901dd67E+0x39f>
    2a22:	89 f8                	mov    %edi,%eax
    2a24:	25 e0 ff 1f 00       	and    $0x1fffe0,%eax
    2a29:	3d e0 a6 02 00       	cmp    $0x2a6e0,%eax
    2a2e:	0f 95 c0             	setne  %al
    2a31:	8d 8f c0 48 fd ff    	lea    -0x2b740(%edi),%ecx
    2a37:	83 f9 fa             	cmp    $0xfffffffa,%ecx
    2a3a:	0f 92 c1             	setb   %cl
    2a3d:	89 fa                	mov    %edi,%edx
    2a3f:	81 e2 fe ff 1f 00    	and    $0x1ffffe,%edx
    2a45:	81 fa 1e b8 02 00    	cmp    $0x2b81e,%edx
    2a4b:	0f 95 c2             	setne  %dl
    2a4e:	20 c2                	and    %al,%dl
    2a50:	8d 87 50 31 fd ff    	lea    -0x2ceb0(%edi),%eax
    2a56:	83 f8 f2             	cmp    $0xfffffff2,%eax
    2a59:	0f 92 c0             	setb   %al
    2a5c:	20 c8                	and    %cl,%al
    2a5e:	20 d0                	and    %dl,%al
    2a60:	8d 8f 10 14 fd ff    	lea    -0x2ebf0(%edi),%ecx
    2a66:	83 f9 f1             	cmp    $0xfffffff1,%ecx
    2a69:	0f 92 c1             	setb   %cl
    2a6c:	8d 97 00 08 fd ff    	lea    -0x2f800(%edi),%edx
    2a72:	81 fa 5e f6 ff ff    	cmp    $0xfffff65e,%edx
    2a78:	0f 92 c2             	setb   %dl
    2a7b:	20 ca                	and    %cl,%dl
    2a7d:	8d 8f 00 00 fd ff    	lea    -0x30000(%edi),%ecx
    2a83:	81 f9 1e fa ff ff    	cmp    $0xfffffa1e,%ecx
    2a89:	0f 92 c1             	setb   %cl
    2a8c:	20 d1                	and    %dl,%cl
    2a8e:	20 c1                	and    %al,%cl
    2a90:	8d 87 b0 ec fc ff    	lea    -0x31350(%edi),%eax
    2a96:	83 f8 fb             	cmp    $0xfffffffb,%eax
    2a99:	0f 92 c0             	setb   %al
    2a9c:	8d 97 00 ff f1 ff    	lea    -0xe0100(%edi),%edx
    2aa2:	81 fa b0 22 f5 ff    	cmp    $0xfff522b0,%edx
    2aa8:	0f 92 c2             	setb   %dl
    2aab:	20 c2                	and    %al,%dl
    2aad:	20 ca                	and    %cl,%dl
    2aaf:	81 ff f0 01 0e 00    	cmp    $0xe01f0,%edi
    2ab5:	0f 92 c0             	setb   %al
    2ab8:	84 c2                	test   %al,%dl
    2aba:	0f 84 8f fc ff ff    	je     274f <_ZN42_$LT$$RF$T$u20$as$u20$core..fmt..Debug$GT$3fmt17h049a902c9901dd67E+0x1df>
    2ac0:	e9 4a fe ff ff       	jmp    290f <_ZN42_$LT$$RF$T$u20$as$u20$core..fmt..Debug$GT$3fmt17h049a902c9901dd67E+0x39f>
    2ac5:	8b 5c 24 08          	mov    0x8(%esp),%ebx
    2ac9:	e8 72 e7 ff ff       	call   1240 <_ZN4core5slice5index22slice_index_order_fail17h3a5e48f4441e7556E>
    2ace:	89 d1                	mov    %edx,%ecx
    2ad0:	ba 22 01 00 00       	mov    $0x122,%edx
    2ad5:	8b 5c 24 08          	mov    0x8(%esp),%ebx
    2ad9:	e8 82 e6 ff ff       	call   1160 <_ZN4core5slice5index24slice_end_index_len_fail17hf6067e6df4b8d597E>
    2ade:	89 d1                	mov    %edx,%ecx
    2ae0:	ba d0 00 00 00       	mov    $0xd0,%edx
    2ae5:	8b 5c 24 08          	mov    0x8(%esp),%ebx
    2ae9:	e8 72 e6 ff ff       	call   1160 <_ZN4core5slice5index24slice_end_index_len_fail17hf6067e6df4b8d597E>
    2aee:	8b 5c 24 08          	mov    0x8(%esp),%ebx
    2af2:	8d 8b b0 fd ff ff    	lea    -0x250(%ebx),%ecx
    2af8:	e8 63 e7 ff ff       	call   1260 <_ZN4core6option13unwrap_failed17h1dfb8fb8ddfcbd94E>
    2afd:	66 90                	xchg   %ax,%ax
    2aff:	90                   	nop

00002b00 <_ZN67_$LT$kernel_lib..io..error..IoError$u20$as$u20$core..fmt..Debug$GT$3fmt17h49ee300309aa25d9E>:
    2b00:	55                   	push   %ebp
    2b01:	53                   	push   %ebx
    2b02:	57                   	push   %edi
    2b03:	56                   	push   %esi
    2b04:	83 ec 2c             	sub    $0x2c,%esp
    2b07:	e8 00 00 00 00       	call   2b0c <_ZN67_$LT$kernel_lib..io..error..IoError$u20$as$u20$core..fmt..Debug$GT$3fmt17h49ee300309aa25d9E+0xc>
    2b0c:	5b                   	pop    %ebx
    2b0d:	81 c3 e8 74 00 00    	add    $0x74e8,%ebx
    2b13:	8b 6c 24 44          	mov    0x44(%esp),%ebp
    2b17:	8b 44 24 40          	mov    0x40(%esp),%eax
    2b1b:	83 38 00             	cmpl   $0x0,(%eax)
    2b1e:	74 6a                	je     2b8a <_ZN67_$LT$kernel_lib..io..error..IoError$u20$as$u20$core..fmt..Debug$GT$3fmt17h49ee300309aa25d9E+0x8a>
    2b20:	8b 75 00             	mov    0x0(%ebp),%esi
    2b23:	8b 7d 04             	mov    0x4(%ebp),%edi
    2b26:	8b 4f 0c             	mov    0xc(%edi),%ecx
    2b29:	83 ec 04             	sub    $0x4,%esp
    2b2c:	8d 83 b6 d6 ff ff    	lea    -0x294a(%ebx),%eax
    2b32:	6a 0d                	push   $0xd
    2b34:	50                   	push   %eax
    2b35:	56                   	push   %esi
    2b36:	89 4c 24 1c          	mov    %ecx,0x1c(%esp)
    2b3a:	ff d1                	call   *%ecx
    2b3c:	83 c4 10             	add    $0x10,%esp
    2b3f:	b1 01                	mov    $0x1,%cl
    2b41:	84 c0                	test   %al,%al
    2b43:	0f 85 f8 00 00 00    	jne    2c41 <_ZN67_$LT$kernel_lib..io..error..IoError$u20$as$u20$core..fmt..Debug$GT$3fmt17h49ee300309aa25d9E+0x141>
    2b49:	f6 45 0a 80          	testb  $0x80,0xa(%ebp)
    2b4d:	75 58                	jne    2ba7 <_ZN67_$LT$kernel_lib..io..error..IoError$u20$as$u20$core..fmt..Debug$GT$3fmt17h49ee300309aa25d9E+0xa7>
    2b4f:	83 ec 04             	sub    $0x4,%esp
    2b52:	8d 83 0d dc ff ff    	lea    -0x23f3(%ebx),%eax
    2b58:	6a 01                	push   $0x1
    2b5a:	50                   	push   %eax
    2b5b:	56                   	push   %esi
    2b5c:	ff 54 24 1c          	call   *0x1c(%esp)
    2b60:	83 c4 10             	add    $0x10,%esp
    2b63:	84 c0                	test   %al,%al
    2b65:	0f 85 a1 00 00 00    	jne    2c0c <_ZN67_$LT$kernel_lib..io..error..IoError$u20$as$u20$core..fmt..Debug$GT$3fmt17h49ee300309aa25d9E+0x10c>
    2b6b:	83 ec 08             	sub    $0x8,%esp
    2b6e:	55                   	push   %ebp
    2b6f:	ff 74 24 4c          	push   0x4c(%esp)
    2b73:	e8 f8 f7 ff ff       	call   2370 <_ZN72_$LT$kernel_types..syscall..SyscallError$u20$as$u20$core..fmt..Debug$GT$3fmt17h51423209a3f15815E>
    2b78:	83 c4 10             	add    $0x10,%esp
    2b7b:	84 c0                	test   %al,%al
    2b7d:	b1 01                	mov    $0x1,%cl
    2b7f:	0f 85 bc 00 00 00    	jne    2c41 <_ZN67_$LT$kernel_lib..io..error..IoError$u20$as$u20$core..fmt..Debug$GT$3fmt17h49ee300309aa25d9E+0x141>
    2b85:	e9 a1 00 00 00       	jmp    2c2b <_ZN67_$LT$kernel_lib..io..error..IoError$u20$as$u20$core..fmt..Debug$GT$3fmt17h49ee300309aa25d9E+0x12b>
    2b8a:	8b 45 04             	mov    0x4(%ebp),%eax
    2b8d:	83 ec 04             	sub    $0x4,%esp
    2b90:	8d 8b 23 ea ff ff    	lea    -0x15dd(%ebx),%ecx
    2b96:	6a 0c                	push   $0xc
    2b98:	51                   	push   %ecx
    2b99:	ff 75 00             	push   0x0(%ebp)
    2b9c:	ff 50 0c             	call   *0xc(%eax)
    2b9f:	83 c4 3c             	add    $0x3c,%esp
    2ba2:	e9 9f 00 00 00       	jmp    2c46 <_ZN67_$LT$kernel_lib..io..error..IoError$u20$as$u20$core..fmt..Debug$GT$3fmt17h49ee300309aa25d9E+0x146>
    2ba7:	83 ec 04             	sub    $0x4,%esp
    2baa:	8d 83 0e dc ff ff    	lea    -0x23f2(%ebx),%eax
    2bb0:	6a 02                	push   $0x2
    2bb2:	50                   	push   %eax
    2bb3:	56                   	push   %esi
    2bb4:	ff 54 24 1c          	call   *0x1c(%esp)
    2bb8:	83 c4 10             	add    $0x10,%esp
    2bbb:	84 c0                	test   %al,%al
    2bbd:	75 4d                	jne    2c0c <_ZN67_$LT$kernel_lib..io..error..IoError$u20$as$u20$core..fmt..Debug$GT$3fmt17h49ee300309aa25d9E+0x10c>
    2bbf:	c6 44 24 0b 01       	movb   $0x1,0xb(%esp)
    2bc4:	89 74 24 10          	mov    %esi,0x10(%esp)
    2bc8:	89 7c 24 14          	mov    %edi,0x14(%esp)
    2bcc:	8d 44 24 0b          	lea    0xb(%esp),%eax
    2bd0:	89 44 24 18          	mov    %eax,0x18(%esp)
    2bd4:	8b 45 08             	mov    0x8(%ebp),%eax
    2bd7:	8b 4d 0c             	mov    0xc(%ebp),%ecx
    2bda:	89 4c 24 28          	mov    %ecx,0x28(%esp)
    2bde:	89 44 24 24          	mov    %eax,0x24(%esp)
    2be2:	8d 7c 24 10          	lea    0x10(%esp),%edi
    2be6:	89 7c 24 1c          	mov    %edi,0x1c(%esp)
    2bea:	8d 83 88 fd ff ff    	lea    -0x278(%ebx),%eax
    2bf0:	89 44 24 20          	mov    %eax,0x20(%esp)
    2bf4:	83 ec 08             	sub    $0x8,%esp
    2bf7:	8d 44 24 24          	lea    0x24(%esp),%eax
    2bfb:	50                   	push   %eax
    2bfc:	ff 74 24 4c          	push   0x4c(%esp)
    2c00:	e8 6b f7 ff ff       	call   2370 <_ZN72_$LT$kernel_types..syscall..SyscallError$u20$as$u20$core..fmt..Debug$GT$3fmt17h51423209a3f15815E>
    2c05:	83 c4 10             	add    $0x10,%esp
    2c08:	84 c0                	test   %al,%al
    2c0a:	74 04                	je     2c10 <_ZN67_$LT$kernel_lib..io..error..IoError$u20$as$u20$core..fmt..Debug$GT$3fmt17h49ee300309aa25d9E+0x110>
    2c0c:	b1 01                	mov    $0x1,%cl
    2c0e:	eb 31                	jmp    2c41 <_ZN67_$LT$kernel_lib..io..error..IoError$u20$as$u20$core..fmt..Debug$GT$3fmt17h49ee300309aa25d9E+0x141>
    2c10:	83 ec 04             	sub    $0x4,%esp
    2c13:	8d 83 08 dc ff ff    	lea    -0x23f8(%ebx),%eax
    2c19:	6a 02                	push   $0x2
    2c1b:	50                   	push   %eax
    2c1c:	57                   	push   %edi
    2c1d:	e8 be 11 00 00       	call   3de0 <_ZN68_$LT$core..fmt..builders..PadAdapter$u20$as$u20$core..fmt..Write$GT$9write_str17h24b9d0f154c11ae5E>
    2c22:	83 c4 10             	add    $0x10,%esp
    2c25:	84 c0                	test   %al,%al
    2c27:	b1 01                	mov    $0x1,%cl
    2c29:	75 16                	jne    2c41 <_ZN67_$LT$kernel_lib..io..error..IoError$u20$as$u20$core..fmt..Debug$GT$3fmt17h49ee300309aa25d9E+0x141>
    2c2b:	83 ec 04             	sub    $0x4,%esp
    2c2e:	8d 83 b1 db ff ff    	lea    -0x244f(%ebx),%eax
    2c34:	6a 01                	push   $0x1
    2c36:	50                   	push   %eax
    2c37:	56                   	push   %esi
    2c38:	ff 54 24 1c          	call   *0x1c(%esp)
    2c3c:	83 c4 10             	add    $0x10,%esp
    2c3f:	89 c1                	mov    %eax,%ecx
    2c41:	89 c8                	mov    %ecx,%eax
    2c43:	83 c4 2c             	add    $0x2c,%esp
    2c46:	5e                   	pop    %esi
    2c47:	5f                   	pop    %edi
    2c48:	5b                   	pop    %ebx
    2c49:	5d                   	pop    %ebp
    2c4a:	c3                   	ret
    2c4b:	66 90                	xchg   %ax,%ax
    2c4d:	66 90                	xchg   %ax,%ax
    2c4f:	90                   	nop

00002c50 <_ZN56_$LT$log..SetLoggerError$u20$as$u20$core..fmt..Debug$GT$3fmt17h5f6a409d114caf80E>:
    2c50:	55                   	push   %ebp
    2c51:	53                   	push   %ebx
    2c52:	57                   	push   %edi
    2c53:	56                   	push   %esi
    2c54:	83 ec 2c             	sub    $0x2c,%esp
    2c57:	e8 00 00 00 00       	call   2c5c <_ZN56_$LT$log..SetLoggerError$u20$as$u20$core..fmt..Debug$GT$3fmt17h5f6a409d114caf80E+0xc>
    2c5c:	5b                   	pop    %ebx
    2c5d:	81 c3 98 73 00 00    	add    $0x7398,%ebx
    2c63:	8b 74 24 44          	mov    0x44(%esp),%esi
    2c67:	8b 3e                	mov    (%esi),%edi
    2c69:	8b 6e 04             	mov    0x4(%esi),%ebp
    2c6c:	8b 4d 0c             	mov    0xc(%ebp),%ecx
    2c6f:	83 ec 04             	sub    $0x4,%esp
    2c72:	8d 83 94 d6 ff ff    	lea    -0x296c(%ebx),%eax
    2c78:	6a 0e                	push   $0xe
    2c7a:	50                   	push   %eax
    2c7b:	57                   	push   %edi
    2c7c:	89 4c 24 1c          	mov    %ecx,0x1c(%esp)
    2c80:	ff d1                	call   *%ecx
    2c82:	83 c4 10             	add    $0x10,%esp
    2c85:	b1 01                	mov    $0x1,%cl
    2c87:	84 c0                	test   %al,%al
    2c89:	0f 85 e3 00 00 00    	jne    2d72 <_ZN56_$LT$log..SetLoggerError$u20$as$u20$core..fmt..Debug$GT$3fmt17h5f6a409d114caf80E+0x122>
    2c8f:	f6 46 0a 80          	testb  $0x80,0xa(%esi)
    2c93:	75 40                	jne    2cd5 <_ZN56_$LT$log..SetLoggerError$u20$as$u20$core..fmt..Debug$GT$3fmt17h5f6a409d114caf80E+0x85>
    2c95:	83 ec 04             	sub    $0x4,%esp
    2c98:	8d 83 0d dc ff ff    	lea    -0x23f3(%ebx),%eax
    2c9e:	6a 01                	push   $0x1
    2ca0:	50                   	push   %eax
    2ca1:	57                   	push   %edi
    2ca2:	ff 54 24 1c          	call   *0x1c(%esp)
    2ca6:	83 c4 10             	add    $0x10,%esp
    2ca9:	84 c0                	test   %al,%al
    2cab:	0f 85 8c 00 00 00    	jne    2d3d <_ZN56_$LT$log..SetLoggerError$u20$as$u20$core..fmt..Debug$GT$3fmt17h5f6a409d114caf80E+0xed>
    2cb1:	83 ec 0c             	sub    $0xc,%esp
    2cb4:	8d 93 62 e4 ff ff    	lea    -0x1b9e(%ebx),%edx
    2cba:	89 f1                	mov    %esi,%ecx
    2cbc:	6a 02                	push   $0x2
    2cbe:	e8 cd 04 00 00       	call   3190 <_ZN4core3fmt9Formatter3pad17hca3954b393b06d6eE>
    2cc3:	83 c4 10             	add    $0x10,%esp
    2cc6:	84 c0                	test   %al,%al
    2cc8:	b1 01                	mov    $0x1,%cl
    2cca:	0f 84 8c 00 00 00    	je     2d5c <_ZN56_$LT$log..SetLoggerError$u20$as$u20$core..fmt..Debug$GT$3fmt17h5f6a409d114caf80E+0x10c>
    2cd0:	e9 9d 00 00 00       	jmp    2d72 <_ZN56_$LT$log..SetLoggerError$u20$as$u20$core..fmt..Debug$GT$3fmt17h5f6a409d114caf80E+0x122>
    2cd5:	83 ec 04             	sub    $0x4,%esp
    2cd8:	8d 83 0e dc ff ff    	lea    -0x23f2(%ebx),%eax
    2cde:	6a 02                	push   $0x2
    2ce0:	50                   	push   %eax
    2ce1:	57                   	push   %edi
    2ce2:	ff 54 24 1c          	call   *0x1c(%esp)
    2ce6:	83 c4 10             	add    $0x10,%esp
    2ce9:	84 c0                	test   %al,%al
    2ceb:	75 50                	jne    2d3d <_ZN56_$LT$log..SetLoggerError$u20$as$u20$core..fmt..Debug$GT$3fmt17h5f6a409d114caf80E+0xed>
    2ced:	c6 44 24 0b 01       	movb   $0x1,0xb(%esp)
    2cf2:	89 7c 24 10          	mov    %edi,0x10(%esp)
    2cf6:	89 6c 24 14          	mov    %ebp,0x14(%esp)
    2cfa:	8d 44 24 0b          	lea    0xb(%esp),%eax
    2cfe:	89 44 24 18          	mov    %eax,0x18(%esp)
    2d02:	8b 46 08             	mov    0x8(%esi),%eax
    2d05:	8b 4e 0c             	mov    0xc(%esi),%ecx
    2d08:	89 4c 24 28          	mov    %ecx,0x28(%esp)
    2d0c:	89 44 24 24          	mov    %eax,0x24(%esp)
    2d10:	8d 74 24 10          	lea    0x10(%esp),%esi
    2d14:	89 74 24 1c          	mov    %esi,0x1c(%esp)
    2d18:	8d 83 88 fd ff ff    	lea    -0x278(%ebx),%eax
    2d1e:	89 44 24 20          	mov    %eax,0x20(%esp)
    2d22:	83 ec 0c             	sub    $0xc,%esp
    2d25:	8d 93 62 e4 ff ff    	lea    -0x1b9e(%ebx),%edx
    2d2b:	8d 4c 24 28          	lea    0x28(%esp),%ecx
    2d2f:	6a 02                	push   $0x2
    2d31:	e8 5a 04 00 00       	call   3190 <_ZN4core3fmt9Formatter3pad17hca3954b393b06d6eE>
    2d36:	83 c4 10             	add    $0x10,%esp
    2d39:	84 c0                	test   %al,%al
    2d3b:	74 04                	je     2d41 <_ZN56_$LT$log..SetLoggerError$u20$as$u20$core..fmt..Debug$GT$3fmt17h5f6a409d114caf80E+0xf1>
    2d3d:	b1 01                	mov    $0x1,%cl
    2d3f:	eb 31                	jmp    2d72 <_ZN56_$LT$log..SetLoggerError$u20$as$u20$core..fmt..Debug$GT$3fmt17h5f6a409d114caf80E+0x122>
    2d41:	83 ec 04             	sub    $0x4,%esp
    2d44:	8d 83 08 dc ff ff    	lea    -0x23f8(%ebx),%eax
    2d4a:	6a 02                	push   $0x2
    2d4c:	50                   	push   %eax
    2d4d:	56                   	push   %esi
    2d4e:	e8 8d 10 00 00       	call   3de0 <_ZN68_$LT$core..fmt..builders..PadAdapter$u20$as$u20$core..fmt..Write$GT$9write_str17h24b9d0f154c11ae5E>
    2d53:	83 c4 10             	add    $0x10,%esp
    2d56:	84 c0                	test   %al,%al
    2d58:	b1 01                	mov    $0x1,%cl
    2d5a:	75 16                	jne    2d72 <_ZN56_$LT$log..SetLoggerError$u20$as$u20$core..fmt..Debug$GT$3fmt17h5f6a409d114caf80E+0x122>
    2d5c:	83 ec 04             	sub    $0x4,%esp
    2d5f:	8d 83 b1 db ff ff    	lea    -0x244f(%ebx),%eax
    2d65:	6a 01                	push   $0x1
    2d67:	50                   	push   %eax
    2d68:	57                   	push   %edi
    2d69:	ff 54 24 1c          	call   *0x1c(%esp)
    2d6d:	83 c4 10             	add    $0x10,%esp
    2d70:	89 c1                	mov    %eax,%ecx
    2d72:	89 c8                	mov    %ecx,%eax
    2d74:	83 c4 2c             	add    $0x2c,%esp
    2d77:	5e                   	pop    %esi
    2d78:	5f                   	pop    %edi
    2d79:	5b                   	pop    %ebx
    2d7a:	5d                   	pop    %ebp
    2d7b:	c3                   	ret
    2d7c:	66 90                	xchg   %ax,%ax
    2d7e:	66 90                	xchg   %ax,%ax

00002d80 <_ZN4core3fmt3num3imp54_$LT$impl$u20$core..fmt..Display$u20$for$u20$usize$GT$3fmt17h10e52ed1ac19dcc3E>:
    2d80:	55                   	push   %ebp
    2d81:	53                   	push   %ebx
    2d82:	57                   	push   %edi
    2d83:	56                   	push   %esi
    2d84:	83 ec 1c             	sub    $0x1c,%esp
    2d87:	e8 00 00 00 00       	call   2d8c <_ZN4core3fmt3num3imp54_$LT$impl$u20$core..fmt..Display$u20$for$u20$usize$GT$3fmt17h10e52ed1ac19dcc3E+0xc>
    2d8c:	5b                   	pop    %ebx
    2d8d:	81 c3 68 72 00 00    	add    $0x7268,%ebx
    2d93:	8b 44 24 30          	mov    0x30(%esp),%eax
    2d97:	8b 08                	mov    (%eax),%ecx
    2d99:	b8 0a 00 00 00       	mov    $0xa,%eax
    2d9e:	89 ca                	mov    %ecx,%edx
    2da0:	89 4c 24 0c          	mov    %ecx,0xc(%esp)
    2da4:	81 f9 e8 03 00 00    	cmp    $0x3e8,%ecx
    2daa:	72 64                	jb     2e10 <_ZN4core3fmt3num3imp54_$LT$impl$u20$core..fmt..Display$u20$for$u20$usize$GT$3fmt17h10e52ed1ac19dcc3E+0x90>
    2dac:	bd 0a 00 00 00       	mov    $0xa,%ebp
    2db1:	8b 74 24 0c          	mov    0xc(%esp),%esi
    2db5:	90                   	nop
    2db6:	90                   	nop
    2db7:	90                   	nop
    2db8:	90                   	nop
    2db9:	90                   	nop
    2dba:	90                   	nop
    2dbb:	90                   	nop
    2dbc:	90                   	nop
    2dbd:	90                   	nop
    2dbe:	90                   	nop
    2dbf:	90                   	nop
    2dc0:	89 f0                	mov    %esi,%eax
    2dc2:	b9 59 17 b7 d1       	mov    $0xd1b71759,%ecx
    2dc7:	f7 e1                	mul    %ecx
    2dc9:	c1 ea 0d             	shr    $0xd,%edx
    2dcc:	69 c2 10 27 00 00    	imul   $0x2710,%edx,%eax
    2dd2:	89 f1                	mov    %esi,%ecx
    2dd4:	29 c1                	sub    %eax,%ecx
    2dd6:	69 c1 7b 14 00 00    	imul   $0x147b,%ecx,%eax
    2ddc:	c1 e8 13             	shr    $0x13,%eax
    2ddf:	6b f8 64             	imul   $0x64,%eax,%edi
    2de2:	29 f9                	sub    %edi,%ecx
    2de4:	0f b7 84 43 12 dc ff 	movzwl -0x23ee(%ebx,%eax,2),%eax
    2deb:	ff 
    2dec:	66 89 44 2c 0e       	mov    %ax,0xe(%esp,%ebp,1)
    2df1:	0f b7 c1             	movzwl %cx,%eax
    2df4:	0f b7 84 43 12 dc ff 	movzwl -0x23ee(%ebx,%eax,2),%eax
    2dfb:	ff 
    2dfc:	66 89 44 2c 10       	mov    %ax,0x10(%esp,%ebp,1)
    2e01:	8d 45 fc             	lea    -0x4(%ebp),%eax
    2e04:	89 c5                	mov    %eax,%ebp
    2e06:	81 fe 7f 96 98 00    	cmp    $0x98967f,%esi
    2e0c:	89 d6                	mov    %edx,%esi
    2e0e:	77 b0                	ja     2dc0 <_ZN4core3fmt3num3imp54_$LT$impl$u20$core..fmt..Display$u20$for$u20$usize$GT$3fmt17h10e52ed1ac19dcc3E+0x40>
    2e10:	83 fa 09             	cmp    $0x9,%edx
    2e13:	76 29                	jbe    2e3e <_ZN4core3fmt3num3imp54_$LT$impl$u20$core..fmt..Display$u20$for$u20$usize$GT$3fmt17h10e52ed1ac19dcc3E+0xbe>
    2e15:	0f b7 ca             	movzwl %dx,%ecx
    2e18:	c1 e9 02             	shr    $0x2,%ecx
    2e1b:	69 c9 7b 14 00 00    	imul   $0x147b,%ecx,%ecx
    2e21:	c1 e9 11             	shr    $0x11,%ecx
    2e24:	6b f1 64             	imul   $0x64,%ecx,%esi
    2e27:	29 f2                	sub    %esi,%edx
    2e29:	0f b7 d2             	movzwl %dx,%edx
    2e2c:	0f b7 94 53 12 dc ff 	movzwl -0x23ee(%ebx,%edx,2),%edx
    2e33:	ff 
    2e34:	66 89 54 04 10       	mov    %dx,0x10(%esp,%eax,1)
    2e39:	83 c0 fe             	add    $0xfffffffe,%eax
    2e3c:	89 ca                	mov    %ecx,%edx
    2e3e:	8b 4c 24 34          	mov    0x34(%esp),%ecx
    2e42:	83 7c 24 0c 00       	cmpl   $0x0,0xc(%esp)
    2e47:	74 04                	je     2e4d <_ZN4core3fmt3num3imp54_$LT$impl$u20$core..fmt..Display$u20$for$u20$usize$GT$3fmt17h10e52ed1ac19dcc3E+0xcd>
    2e49:	85 d2                	test   %edx,%edx
    2e4b:	74 10                	je     2e5d <_ZN4core3fmt3num3imp54_$LT$impl$u20$core..fmt..Display$u20$for$u20$usize$GT$3fmt17h10e52ed1ac19dcc3E+0xdd>
    2e4d:	83 e2 0f             	and    $0xf,%edx
    2e50:	0f b6 94 53 13 dc ff 	movzbl -0x23ed(%ebx,%edx,2),%edx
    2e57:	ff 
    2e58:	88 54 04 11          	mov    %dl,0x11(%esp,%eax,1)
    2e5c:	48                   	dec    %eax
    2e5d:	be 0a 00 00 00       	mov    $0xa,%esi
    2e62:	29 c6                	sub    %eax,%esi
    2e64:	01 e0                	add    %esp,%eax
    2e66:	83 c0 12             	add    $0x12,%eax
    2e69:	ba 01 00 00 00       	mov    $0x1,%edx
    2e6e:	56                   	push   %esi
    2e6f:	50                   	push   %eax
    2e70:	6a 00                	push   $0x0
    2e72:	6a 01                	push   $0x1
    2e74:	e8 17 00 00 00       	call   2e90 <_ZN4core3fmt9Formatter12pad_integral17h098dc4ffcfaf833fE>
    2e79:	83 c4 2c             	add    $0x2c,%esp
    2e7c:	5e                   	pop    %esi
    2e7d:	5f                   	pop    %edi
    2e7e:	5b                   	pop    %ebx
    2e7f:	5d                   	pop    %ebp
    2e80:	c3                   	ret
    2e81:	66 90                	xchg   %ax,%ax
    2e83:	66 90                	xchg   %ax,%ax
    2e85:	66 90                	xchg   %ax,%ax
    2e87:	66 90                	xchg   %ax,%ax
    2e89:	66 90                	xchg   %ax,%ax
    2e8b:	66 90                	xchg   %ax,%ax
    2e8d:	66 90                	xchg   %ax,%ax
    2e8f:	90                   	nop

00002e90 <_ZN4core3fmt9Formatter12pad_integral17h098dc4ffcfaf833fE>:
    2e90:	55                   	push   %ebp
    2e91:	53                   	push   %ebx
    2e92:	57                   	push   %edi
    2e93:	56                   	push   %esi
    2e94:	83 ec 1c             	sub    $0x1c,%esp
    2e97:	e8 00 00 00 00       	call   2e9c <_ZN4core3fmt9Formatter12pad_integral17h098dc4ffcfaf833fE+0xc>
    2e9c:	5b                   	pop    %ebx
    2e9d:	81 c3 58 71 00 00    	add    $0x7158,%ebx
    2ea3:	8b 44 24 3c          	mov    0x3c(%esp),%eax
    2ea7:	85 d2                	test   %edx,%edx
    2ea9:	74 65                	je     2f10 <_ZN4core3fmt9Formatter12pad_integral17h098dc4ffcfaf833fE+0x80>
    2eab:	8b 79 08             	mov    0x8(%ecx),%edi
    2eae:	89 fa                	mov    %edi,%edx
    2eb0:	c7 44 24 04 00 00 11 	movl   $0x110000,0x4(%esp)
    2eb7:	00 
    2eb8:	81 e2 00 00 20 00    	and    $0x200000,%edx
    2ebe:	74 08                	je     2ec8 <_ZN4core3fmt9Formatter12pad_integral17h098dc4ffcfaf833fE+0x38>
    2ec0:	c7 44 24 04 2b 00 00 	movl   $0x2b,0x4(%esp)
    2ec7:	00 
    2ec8:	c1 ea 15             	shr    $0x15,%edx
    2ecb:	01 c2                	add    %eax,%edx
    2ecd:	8b 74 24 34          	mov    0x34(%esp),%esi
    2ed1:	f7 c7 00 00 80 00    	test   $0x800000,%edi
    2ed7:	74 51                	je     2f2a <_ZN4core3fmt9Formatter12pad_integral17h098dc4ffcfaf833fE+0x9a>
    2ed9:	8b 6c 24 30          	mov    0x30(%esp),%ebp
    2edd:	85 f6                	test   %esi,%esi
    2edf:	89 6c 24 10          	mov    %ebp,0x10(%esp)
    2ee3:	0f 84 91 00 00 00    	je     2f7a <_ZN4core3fmt9Formatter12pad_integral17h098dc4ffcfaf833fE+0xea>
    2ee9:	31 c0                	xor    %eax,%eax
    2eeb:	80 7d 00 c0          	cmpb   $0xc0,0x0(%ebp)
    2eef:	0f 9d c0             	setge  %al
    2ef2:	83 fe 01             	cmp    $0x1,%esi
    2ef5:	0f 84 81 00 00 00    	je     2f7c <_ZN4core3fmt9Formatter12pad_integral17h098dc4ffcfaf833fE+0xec>
    2efb:	89 54 24 0c          	mov    %edx,0xc(%esp)
    2eff:	31 d2                	xor    %edx,%edx
    2f01:	80 7d 01 c0          	cmpb   $0xc0,0x1(%ebp)
    2f05:	0f 9d c2             	setge  %dl
    2f08:	01 d0                	add    %edx,%eax
    2f0a:	8b 54 24 0c          	mov    0xc(%esp),%edx
    2f0e:	eb 6c                	jmp    2f7c <_ZN4core3fmt9Formatter12pad_integral17h098dc4ffcfaf833fE+0xec>
    2f10:	8d 50 01             	lea    0x1(%eax),%edx
    2f13:	8b 79 08             	mov    0x8(%ecx),%edi
    2f16:	c7 44 24 04 2d 00 00 	movl   $0x2d,0x4(%esp)
    2f1d:	00 
    2f1e:	8b 74 24 34          	mov    0x34(%esp),%esi
    2f22:	f7 c7 00 00 80 00    	test   $0x800000,%edi
    2f28:	75 af                	jne    2ed9 <_ZN4core3fmt9Formatter12pad_integral17h098dc4ffcfaf833fE+0x49>
    2f2a:	c7 44 24 10 00 00 00 	movl   $0x0,0x10(%esp)
    2f31:	00 
    2f32:	0f b7 69 0c          	movzwl 0xc(%ecx),%ebp
    2f36:	39 ea                	cmp    %ebp,%edx
    2f38:	72 50                	jb     2f8a <_ZN4core3fmt9Formatter12pad_integral17h098dc4ffcfaf833fE+0xfa>
    2f3a:	89 c5                	mov    %eax,%ebp
    2f3c:	8b 39                	mov    (%ecx),%edi
    2f3e:	8b 71 04             	mov    0x4(%ecx),%esi
    2f41:	83 ec 04             	sub    $0x4,%esp
    2f44:	89 f9                	mov    %edi,%ecx
    2f46:	89 f2                	mov    %esi,%edx
    2f48:	ff 74 24 38          	push   0x38(%esp)
    2f4c:	ff 74 24 18          	push   0x18(%esp)
    2f50:	ff 74 24 10          	push   0x10(%esp)
    2f54:	e8 d7 01 00 00       	call   3130 <_ZN4core3fmt9Formatter12pad_integral12write_prefix17hcfe3f7c8045b9b50E>
    2f59:	83 c4 10             	add    $0x10,%esp
    2f5c:	b1 01                	mov    $0x1,%cl
    2f5e:	84 c0                	test   %al,%al
    2f60:	0f 85 ba 01 00 00    	jne    3120 <_ZN4core3fmt9Formatter12pad_integral17h098dc4ffcfaf833fE+0x290>
    2f66:	83 ec 04             	sub    $0x4,%esp
    2f69:	55                   	push   %ebp
    2f6a:	ff 74 24 40          	push   0x40(%esp)
    2f6e:	57                   	push   %edi
    2f6f:	ff 56 0c             	call   *0xc(%esi)
    2f72:	83 c4 2c             	add    $0x2c,%esp
    2f75:	e9 ab 01 00 00       	jmp    3125 <_ZN4core3fmt9Formatter12pad_integral17h098dc4ffcfaf833fE+0x295>
    2f7a:	31 c0                	xor    %eax,%eax
    2f7c:	01 c2                	add    %eax,%edx
    2f7e:	8b 44 24 3c          	mov    0x3c(%esp),%eax
    2f82:	0f b7 69 0c          	movzwl 0xc(%ecx),%ebp
    2f86:	39 ea                	cmp    %ebp,%edx
    2f88:	73 b0                	jae    2f3a <_ZN4core3fmt9Formatter12pad_integral17h098dc4ffcfaf833fE+0xaa>
    2f8a:	f7 c7 00 00 00 01    	test   $0x1000000,%edi
    2f90:	89 54 24 0c          	mov    %edx,0xc(%esp)
    2f94:	75 20                	jne    2fb6 <_ZN4core3fmt9Formatter12pad_integral17h098dc4ffcfaf833fE+0x126>
    2f96:	89 ee                	mov    %ebp,%esi
    2f98:	29 d6                	sub    %edx,%esi
    2f9a:	89 f8                	mov    %edi,%eax
    2f9c:	c1 e8 1d             	shr    $0x1d,%eax
    2f9f:	83 e0 03             	and    $0x3,%eax
    2fa2:	31 d2                	xor    %edx,%edx
    2fa4:	8b 84 83 4c d5 ff ff 	mov    -0x2ab4(%ebx,%eax,4),%eax
    2fab:	01 d8                	add    %ebx,%eax
    2fad:	ff e0                	jmp    *%eax
    2faf:	89 f2                	mov    %esi,%edx
    2fb1:	e9 a9 00 00 00       	jmp    305f <_ZN4core3fmt9Formatter12pad_integral17h098dc4ffcfaf833fE+0x1cf>
    2fb6:	8b 41 0c             	mov    0xc(%ecx),%eax
    2fb9:	89 44 24 14          	mov    %eax,0x14(%esp)
    2fbd:	8b 41 08             	mov    0x8(%ecx),%eax
    2fc0:	89 04 24             	mov    %eax,(%esp)
    2fc3:	25 00 00 e0 9f       	and    $0x9fe00000,%eax
    2fc8:	0d 30 00 00 20       	or     $0x20000030,%eax
    2fcd:	89 41 08             	mov    %eax,0x8(%ecx)
    2fd0:	8b 39                	mov    (%ecx),%edi
    2fd2:	89 4c 24 08          	mov    %ecx,0x8(%esp)
    2fd6:	8b 71 04             	mov    0x4(%ecx),%esi
    2fd9:	83 ec 04             	sub    $0x4,%esp
    2fdc:	89 f9                	mov    %edi,%ecx
    2fde:	89 f2                	mov    %esi,%edx
    2fe0:	ff 74 24 38          	push   0x38(%esp)
    2fe4:	ff 74 24 18          	push   0x18(%esp)
    2fe8:	ff 74 24 10          	push   0x10(%esp)
    2fec:	e8 3f 01 00 00       	call   3130 <_ZN4core3fmt9Formatter12pad_integral12write_prefix17hcfe3f7c8045b9b50E>
    2ff1:	83 c4 10             	add    $0x10,%esp
    2ff4:	b1 01                	mov    $0x1,%cl
    2ff6:	84 c0                	test   %al,%al
    2ff8:	0f 85 22 01 00 00    	jne    3120 <_ZN4core3fmt9Formatter12pad_integral17h098dc4ffcfaf833fE+0x290>
    2ffe:	2b 6c 24 0c          	sub    0xc(%esp),%ebp
    3002:	45                   	inc    %ebp
    3003:	90                   	nop
    3004:	90                   	nop
    3005:	90                   	nop
    3006:	90                   	nop
    3007:	90                   	nop
    3008:	90                   	nop
    3009:	90                   	nop
    300a:	90                   	nop
    300b:	90                   	nop
    300c:	90                   	nop
    300d:	90                   	nop
    300e:	90                   	nop
    300f:	90                   	nop
    3010:	66 4d                	dec    %bp
    3012:	74 12                	je     3026 <_ZN4core3fmt9Formatter12pad_integral17h098dc4ffcfaf833fE+0x196>
    3014:	83 ec 08             	sub    $0x8,%esp
    3017:	6a 30                	push   $0x30
    3019:	57                   	push   %edi
    301a:	ff 56 10             	call   *0x10(%esi)
    301d:	83 c4 10             	add    $0x10,%esp
    3020:	84 c0                	test   %al,%al
    3022:	74 ec                	je     3010 <_ZN4core3fmt9Formatter12pad_integral17h098dc4ffcfaf833fE+0x180>
    3024:	eb 73                	jmp    3099 <_ZN4core3fmt9Formatter12pad_integral17h098dc4ffcfaf833fE+0x209>
    3026:	83 ec 04             	sub    $0x4,%esp
    3029:	ff 74 24 40          	push   0x40(%esp)
    302d:	ff 74 24 40          	push   0x40(%esp)
    3031:	57                   	push   %edi
    3032:	ff 56 0c             	call   *0xc(%esi)
    3035:	83 c4 10             	add    $0x10,%esp
    3038:	84 c0                	test   %al,%al
    303a:	b1 01                	mov    $0x1,%cl
    303c:	0f 85 de 00 00 00    	jne    3120 <_ZN4core3fmt9Formatter12pad_integral17h098dc4ffcfaf833fE+0x290>
    3042:	8b 44 24 08          	mov    0x8(%esp),%eax
    3046:	8b 0c 24             	mov    (%esp),%ecx
    3049:	89 48 08             	mov    %ecx,0x8(%eax)
    304c:	8b 4c 24 14          	mov    0x14(%esp),%ecx
    3050:	89 48 0c             	mov    %ecx,0xc(%eax)
    3053:	31 c9                	xor    %ecx,%ecx
    3055:	e9 c6 00 00 00       	jmp    3120 <_ZN4core3fmt9Formatter12pad_integral17h098dc4ffcfaf833fE+0x290>
    305a:	0f b7 d6             	movzwl %si,%edx
    305d:	d1 ea                	shr    $1,%edx
    305f:	89 34 24             	mov    %esi,(%esp)
    3062:	81 e7 ff ff 1f 00    	and    $0x1fffff,%edi
    3068:	89 7c 24 14          	mov    %edi,0x14(%esp)
    306c:	8b 01                	mov    (%ecx),%eax
    306e:	89 44 24 08          	mov    %eax,0x8(%esp)
    3072:	8b 79 04             	mov    0x4(%ecx),%edi
    3075:	89 54 24 18          	mov    %edx,0x18(%esp)
    3079:	8d 72 01             	lea    0x1(%edx),%esi
    307c:	90                   	nop
    307d:	90                   	nop
    307e:	90                   	nop
    307f:	90                   	nop
    3080:	66 4e                	dec    %si
    3082:	74 1c                	je     30a0 <_ZN4core3fmt9Formatter12pad_integral17h098dc4ffcfaf833fE+0x210>
    3084:	83 ec 08             	sub    $0x8,%esp
    3087:	ff 74 24 1c          	push   0x1c(%esp)
    308b:	ff 74 24 14          	push   0x14(%esp)
    308f:	ff 57 10             	call   *0x10(%edi)
    3092:	83 c4 10             	add    $0x10,%esp
    3095:	84 c0                	test   %al,%al
    3097:	74 e7                	je     3080 <_ZN4core3fmt9Formatter12pad_integral17h098dc4ffcfaf833fE+0x1f0>
    3099:	b1 01                	mov    $0x1,%cl
    309b:	e9 80 00 00 00       	jmp    3120 <_ZN4core3fmt9Formatter12pad_integral17h098dc4ffcfaf833fE+0x290>
    30a0:	83 ec 04             	sub    $0x4,%esp
    30a3:	8b 74 24 0c          	mov    0xc(%esp),%esi
    30a7:	89 f1                	mov    %esi,%ecx
    30a9:	89 fa                	mov    %edi,%edx
    30ab:	ff 74 24 38          	push   0x38(%esp)
    30af:	ff 74 24 18          	push   0x18(%esp)
    30b3:	ff 74 24 10          	push   0x10(%esp)
    30b7:	e8 74 00 00 00       	call   3130 <_ZN4core3fmt9Formatter12pad_integral12write_prefix17hcfe3f7c8045b9b50E>
    30bc:	83 c4 10             	add    $0x10,%esp
    30bf:	b1 01                	mov    $0x1,%cl
    30c1:	84 c0                	test   %al,%al
    30c3:	75 5b                	jne    3120 <_ZN4core3fmt9Formatter12pad_integral17h098dc4ffcfaf833fE+0x290>
    30c5:	83 ec 04             	sub    $0x4,%esp
    30c8:	ff 74 24 40          	push   0x40(%esp)
    30cc:	ff 74 24 40          	push   0x40(%esp)
    30d0:	56                   	push   %esi
    30d1:	ff 57 0c             	call   *0xc(%edi)
    30d4:	b1 01                	mov    $0x1,%cl
    30d6:	83 c4 10             	add    $0x10,%esp
    30d9:	84 c0                	test   %al,%al
    30db:	75 43                	jne    3120 <_ZN4core3fmt9Formatter12pad_integral17h098dc4ffcfaf833fE+0x290>
    30dd:	8b 4c 24 18          	mov    0x18(%esp),%ecx
    30e1:	29 0c 24             	sub    %ecx,(%esp)
    30e4:	03 4c 24 0c          	add    0xc(%esp),%ecx
    30e8:	29 e9                	sub    %ebp,%ecx
    30ea:	66 bd ff ff          	mov    $0xffff,%bp
    30ee:	90                   	nop
    30ef:	90                   	nop
    30f0:	8d 04 29             	lea    (%ecx,%ebp,1),%eax
    30f3:	66 83 f8 ff          	cmp    $0xffff,%ax
    30f7:	74 1d                	je     3116 <_ZN4core3fmt9Formatter12pad_integral17h098dc4ffcfaf833fE+0x286>
    30f9:	83 ec 08             	sub    $0x8,%esp
    30fc:	ff 74 24 1c          	push   0x1c(%esp)
    3100:	56                   	push   %esi
    3101:	89 ce                	mov    %ecx,%esi
    3103:	ff 57 10             	call   *0x10(%edi)
    3106:	89 f1                	mov    %esi,%ecx
    3108:	8b 74 24 18          	mov    0x18(%esp),%esi
    310c:	83 c4 10             	add    $0x10,%esp
    310f:	45                   	inc    %ebp
    3110:	84 c0                	test   %al,%al
    3112:	74 dc                	je     30f0 <_ZN4core3fmt9Formatter12pad_integral17h098dc4ffcfaf833fE+0x260>
    3114:	eb 03                	jmp    3119 <_ZN4core3fmt9Formatter12pad_integral17h098dc4ffcfaf833fE+0x289>
    3116:	8b 2c 24             	mov    (%esp),%ebp
    3119:	66 3b 2c 24          	cmp    (%esp),%bp
    311d:	0f 92 c1             	setb   %cl
    3120:	89 c8                	mov    %ecx,%eax
    3122:	83 c4 1c             	add    $0x1c,%esp
    3125:	5e                   	pop    %esi
    3126:	5f                   	pop    %edi
    3127:	5b                   	pop    %ebx
    3128:	5d                   	pop    %ebp
    3129:	c3                   	ret
    312a:	66 90                	xchg   %ax,%ax
    312c:	66 90                	xchg   %ax,%ax
    312e:	66 90                	xchg   %ax,%ax

00003130 <_ZN4core3fmt9Formatter12pad_integral12write_prefix17hcfe3f7c8045b9b50E>:
    3130:	53                   	push   %ebx
    3131:	57                   	push   %edi
    3132:	56                   	push   %esi
    3133:	89 d6                	mov    %edx,%esi
    3135:	89 cf                	mov    %ecx,%edi
    3137:	e8 00 00 00 00       	call   313c <_ZN4core3fmt9Formatter12pad_integral12write_prefix17hcfe3f7c8045b9b50E+0xc>
    313c:	5b                   	pop    %ebx
    313d:	81 c3 b8 6e 00 00    	add    $0x6eb8,%ebx
    3143:	8b 44 24 10          	mov    0x10(%esp),%eax
    3147:	3d 00 00 11 00       	cmp    $0x110000,%eax
    314c:	74 13                	je     3161 <_ZN4core3fmt9Formatter12pad_integral12write_prefix17hcfe3f7c8045b9b50E+0x31>
    314e:	83 ec 08             	sub    $0x8,%esp
    3151:	50                   	push   %eax
    3152:	57                   	push   %edi
    3153:	ff 56 10             	call   *0x10(%esi)
    3156:	83 c4 10             	add    $0x10,%esp
    3159:	89 c1                	mov    %eax,%ecx
    315b:	b0 01                	mov    $0x1,%al
    315d:	84 c9                	test   %cl,%cl
    315f:	75 1d                	jne    317e <_ZN4core3fmt9Formatter12pad_integral12write_prefix17hcfe3f7c8045b9b50E+0x4e>
    3161:	8b 44 24 14          	mov    0x14(%esp),%eax
    3165:	85 c0                	test   %eax,%eax
    3167:	74 13                	je     317c <_ZN4core3fmt9Formatter12pad_integral12write_prefix17hcfe3f7c8045b9b50E+0x4c>
    3169:	83 ec 04             	sub    $0x4,%esp
    316c:	ff 74 24 1c          	push   0x1c(%esp)
    3170:	50                   	push   %eax
    3171:	57                   	push   %edi
    3172:	ff 56 0c             	call   *0xc(%esi)
    3175:	83 c4 10             	add    $0x10,%esp
    3178:	5e                   	pop    %esi
    3179:	5f                   	pop    %edi
    317a:	5b                   	pop    %ebx
    317b:	c3                   	ret
    317c:	31 c0                	xor    %eax,%eax
    317e:	5e                   	pop    %esi
    317f:	5f                   	pop    %edi
    3180:	5b                   	pop    %ebx
    3181:	c3                   	ret
    3182:	66 90                	xchg   %ax,%ax
    3184:	66 90                	xchg   %ax,%ax
    3186:	66 90                	xchg   %ax,%ax
    3188:	66 90                	xchg   %ax,%ax
    318a:	66 90                	xchg   %ax,%ax
    318c:	66 90                	xchg   %ax,%ax
    318e:	66 90                	xchg   %ax,%ax

00003190 <_ZN4core3fmt9Formatter3pad17hca3954b393b06d6eE>:
    3190:	55                   	push   %ebp
    3191:	53                   	push   %ebx
    3192:	57                   	push   %edi
    3193:	56                   	push   %esi
    3194:	83 ec 2c             	sub    $0x2c,%esp
    3197:	89 cd                	mov    %ecx,%ebp
    3199:	e8 00 00 00 00       	call   319e <_ZN4core3fmt9Formatter3pad17hca3954b393b06d6eE+0xe>
    319e:	58                   	pop    %eax
    319f:	81 c0 56 6e 00 00    	add    $0x6e56,%eax
    31a5:	89 44 24 24          	mov    %eax,0x24(%esp)
    31a9:	8b 4c 24 40          	mov    0x40(%esp),%ecx
    31ad:	8b 7d 08             	mov    0x8(%ebp),%edi
    31b0:	f7 c7 00 00 00 18    	test   $0x18000000,%edi
    31b6:	74 3c                	je     31f4 <_ZN4core3fmt9Formatter3pad17hca3954b393b06d6eE+0x64>
    31b8:	f7 c7 00 00 00 10    	test   $0x10000000,%edi
    31be:	89 54 24 0c          	mov    %edx,0xc(%esp)
    31c2:	75 40                	jne    3204 <_ZN4core3fmt9Formatter3pad17hca3954b393b06d6eE+0x74>
    31c4:	83 f9 10             	cmp    $0x10,%ecx
    31c7:	0f 83 9f 00 00 00    	jae    326c <_ZN4core3fmt9Formatter3pad17hca3954b393b06d6eE+0xdc>
    31cd:	85 c9                	test   %ecx,%ecx
    31cf:	0f 84 1a 01 00 00    	je     32ef <_ZN4core3fmt9Formatter3pad17hca3954b393b06d6eE+0x15f>
    31d5:	89 6c 24 10          	mov    %ebp,0x10(%esp)
    31d9:	89 7c 24 14          	mov    %edi,0x14(%esp)
    31dd:	89 ce                	mov    %ecx,%esi
    31df:	83 e6 03             	and    $0x3,%esi
    31e2:	83 f9 04             	cmp    $0x4,%ecx
    31e5:	0f 83 19 01 00 00    	jae    3304 <_ZN4core3fmt9Formatter3pad17hca3954b393b06d6eE+0x174>
    31eb:	31 c9                	xor    %ecx,%ecx
    31ed:	31 db                	xor    %ebx,%ebx
    31ef:	e9 65 01 00 00       	jmp    3359 <_ZN4core3fmt9Formatter3pad17hca3954b393b06d6eE+0x1c9>
    31f4:	8b 45 04             	mov    0x4(%ebp),%eax
    31f7:	83 ec 04             	sub    $0x4,%esp
    31fa:	8b 5c 24 28          	mov    0x28(%esp),%ebx
    31fe:	51                   	push   %ecx
    31ff:	e9 ef 04 00 00       	jmp    36f3 <_ZN4core3fmt9Formatter3pad17hca3954b393b06d6eE+0x563>
    3204:	0f b7 45 0e          	movzwl 0xe(%ebp),%eax
    3208:	89 44 24 18          	mov    %eax,0x18(%esp)
    320c:	85 c0                	test   %eax,%eax
    320e:	0f 84 a4 00 00 00    	je     32b8 <_ZN4core3fmt9Formatter3pad17hca3954b393b06d6eE+0x128>
    3214:	89 6c 24 10          	mov    %ebp,0x10(%esp)
    3218:	89 7c 24 14          	mov    %edi,0x14(%esp)
    321c:	01 d1                	add    %edx,%ecx
    321e:	89 cd                	mov    %ecx,%ebp
    3220:	89 d1                	mov    %edx,%ecx
    3222:	31 f6                	xor    %esi,%esi
    3224:	31 c0                	xor    %eax,%eax
    3226:	eb 1e                	jmp    3246 <_ZN4core3fmt9Formatter3pad17hca3954b393b06d6eE+0xb6>
    3228:	90                   	nop
    3229:	90                   	nop
    322a:	90                   	nop
    322b:	90                   	nop
    322c:	90                   	nop
    322d:	90                   	nop
    322e:	90                   	nop
    322f:	90                   	nop
    3230:	8d 79 01             	lea    0x1(%ecx),%edi
    3233:	89 fe                	mov    %edi,%esi
    3235:	29 ce                	sub    %ecx,%esi
    3237:	01 d6                	add    %edx,%esi
    3239:	40                   	inc    %eax
    323a:	89 f9                	mov    %edi,%ecx
    323c:	39 44 24 18          	cmp    %eax,0x18(%esp)
    3240:	0f 84 82 00 00 00    	je     32c8 <_ZN4core3fmt9Formatter3pad17hca3954b393b06d6eE+0x138>
    3246:	89 f2                	mov    %esi,%edx
    3248:	39 e9                	cmp    %ebp,%ecx
    324a:	74 72                	je     32be <_ZN4core3fmt9Formatter3pad17hca3954b393b06d6eE+0x12e>
    324c:	0f b6 19             	movzbl (%ecx),%ebx
    324f:	84 db                	test   %bl,%bl
    3251:	79 dd                	jns    3230 <_ZN4core3fmt9Formatter3pad17hca3954b393b06d6eE+0xa0>
    3253:	80 fb e0             	cmp    $0xe0,%bl
    3256:	72 0a                	jb     3262 <_ZN4core3fmt9Formatter3pad17hca3954b393b06d6eE+0xd2>
    3258:	80 fb f0             	cmp    $0xf0,%bl
    325b:	72 0a                	jb     3267 <_ZN4core3fmt9Formatter3pad17hca3954b393b06d6eE+0xd7>
    325d:	8d 79 04             	lea    0x4(%ecx),%edi
    3260:	eb d1                	jmp    3233 <_ZN4core3fmt9Formatter3pad17hca3954b393b06d6eE+0xa3>
    3262:	8d 79 02             	lea    0x2(%ecx),%edi
    3265:	eb cc                	jmp    3233 <_ZN4core3fmt9Formatter3pad17hca3954b393b06d6eE+0xa3>
    3267:	8d 79 03             	lea    0x3(%ecx),%edi
    326a:	eb c7                	jmp    3233 <_ZN4core3fmt9Formatter3pad17hca3954b393b06d6eE+0xa3>
    326c:	89 6c 24 10          	mov    %ebp,0x10(%esp)
    3270:	89 7c 24 14          	mov    %edi,0x14(%esp)
    3274:	8d 6a 03             	lea    0x3(%edx),%ebp
    3277:	83 e5 fc             	and    $0xfffffffc,%ebp
    327a:	89 e8                	mov    %ebp,%eax
    327c:	29 d0                	sub    %edx,%eax
    327e:	89 cb                	mov    %ecx,%ebx
    3280:	29 c3                	sub    %eax,%ebx
    3282:	89 d8                	mov    %ebx,%eax
    3284:	83 e0 03             	and    $0x3,%eax
    3287:	89 44 24 18          	mov    %eax,0x18(%esp)
    328b:	89 ef                	mov    %ebp,%edi
    328d:	b8 00 00 00 00       	mov    $0x0,%eax
    3292:	29 d7                	sub    %edx,%edi
    3294:	0f 84 76 01 00 00    	je     3410 <_ZN4core3fmt9Formatter3pad17hca3954b393b06d6eE+0x280>
    329a:	89 5c 24 20          	mov    %ebx,0x20(%esp)
    329e:	8b 74 24 0c          	mov    0xc(%esp),%esi
    32a2:	89 f0                	mov    %esi,%eax
    32a4:	29 e8                	sub    %ebp,%eax
    32a6:	83 f8 fc             	cmp    $0xfffffffc,%eax
    32a9:	0f 86 ee 00 00 00    	jbe    339d <_ZN4core3fmt9Formatter3pad17hca3954b393b06d6eE+0x20d>
    32af:	31 c0                	xor    %eax,%eax
    32b1:	31 d2                	xor    %edx,%edx
    32b3:	e9 2c 01 00 00       	jmp    33e4 <_ZN4core3fmt9Formatter3pad17hca3954b393b06d6eE+0x254>
    32b8:	31 f6                	xor    %esi,%esi
    32ba:	31 c9                	xor    %ecx,%ecx
    32bc:	eb 14                	jmp    32d2 <_ZN4core3fmt9Formatter3pad17hca3954b393b06d6eE+0x142>
    32be:	8b 4c 24 18          	mov    0x18(%esp),%ecx
    32c2:	29 c1                	sub    %eax,%ecx
    32c4:	89 d6                	mov    %edx,%esi
    32c6:	eb 02                	jmp    32ca <_ZN4core3fmt9Formatter3pad17hca3954b393b06d6eE+0x13a>
    32c8:	31 c9                	xor    %ecx,%ecx
    32ca:	8b 7c 24 14          	mov    0x14(%esp),%edi
    32ce:	8b 6c 24 10          	mov    0x10(%esp),%ebp
    32d2:	8b 44 24 18          	mov    0x18(%esp),%eax
    32d6:	29 c8                	sub    %ecx,%eax
    32d8:	89 c1                	mov    %eax,%ecx
    32da:	8b 54 24 0c          	mov    0xc(%esp),%edx
    32de:	0f b7 45 0c          	movzwl 0xc(%ebp),%eax
    32e2:	39 c1                	cmp    %eax,%ecx
    32e4:	0f 82 7c 02 00 00    	jb     3566 <_ZN4core3fmt9Formatter3pad17hca3954b393b06d6eE+0x3d6>
    32ea:	e9 f9 03 00 00       	jmp    36e8 <_ZN4core3fmt9Formatter3pad17hca3954b393b06d6eE+0x558>
    32ef:	31 f6                	xor    %esi,%esi
    32f1:	31 c9                	xor    %ecx,%ecx
    32f3:	0f b7 45 0c          	movzwl 0xc(%ebp),%eax
    32f7:	39 c1                	cmp    %eax,%ecx
    32f9:	0f 82 67 02 00 00    	jb     3566 <_ZN4core3fmt9Formatter3pad17hca3954b393b06d6eE+0x3d6>
    32ff:	e9 e4 03 00 00       	jmp    36e8 <_ZN4core3fmt9Formatter3pad17hca3954b393b06d6eE+0x558>
    3304:	89 cf                	mov    %ecx,%edi
    3306:	83 e7 0c             	and    $0xc,%edi
    3309:	31 c9                	xor    %ecx,%ecx
    330b:	31 db                	xor    %ebx,%ebx
    330d:	8b 6c 24 0c          	mov    0xc(%esp),%ebp
    3311:	90                   	nop
    3312:	90                   	nop
    3313:	90                   	nop
    3314:	90                   	nop
    3315:	90                   	nop
    3316:	90                   	nop
    3317:	90                   	nop
    3318:	90                   	nop
    3319:	90                   	nop
    331a:	90                   	nop
    331b:	90                   	nop
    331c:	90                   	nop
    331d:	90                   	nop
    331e:	90                   	nop
    331f:	90                   	nop
    3320:	89 c8                	mov    %ecx,%eax
    3322:	31 c9                	xor    %ecx,%ecx
    3324:	80 7c 1d 00 c0       	cmpb   $0xc0,0x0(%ebp,%ebx,1)
    3329:	0f 9d c1             	setge  %cl
    332c:	01 c1                	add    %eax,%ecx
    332e:	31 d2                	xor    %edx,%edx
    3330:	80 7c 1d 01 c0       	cmpb   $0xc0,0x1(%ebp,%ebx,1)
    3335:	0f 9d c2             	setge  %dl
    3338:	31 c0                	xor    %eax,%eax
    333a:	80 7c 1d 02 c0       	cmpb   $0xc0,0x2(%ebp,%ebx,1)
    333f:	0f 9d c0             	setge  %al
    3342:	01 d0                	add    %edx,%eax
    3344:	01 c8                	add    %ecx,%eax
    3346:	31 c9                	xor    %ecx,%ecx
    3348:	80 7c 1d 03 c0       	cmpb   $0xc0,0x3(%ebp,%ebx,1)
    334d:	0f 9d c1             	setge  %cl
    3350:	01 c1                	add    %eax,%ecx
    3352:	83 c3 04             	add    $0x4,%ebx
    3355:	39 df                	cmp    %ebx,%edi
    3357:	75 c7                	jne    3320 <_ZN4core3fmt9Formatter3pad17hca3954b393b06d6eE+0x190>
    3359:	85 f6                	test   %esi,%esi
    335b:	0f 84 e9 01 00 00    	je     354a <_ZN4core3fmt9Formatter3pad17hca3954b393b06d6eE+0x3ba>
    3361:	03 5c 24 0c          	add    0xc(%esp),%ebx
    3365:	31 d2                	xor    %edx,%edx
    3367:	8b 6c 24 10          	mov    0x10(%esp),%ebp
    336b:	90                   	nop
    336c:	90                   	nop
    336d:	90                   	nop
    336e:	90                   	nop
    336f:	90                   	nop
    3370:	31 c0                	xor    %eax,%eax
    3372:	80 3c 13 c0          	cmpb   $0xc0,(%ebx,%edx,1)
    3376:	0f 9d c0             	setge  %al
    3379:	01 c1                	add    %eax,%ecx
    337b:	42                   	inc    %edx
    337c:	39 d6                	cmp    %edx,%esi
    337e:	75 f0                	jne    3370 <_ZN4core3fmt9Formatter3pad17hca3954b393b06d6eE+0x1e0>
    3380:	8b 7c 24 14          	mov    0x14(%esp),%edi
    3384:	8b 54 24 0c          	mov    0xc(%esp),%edx
    3388:	8b 74 24 40          	mov    0x40(%esp),%esi
    338c:	0f b7 45 0c          	movzwl 0xc(%ebp),%eax
    3390:	39 c1                	cmp    %eax,%ecx
    3392:	0f 82 ce 01 00 00    	jb     3566 <_ZN4core3fmt9Formatter3pad17hca3954b393b06d6eE+0x3d6>
    3398:	e9 4b 03 00 00       	jmp    36e8 <_ZN4core3fmt9Formatter3pad17hca3954b393b06d6eE+0x558>
    339d:	31 c0                	xor    %eax,%eax
    339f:	31 d2                	xor    %edx,%edx
    33a1:	90                   	nop
    33a2:	90                   	nop
    33a3:	90                   	nop
    33a4:	90                   	nop
    33a5:	90                   	nop
    33a6:	90                   	nop
    33a7:	90                   	nop
    33a8:	90                   	nop
    33a9:	90                   	nop
    33aa:	90                   	nop
    33ab:	90                   	nop
    33ac:	90                   	nop
    33ad:	90                   	nop
    33ae:	90                   	nop
    33af:	90                   	nop
    33b0:	31 db                	xor    %ebx,%ebx
    33b2:	80 3c 16 c0          	cmpb   $0xc0,(%esi,%edx,1)
    33b6:	0f 9d c3             	setge  %bl
    33b9:	01 c3                	add    %eax,%ebx
    33bb:	31 c0                	xor    %eax,%eax
    33bd:	80 7c 16 01 c0       	cmpb   $0xc0,0x1(%esi,%edx,1)
    33c2:	0f 9d c0             	setge  %al
    33c5:	31 c9                	xor    %ecx,%ecx
    33c7:	80 7c 16 02 c0       	cmpb   $0xc0,0x2(%esi,%edx,1)
    33cc:	0f 9d c1             	setge  %cl
    33cf:	01 c1                	add    %eax,%ecx
    33d1:	01 d9                	add    %ebx,%ecx
    33d3:	31 c0                	xor    %eax,%eax
    33d5:	80 7c 16 03 c0       	cmpb   $0xc0,0x3(%esi,%edx,1)
    33da:	0f 9d c0             	setge  %al
    33dd:	01 c8                	add    %ecx,%eax
    33df:	83 c2 04             	add    $0x4,%edx
    33e2:	75 cc                	jne    33b0 <_ZN4core3fmt9Formatter3pad17hca3954b393b06d6eE+0x220>
    33e4:	39 f5                	cmp    %esi,%ebp
    33e6:	8b 5c 24 20          	mov    0x20(%esp),%ebx
    33ea:	74 24                	je     3410 <_ZN4core3fmt9Formatter3pad17hca3954b393b06d6eE+0x280>
    33ec:	03 54 24 0c          	add    0xc(%esp),%edx
    33f0:	31 f6                	xor    %esi,%esi
    33f2:	90                   	nop
    33f3:	90                   	nop
    33f4:	90                   	nop
    33f5:	90                   	nop
    33f6:	90                   	nop
    33f7:	90                   	nop
    33f8:	90                   	nop
    33f9:	90                   	nop
    33fa:	90                   	nop
    33fb:	90                   	nop
    33fc:	90                   	nop
    33fd:	90                   	nop
    33fe:	90                   	nop
    33ff:	90                   	nop
    3400:	31 c9                	xor    %ecx,%ecx
    3402:	80 3c 32 c0          	cmpb   $0xc0,(%edx,%esi,1)
    3406:	0f 9d c1             	setge  %cl
    3409:	01 c8                	add    %ecx,%eax
    340b:	46                   	inc    %esi
    340c:	39 f7                	cmp    %esi,%edi
    340e:	75 f0                	jne    3400 <_ZN4core3fmt9Formatter3pad17hca3954b393b06d6eE+0x270>
    3410:	8b 7c 24 18          	mov    0x18(%esp),%edi
    3414:	85 ff                	test   %edi,%edi
    3416:	b9 00 00 00 00       	mov    $0x0,%ecx
    341b:	74 35                	je     3452 <_ZN4core3fmt9Formatter3pad17hca3954b393b06d6eE+0x2c2>
    341d:	89 da                	mov    %ebx,%edx
    341f:	83 e2 fc             	and    $0xfffffffc,%edx
    3422:	31 c9                	xor    %ecx,%ecx
    3424:	80 7c 15 00 c0       	cmpb   $0xc0,0x0(%ebp,%edx,1)
    3429:	0f 9d c1             	setge  %cl
    342c:	83 ff 01             	cmp    $0x1,%edi
    342f:	74 21                	je     3452 <_ZN4core3fmt9Formatter3pad17hca3954b393b06d6eE+0x2c2>
    3431:	89 ce                	mov    %ecx,%esi
    3433:	31 c9                	xor    %ecx,%ecx
    3435:	80 7c 15 01 c0       	cmpb   $0xc0,0x1(%ebp,%edx,1)
    343a:	0f 9d c1             	setge  %cl
    343d:	01 ce                	add    %ecx,%esi
    343f:	83 ff 02             	cmp    $0x2,%edi
    3442:	74 0c                	je     3450 <_ZN4core3fmt9Formatter3pad17hca3954b393b06d6eE+0x2c0>
    3444:	31 c9                	xor    %ecx,%ecx
    3446:	80 7c 15 02 c0       	cmpb   $0xc0,0x2(%ebp,%edx,1)
    344b:	0f 9d c1             	setge  %cl
    344e:	01 ce                	add    %ecx,%esi
    3450:	89 f1                	mov    %esi,%ecx
    3452:	01 c1                	add    %eax,%ecx
    3454:	c1 eb 02             	shr    $0x2,%ebx
    3457:	eb 43                	jmp    349c <_ZN4core3fmt9Formatter3pad17hca3954b393b06d6eE+0x30c>
    3459:	90                   	nop
    345a:	90                   	nop
    345b:	90                   	nop
    345c:	90                   	nop
    345d:	90                   	nop
    345e:	90                   	nop
    345f:	90                   	nop
    3460:	89 f0                	mov    %esi,%eax
    3462:	25 ff 00 ff 00       	and    $0xff00ff,%eax
    3467:	c1 ee 08             	shr    $0x8,%esi
    346a:	81 e6 ff 00 ff 00    	and    $0xff00ff,%esi
    3470:	01 c6                	add    %eax,%esi
    3472:	89 f0                	mov    %esi,%eax
    3474:	c1 e0 10             	shl    $0x10,%eax
    3477:	01 f0                	add    %esi,%eax
    3479:	8b 7c 24 1c          	mov    0x1c(%esp),%edi
    347d:	8d 2c ba             	lea    (%edx,%edi,4),%ebp
    3480:	8b 5c 24 20          	mov    0x20(%esp),%ebx
    3484:	29 fb                	sub    %edi,%ebx
    3486:	c1 e8 10             	shr    $0x10,%eax
    3489:	8b 4c 24 18          	mov    0x18(%esp),%ecx
    348d:	01 c1                	add    %eax,%ecx
    348f:	89 fe                	mov    %edi,%esi
    3491:	83 e6 03             	and    $0x3,%esi
    3494:	85 f6                	test   %esi,%esi
    3496:	0f 85 95 01 00 00    	jne    3631 <_ZN4core3fmt9Formatter3pad17hca3954b393b06d6eE+0x4a1>
    349c:	85 db                	test   %ebx,%ebx
    349e:	0f 84 a6 00 00 00    	je     354a <_ZN4core3fmt9Formatter3pad17hca3954b393b06d6eE+0x3ba>
    34a4:	89 ea                	mov    %ebp,%edx
    34a6:	89 4c 24 18          	mov    %ecx,0x18(%esp)
    34aa:	89 d8                	mov    %ebx,%eax
    34ac:	81 fb c0 00 00 00    	cmp    $0xc0,%ebx
    34b2:	72 05                	jb     34b9 <_ZN4core3fmt9Formatter3pad17hca3954b393b06d6eE+0x329>
    34b4:	b8 c0 00 00 00       	mov    $0xc0,%eax
    34b9:	89 44 24 1c          	mov    %eax,0x1c(%esp)
    34bd:	31 f6                	xor    %esi,%esi
    34bf:	89 5c 24 20          	mov    %ebx,0x20(%esp)
    34c3:	83 fb 04             	cmp    $0x4,%ebx
    34c6:	72 98                	jb     3460 <_ZN4core3fmt9Formatter3pad17hca3954b393b06d6eE+0x2d0>
    34c8:	8b 4c 24 1c          	mov    0x1c(%esp),%ecx
    34cc:	c1 e9 02             	shr    $0x2,%ecx
    34cf:	c1 e1 04             	shl    $0x4,%ecx
    34d2:	31 ed                	xor    %ebp,%ebp
    34d4:	31 f6                	xor    %esi,%esi
    34d6:	90                   	nop
    34d7:	90                   	nop
    34d8:	90                   	nop
    34d9:	90                   	nop
    34da:	90                   	nop
    34db:	90                   	nop
    34dc:	90                   	nop
    34dd:	90                   	nop
    34de:	90                   	nop
    34df:	90                   	nop
    34e0:	8b 04 2a             	mov    (%edx,%ebp,1),%eax
    34e3:	8b 5c 2a 04          	mov    0x4(%edx,%ebp,1),%ebx
    34e7:	89 c7                	mov    %eax,%edi
    34e9:	f7 d7                	not    %edi
    34eb:	c1 ef 07             	shr    $0x7,%edi
    34ee:	c1 e8 06             	shr    $0x6,%eax
    34f1:	09 f8                	or     %edi,%eax
    34f3:	25 01 01 01 01       	and    $0x1010101,%eax
    34f8:	01 f0                	add    %esi,%eax
    34fa:	89 de                	mov    %ebx,%esi
    34fc:	f7 d6                	not    %esi
    34fe:	c1 ee 07             	shr    $0x7,%esi
    3501:	c1 eb 06             	shr    $0x6,%ebx
    3504:	09 f3                	or     %esi,%ebx
    3506:	81 e3 01 01 01 01    	and    $0x1010101,%ebx
    350c:	8b 7c 2a 08          	mov    0x8(%edx,%ebp,1),%edi
    3510:	89 fe                	mov    %edi,%esi
    3512:	f7 d6                	not    %esi
    3514:	c1 ee 07             	shr    $0x7,%esi
    3517:	c1 ef 06             	shr    $0x6,%edi
    351a:	09 f7                	or     %esi,%edi
    351c:	81 e7 01 01 01 01    	and    $0x1010101,%edi
    3522:	01 df                	add    %ebx,%edi
    3524:	01 c7                	add    %eax,%edi
    3526:	8b 74 2a 0c          	mov    0xc(%edx,%ebp,1),%esi
    352a:	89 f0                	mov    %esi,%eax
    352c:	f7 d0                	not    %eax
    352e:	c1 e8 07             	shr    $0x7,%eax
    3531:	c1 ee 06             	shr    $0x6,%esi
    3534:	09 c6                	or     %eax,%esi
    3536:	81 e6 01 01 01 01    	and    $0x1010101,%esi
    353c:	01 fe                	add    %edi,%esi
    353e:	83 c5 10             	add    $0x10,%ebp
    3541:	39 e9                	cmp    %ebp,%ecx
    3543:	75 9b                	jne    34e0 <_ZN4core3fmt9Formatter3pad17hca3954b393b06d6eE+0x350>
    3545:	e9 16 ff ff ff       	jmp    3460 <_ZN4core3fmt9Formatter3pad17hca3954b393b06d6eE+0x2d0>
    354a:	8b 7c 24 14          	mov    0x14(%esp),%edi
    354e:	8b 54 24 0c          	mov    0xc(%esp),%edx
    3552:	8b 6c 24 10          	mov    0x10(%esp),%ebp
    3556:	8b 74 24 40          	mov    0x40(%esp),%esi
    355a:	0f b7 45 0c          	movzwl 0xc(%ebp),%eax
    355e:	39 c1                	cmp    %eax,%ecx
    3560:	0f 83 82 01 00 00    	jae    36e8 <_ZN4core3fmt9Formatter3pad17hca3954b393b06d6eE+0x558>
    3566:	89 74 24 10          	mov    %esi,0x10(%esp)
    356a:	89 44 24 28          	mov    %eax,0x28(%esp)
    356e:	89 c2                	mov    %eax,%edx
    3570:	89 4c 24 18          	mov    %ecx,0x18(%esp)
    3574:	29 ca                	sub    %ecx,%edx
    3576:	89 f8                	mov    %edi,%eax
    3578:	c1 e8 1d             	shr    $0x1d,%eax
    357b:	83 e0 03             	and    $0x3,%eax
    357e:	31 f6                	xor    %esi,%esi
    3580:	8b 4c 24 24          	mov    0x24(%esp),%ecx
    3584:	8b 84 81 5c d5 ff ff 	mov    -0x2aa4(%ecx,%eax,4),%eax
    358b:	89 cb                	mov    %ecx,%ebx
    358d:	01 c8                	add    %ecx,%eax
    358f:	ff e0                	jmp    *%eax
    3591:	89 d6                	mov    %edx,%esi
    3593:	eb 05                	jmp    359a <_ZN4core3fmt9Formatter3pad17hca3954b393b06d6eE+0x40a>
    3595:	0f b7 f2             	movzwl %dx,%esi
    3598:	d1 ee                	shr    $1,%esi
    359a:	89 54 24 20          	mov    %edx,0x20(%esp)
    359e:	81 e7 ff ff 1f 00    	and    $0x1fffff,%edi
    35a4:	89 7c 24 14          	mov    %edi,0x14(%esp)
    35a8:	8b 7d 00             	mov    0x0(%ebp),%edi
    35ab:	8b 6d 04             	mov    0x4(%ebp),%ebp
    35ae:	89 74 24 1c          	mov    %esi,0x1c(%esp)
    35b2:	46                   	inc    %esi
    35b3:	90                   	nop
    35b4:	90                   	nop
    35b5:	90                   	nop
    35b6:	90                   	nop
    35b7:	90                   	nop
    35b8:	90                   	nop
    35b9:	90                   	nop
    35ba:	90                   	nop
    35bb:	90                   	nop
    35bc:	90                   	nop
    35bd:	90                   	nop
    35be:	90                   	nop
    35bf:	90                   	nop
    35c0:	66 4e                	dec    %si
    35c2:	74 19                	je     35dd <_ZN4core3fmt9Formatter3pad17hca3954b393b06d6eE+0x44d>
    35c4:	83 ec 08             	sub    $0x8,%esp
    35c7:	ff 74 24 1c          	push   0x1c(%esp)
    35cb:	57                   	push   %edi
    35cc:	ff 55 10             	call   *0x10(%ebp)
    35cf:	83 c4 10             	add    $0x10,%esp
    35d2:	84 c0                	test   %al,%al
    35d4:	74 ea                	je     35c0 <_ZN4core3fmt9Formatter3pad17hca3954b393b06d6eE+0x430>
    35d6:	b0 01                	mov    $0x1,%al
    35d8:	e9 8c 00 00 00       	jmp    3669 <_ZN4core3fmt9Formatter3pad17hca3954b393b06d6eE+0x4d9>
    35dd:	83 ec 04             	sub    $0x4,%esp
    35e0:	ff 74 24 14          	push   0x14(%esp)
    35e4:	ff 74 24 14          	push   0x14(%esp)
    35e8:	57                   	push   %edi
    35e9:	ff 55 0c             	call   *0xc(%ebp)
    35ec:	83 c4 10             	add    $0x10,%esp
    35ef:	89 c1                	mov    %eax,%ecx
    35f1:	b0 01                	mov    $0x1,%al
    35f3:	84 c9                	test   %cl,%cl
    35f5:	75 72                	jne    3669 <_ZN4core3fmt9Formatter3pad17hca3954b393b06d6eE+0x4d9>
    35f7:	8b 44 24 1c          	mov    0x1c(%esp),%eax
    35fb:	29 44 24 20          	sub    %eax,0x20(%esp)
    35ff:	03 44 24 18          	add    0x18(%esp),%eax
    3603:	2b 44 24 28          	sub    0x28(%esp),%eax
    3607:	89 44 24 1c          	mov    %eax,0x1c(%esp)
    360b:	66 be ff ff          	mov    $0xffff,%si
    360f:	90                   	nop
    3610:	8b 44 24 1c          	mov    0x1c(%esp),%eax
    3614:	01 f0                	add    %esi,%eax
    3616:	66 83 f8 ff          	cmp    $0xffff,%ax
    361a:	74 41                	je     365d <_ZN4core3fmt9Formatter3pad17hca3954b393b06d6eE+0x4cd>
    361c:	83 ec 08             	sub    $0x8,%esp
    361f:	ff 74 24 1c          	push   0x1c(%esp)
    3623:	57                   	push   %edi
    3624:	ff 55 10             	call   *0x10(%ebp)
    3627:	83 c4 10             	add    $0x10,%esp
    362a:	46                   	inc    %esi
    362b:	84 c0                	test   %al,%al
    362d:	74 e1                	je     3610 <_ZN4core3fmt9Formatter3pad17hca3954b393b06d6eE+0x480>
    362f:	eb 30                	jmp    3661 <_ZN4core3fmt9Formatter3pad17hca3954b393b06d6eE+0x4d1>
    3631:	89 cb                	mov    %ecx,%ebx
    3633:	81 e7 fc 00 00 00    	and    $0xfc,%edi
    3639:	8b 0c ba             	mov    (%edx,%edi,4),%ecx
    363c:	89 c8                	mov    %ecx,%eax
    363e:	f7 d0                	not    %eax
    3640:	c1 e8 07             	shr    $0x7,%eax
    3643:	c1 e9 06             	shr    $0x6,%ecx
    3646:	09 c1                	or     %eax,%ecx
    3648:	81 e1 01 01 01 01    	and    $0x1010101,%ecx
    364e:	83 fe 01             	cmp    $0x1,%esi
    3651:	75 1e                	jne    3671 <_ZN4core3fmt9Formatter3pad17hca3954b393b06d6eE+0x4e1>
    3653:	8b 54 24 0c          	mov    0xc(%esp),%edx
    3657:	8b 6c 24 10          	mov    0x10(%esp),%ebp
    365b:	eb 57                	jmp    36b4 <_ZN4core3fmt9Formatter3pad17hca3954b393b06d6eE+0x524>
    365d:	8b 74 24 20          	mov    0x20(%esp),%esi
    3661:	66 3b 74 24 20       	cmp    0x20(%esp),%si
    3666:	0f 92 c0             	setb   %al
    3669:	83 c4 2c             	add    $0x2c,%esp
    366c:	e9 8c 00 00 00       	jmp    36fd <_ZN4core3fmt9Formatter3pad17hca3954b393b06d6eE+0x56d>
    3671:	8b 44 ba 04          	mov    0x4(%edx,%edi,4),%eax
    3675:	89 7c 24 1c          	mov    %edi,0x1c(%esp)
    3679:	89 c7                	mov    %eax,%edi
    367b:	f7 d7                	not    %edi
    367d:	c1 ef 07             	shr    $0x7,%edi
    3680:	c1 e8 06             	shr    $0x6,%eax
    3683:	09 f8                	or     %edi,%eax
    3685:	25 01 01 01 01       	and    $0x1010101,%eax
    368a:	01 c1                	add    %eax,%ecx
    368c:	83 fe 02             	cmp    $0x2,%esi
    368f:	8b 6c 24 10          	mov    0x10(%esp),%ebp
    3693:	74 1b                	je     36b0 <_ZN4core3fmt9Formatter3pad17hca3954b393b06d6eE+0x520>
    3695:	8b 44 24 1c          	mov    0x1c(%esp),%eax
    3699:	8b 44 82 08          	mov    0x8(%edx,%eax,4),%eax
    369d:	89 c2                	mov    %eax,%edx
    369f:	f7 d2                	not    %edx
    36a1:	c1 ea 07             	shr    $0x7,%edx
    36a4:	c1 e8 06             	shr    $0x6,%eax
    36a7:	09 d0                	or     %edx,%eax
    36a9:	25 01 01 01 01       	and    $0x1010101,%eax
    36ae:	01 c1                	add    %eax,%ecx
    36b0:	8b 54 24 0c          	mov    0xc(%esp),%edx
    36b4:	89 c8                	mov    %ecx,%eax
    36b6:	25 ff 00 ff 00       	and    $0xff00ff,%eax
    36bb:	c1 e9 08             	shr    $0x8,%ecx
    36be:	81 e1 ff 00 07 00    	and    $0x700ff,%ecx
    36c4:	01 c1                	add    %eax,%ecx
    36c6:	89 c8                	mov    %ecx,%eax
    36c8:	c1 e0 10             	shl    $0x10,%eax
    36cb:	01 c8                	add    %ecx,%eax
    36cd:	c1 e8 10             	shr    $0x10,%eax
    36d0:	89 d9                	mov    %ebx,%ecx
    36d2:	01 c1                	add    %eax,%ecx
    36d4:	8b 7c 24 14          	mov    0x14(%esp),%edi
    36d8:	8b 74 24 40          	mov    0x40(%esp),%esi
    36dc:	0f b7 45 0c          	movzwl 0xc(%ebp),%eax
    36e0:	39 c1                	cmp    %eax,%ecx
    36e2:	0f 82 7e fe ff ff    	jb     3566 <_ZN4core3fmt9Formatter3pad17hca3954b393b06d6eE+0x3d6>
    36e8:	8b 45 04             	mov    0x4(%ebp),%eax
    36eb:	83 ec 04             	sub    $0x4,%esp
    36ee:	8b 5c 24 28          	mov    0x28(%esp),%ebx
    36f2:	56                   	push   %esi
    36f3:	52                   	push   %edx
    36f4:	ff 75 00             	push   0x0(%ebp)
    36f7:	ff 50 0c             	call   *0xc(%eax)
    36fa:	83 c4 3c             	add    $0x3c,%esp
    36fd:	5e                   	pop    %esi
    36fe:	5f                   	pop    %edi
    36ff:	5b                   	pop    %ebx
    3700:	5d                   	pop    %ebp
    3701:	c3                   	ret
    3702:	66 90                	xchg   %ax,%ax
    3704:	66 90                	xchg   %ax,%ax
    3706:	66 90                	xchg   %ax,%ax
    3708:	66 90                	xchg   %ax,%ax
    370a:	66 90                	xchg   %ax,%ax
    370c:	66 90                	xchg   %ax,%ax
    370e:	66 90                	xchg   %ax,%ax

00003710 <_ZN44_$LT$$RF$T$u20$as$u20$core..fmt..Display$GT$3fmt17h61c602258e98ed2aE>:
    3710:	53                   	push   %ebx
    3711:	83 ec 08             	sub    $0x8,%esp
    3714:	e8 00 00 00 00       	call   3719 <_ZN44_$LT$$RF$T$u20$as$u20$core..fmt..Display$GT$3fmt17h61c602258e98ed2aE+0x9>
    3719:	5b                   	pop    %ebx
    371a:	81 c3 db 68 00 00    	add    $0x68db,%ebx
    3720:	8b 4c 24 14          	mov    0x14(%esp),%ecx
    3724:	8b 44 24 10          	mov    0x10(%esp),%eax
    3728:	8b 10                	mov    (%eax),%edx
    372a:	8b 40 04             	mov    0x4(%eax),%eax
    372d:	89 04 24             	mov    %eax,(%esp)
    3730:	e8 5b fa ff ff       	call   3190 <_ZN4core3fmt9Formatter3pad17hca3954b393b06d6eE>
    3735:	83 c4 08             	add    $0x8,%esp
    3738:	5b                   	pop    %ebx
    3739:	c3                   	ret
    373a:	66 90                	xchg   %ax,%ax
    373c:	66 90                	xchg   %ax,%ax
    373e:	66 90                	xchg   %ax,%ax

00003740 <_ZN42_$LT$$RF$T$u20$as$u20$core..fmt..Debug$GT$3fmt17he0e689871bf0896eE>:
    3740:	53                   	push   %ebx
    3741:	83 ec 08             	sub    $0x8,%esp
    3744:	e8 00 00 00 00       	call   3749 <_ZN42_$LT$$RF$T$u20$as$u20$core..fmt..Debug$GT$3fmt17he0e689871bf0896eE+0x9>
    3749:	5b                   	pop    %ebx
    374a:	81 c3 ab 68 00 00    	add    $0x68ab,%ebx
    3750:	8b 44 24 10          	mov    0x10(%esp),%eax
    3754:	8b 48 04             	mov    0x4(%eax),%ecx
    3757:	83 ec 08             	sub    $0x8,%esp
    375a:	ff 74 24 1c          	push   0x1c(%esp)
    375e:	ff 30                	push   (%eax)
    3760:	ff 51 0c             	call   *0xc(%ecx)
    3763:	83 c4 18             	add    $0x18,%esp
    3766:	5b                   	pop    %ebx
    3767:	c3                   	ret
    3768:	66 90                	xchg   %ax,%ax
    376a:	66 90                	xchg   %ax,%ax
    376c:	66 90                	xchg   %ax,%ax
    376e:	66 90                	xchg   %ax,%ax

00003770 <_ZN4core3fmt5write17h60dc8996c7a95b44E>:
    3770:	55                   	push   %ebp
    3771:	53                   	push   %ebx
    3772:	57                   	push   %edi
    3773:	56                   	push   %esi
    3774:	83 ec 2c             	sub    $0x2c,%esp
    3777:	e8 00 00 00 00       	call   377c <_ZN4core3fmt5write17h60dc8996c7a95b44E+0xc>
    377c:	5b                   	pop    %ebx
    377d:	81 c3 78 68 00 00    	add    $0x6878,%ebx
    3783:	8b 6c 24 40          	mov    0x40(%esp),%ebp
    3787:	c7 44 24 20 20 00 00 	movl   $0xe0000020,0x20(%esp)
    378e:	e0 
    378f:	c7 44 24 24 00 00 00 	movl   $0x0,0x24(%esp)
    3796:	00 
    3797:	89 4c 24 18          	mov    %ecx,0x18(%esp)
    379b:	89 54 24 1c          	mov    %edx,0x1c(%esp)
    379f:	8b 7d 10             	mov    0x10(%ebp),%edi
    37a2:	85 ff                	test   %edi,%edi
    37a4:	0f 84 10 01 00 00    	je     38ba <_ZN4core3fmt5write17h60dc8996c7a95b44E+0x14a>
    37aa:	8b 4d 14             	mov    0x14(%ebp),%ecx
    37ad:	85 c9                	test   %ecx,%ecx
    37af:	0f 84 9e 01 00 00    	je     3953 <_ZN4core3fmt5write17h60dc8996c7a95b44E+0x1e3>
    37b5:	8d 04 49             	lea    (%ecx,%ecx,2),%eax
    37b8:	8d 04 c7             	lea    (%edi,%eax,8),%eax
    37bb:	89 44 24 14          	mov    %eax,0x14(%esp)
    37bf:	8d 47 18             	lea    0x18(%edi),%eax
    37c2:	8b 55 00             	mov    0x0(%ebp),%edx
    37c5:	8b 75 08             	mov    0x8(%ebp),%esi
    37c8:	89 74 24 10          	mov    %esi,0x10(%esp)
    37cc:	49                   	dec    %ecx
    37cd:	81 e1 ff ff ff 1f    	and    $0x1fffffff,%ecx
    37d3:	41                   	inc    %ecx
    37d4:	89 4c 24 0c          	mov    %ecx,0xc(%esp)
    37d8:	31 f6                	xor    %esi,%esi
    37da:	89 54 24 28          	mov    %edx,0x28(%esp)
    37de:	eb 11                	jmp    37f1 <_ZN4core3fmt5write17h60dc8996c7a95b44E+0x81>
    37e0:	46                   	inc    %esi
    37e1:	89 ef                	mov    %ebp,%edi
    37e3:	39 74 24 0c          	cmp    %esi,0xc(%esp)
    37e7:	8b 54 24 28          	mov    0x28(%esp),%edx
    37eb:	0f 84 4f 01 00 00    	je     3940 <_ZN4core3fmt5write17h60dc8996c7a95b44E+0x1d0>
    37f1:	89 c5                	mov    %eax,%ebp
    37f3:	8b 44 f2 04          	mov    0x4(%edx,%esi,8),%eax
    37f7:	85 c0                	test   %eax,%eax
    37f9:	74 1d                	je     3818 <_ZN4core3fmt5write17h60dc8996c7a95b44E+0xa8>
    37fb:	8b 4c 24 1c          	mov    0x1c(%esp),%ecx
    37ff:	83 ec 04             	sub    $0x4,%esp
    3802:	50                   	push   %eax
    3803:	ff 34 f2             	push   (%edx,%esi,8)
    3806:	ff 74 24 24          	push   0x24(%esp)
    380a:	ff 51 0c             	call   *0xc(%ecx)
    380d:	83 c4 10             	add    $0x10,%esp
    3810:	84 c0                	test   %al,%al
    3812:	0f 85 37 01 00 00    	jne    394f <_ZN4core3fmt5write17h60dc8996c7a95b44E+0x1df>
    3818:	0f b7 47 08          	movzwl 0x8(%edi),%eax
    381c:	85 c0                	test   %eax,%eax
    381e:	74 30                	je     3850 <_ZN4core3fmt5write17h60dc8996c7a95b44E+0xe0>
    3820:	83 f8 01             	cmp    $0x1,%eax
    3823:	75 3b                	jne    3860 <_ZN4core3fmt5write17h60dc8996c7a95b44E+0xf0>
    3825:	8b 47 0c             	mov    0xc(%edi),%eax
    3828:	8b 4c 24 10          	mov    0x10(%esp),%ecx
    382c:	0f b7 44 c1 04       	movzwl 0x4(%ecx,%eax,8),%eax
    3831:	0f b7 0f             	movzwl (%edi),%ecx
    3834:	83 f9 02             	cmp    $0x2,%ecx
    3837:	74 23                	je     385c <_ZN4core3fmt5write17h60dc8996c7a95b44E+0xec>
    3839:	83 f9 01             	cmp    $0x1,%ecx
    383c:	75 32                	jne    3870 <_ZN4core3fmt5write17h60dc8996c7a95b44E+0x100>
    383e:	8b 4f 04             	mov    0x4(%edi),%ecx
    3841:	8b 54 24 10          	mov    0x10(%esp),%edx
    3845:	0f b7 4c ca 04       	movzwl 0x4(%edx,%ecx,8),%ecx
    384a:	eb 28                	jmp    3874 <_ZN4core3fmt5write17h60dc8996c7a95b44E+0x104>
    384c:	90                   	nop
    384d:	90                   	nop
    384e:	90                   	nop
    384f:	90                   	nop
    3850:	0f b7 47 0a          	movzwl 0xa(%edi),%eax
    3854:	0f b7 0f             	movzwl (%edi),%ecx
    3857:	83 f9 02             	cmp    $0x2,%ecx
    385a:	75 dd                	jne    3839 <_ZN4core3fmt5write17h60dc8996c7a95b44E+0xc9>
    385c:	31 c9                	xor    %ecx,%ecx
    385e:	eb 14                	jmp    3874 <_ZN4core3fmt5write17h60dc8996c7a95b44E+0x104>
    3860:	31 c0                	xor    %eax,%eax
    3862:	0f b7 0f             	movzwl (%edi),%ecx
    3865:	83 f9 02             	cmp    $0x2,%ecx
    3868:	75 cf                	jne    3839 <_ZN4core3fmt5write17h60dc8996c7a95b44E+0xc9>
    386a:	eb f0                	jmp    385c <_ZN4core3fmt5write17h60dc8996c7a95b44E+0xec>
    386c:	90                   	nop
    386d:	90                   	nop
    386e:	90                   	nop
    386f:	90                   	nop
    3870:	0f b7 4f 02          	movzwl 0x2(%edi),%ecx
    3874:	8b 57 10             	mov    0x10(%edi),%edx
    3877:	8b 7f 14             	mov    0x14(%edi),%edi
    387a:	89 7c 24 20          	mov    %edi,0x20(%esp)
    387e:	66 89 44 24 24       	mov    %ax,0x24(%esp)
    3883:	66 89 4c 24 26       	mov    %cx,0x26(%esp)
    3888:	83 ec 08             	sub    $0x8,%esp
    388b:	8d 44 24 20          	lea    0x20(%esp),%eax
    388f:	50                   	push   %eax
    3890:	8b 44 24 1c          	mov    0x1c(%esp),%eax
    3894:	ff 34 d0             	push   (%eax,%edx,8)
    3897:	ff 54 d0 04          	call   *0x4(%eax,%edx,8)
    389b:	83 c4 10             	add    $0x10,%esp
    389e:	84 c0                	test   %al,%al
    38a0:	0f 85 a9 00 00 00    	jne    394f <_ZN4core3fmt5write17h60dc8996c7a95b44E+0x1df>
    38a6:	89 e8                	mov    %ebp,%eax
    38a8:	3b 6c 24 14          	cmp    0x14(%esp),%ebp
    38ac:	0f 84 2e ff ff ff    	je     37e0 <_ZN4core3fmt5write17h60dc8996c7a95b44E+0x70>
    38b2:	8d 45 18             	lea    0x18(%ebp),%eax
    38b5:	e9 26 ff ff ff       	jmp    37e0 <_ZN4core3fmt5write17h60dc8996c7a95b44E+0x70>
    38ba:	8b 45 0c             	mov    0xc(%ebp),%eax
    38bd:	85 c0                	test   %eax,%eax
    38bf:	0f 84 8e 00 00 00    	je     3953 <_ZN4core3fmt5write17h60dc8996c7a95b44E+0x1e3>
    38c5:	89 c1                	mov    %eax,%ecx
    38c7:	8b 75 08             	mov    0x8(%ebp),%esi
    38ca:	8d 04 c6             	lea    (%esi,%eax,8),%eax
    38cd:	89 44 24 10          	mov    %eax,0x10(%esp)
    38d1:	8d 46 08             	lea    0x8(%esi),%eax
    38d4:	8b 55 00             	mov    0x0(%ebp),%edx
    38d7:	49                   	dec    %ecx
    38d8:	81 e1 ff ff ff 1f    	and    $0x1fffffff,%ecx
    38de:	41                   	inc    %ecx
    38df:	89 4c 24 0c          	mov    %ecx,0xc(%esp)
    38e3:	31 ed                	xor    %ebp,%ebp
    38e5:	89 54 24 14          	mov    %edx,0x14(%esp)
    38e9:	90                   	nop
    38ea:	90                   	nop
    38eb:	90                   	nop
    38ec:	90                   	nop
    38ed:	90                   	nop
    38ee:	90                   	nop
    38ef:	90                   	nop
    38f0:	89 c7                	mov    %eax,%edi
    38f2:	8b 44 ea 04          	mov    0x4(%edx,%ebp,8),%eax
    38f6:	85 c0                	test   %eax,%eax
    38f8:	74 19                	je     3913 <_ZN4core3fmt5write17h60dc8996c7a95b44E+0x1a3>
    38fa:	8b 4c 24 1c          	mov    0x1c(%esp),%ecx
    38fe:	83 ec 04             	sub    $0x4,%esp
    3901:	50                   	push   %eax
    3902:	ff 34 ea             	push   (%edx,%ebp,8)
    3905:	ff 74 24 24          	push   0x24(%esp)
    3909:	ff 51 0c             	call   *0xc(%ecx)
    390c:	83 c4 10             	add    $0x10,%esp
    390f:	84 c0                	test   %al,%al
    3911:	75 3c                	jne    394f <_ZN4core3fmt5write17h60dc8996c7a95b44E+0x1df>
    3913:	83 ec 08             	sub    $0x8,%esp
    3916:	8d 44 24 20          	lea    0x20(%esp),%eax
    391a:	50                   	push   %eax
    391b:	ff 36                	push   (%esi)
    391d:	ff 56 04             	call   *0x4(%esi)
    3920:	83 c4 10             	add    $0x10,%esp
    3923:	84 c0                	test   %al,%al
    3925:	75 28                	jne    394f <_ZN4core3fmt5write17h60dc8996c7a95b44E+0x1df>
    3927:	45                   	inc    %ebp
    3928:	31 c0                	xor    %eax,%eax
    392a:	3b 7c 24 10          	cmp    0x10(%esp),%edi
    392e:	0f 95 c0             	setne  %al
    3931:	8d 04 c7             	lea    (%edi,%eax,8),%eax
    3934:	89 fe                	mov    %edi,%esi
    3936:	39 6c 24 0c          	cmp    %ebp,0xc(%esp)
    393a:	8b 54 24 14          	mov    0x14(%esp),%edx
    393e:	75 b0                	jne    38f0 <_ZN4core3fmt5write17h60dc8996c7a95b44E+0x180>
    3940:	8b 6c 24 40          	mov    0x40(%esp),%ebp
    3944:	8b 54 24 0c          	mov    0xc(%esp),%edx
    3948:	3b 55 04             	cmp    0x4(%ebp),%edx
    394b:	72 0d                	jb     395a <_ZN4core3fmt5write17h60dc8996c7a95b44E+0x1ea>
    394d:	eb 2e                	jmp    397d <_ZN4core3fmt5write17h60dc8996c7a95b44E+0x20d>
    394f:	b0 01                	mov    $0x1,%al
    3951:	eb 2c                	jmp    397f <_ZN4core3fmt5write17h60dc8996c7a95b44E+0x20f>
    3953:	31 d2                	xor    %edx,%edx
    3955:	3b 55 04             	cmp    0x4(%ebp),%edx
    3958:	73 23                	jae    397d <_ZN4core3fmt5write17h60dc8996c7a95b44E+0x20d>
    395a:	8b 45 00             	mov    0x0(%ebp),%eax
    395d:	8b 4c 24 1c          	mov    0x1c(%esp),%ecx
    3961:	83 ec 04             	sub    $0x4,%esp
    3964:	ff 74 d0 04          	push   0x4(%eax,%edx,8)
    3968:	ff 34 d0             	push   (%eax,%edx,8)
    396b:	ff 74 24 24          	push   0x24(%esp)
    396f:	ff 51 0c             	call   *0xc(%ecx)
    3972:	83 c4 10             	add    $0x10,%esp
    3975:	89 c1                	mov    %eax,%ecx
    3977:	b0 01                	mov    $0x1,%al
    3979:	84 c9                	test   %cl,%cl
    397b:	75 02                	jne    397f <_ZN4core3fmt5write17h60dc8996c7a95b44E+0x20f>
    397d:	31 c0                	xor    %eax,%eax
    397f:	83 c4 2c             	add    $0x2c,%esp
    3982:	5e                   	pop    %esi
    3983:	5f                   	pop    %edi
    3984:	5b                   	pop    %ebx
    3985:	5d                   	pop    %ebp
    3986:	c3                   	ret
    3987:	66 90                	xchg   %ax,%ax
    3989:	66 90                	xchg   %ax,%ax
    398b:	66 90                	xchg   %ax,%ax
    398d:	66 90                	xchg   %ax,%ax
    398f:	90                   	nop

00003990 <_ZN4core3fmt3num3imp52_$LT$impl$u20$core..fmt..Display$u20$for$u20$u32$GT$3fmt17h387aa99bd20dd571E>:
    3990:	53                   	push   %ebx
    3991:	83 ec 08             	sub    $0x8,%esp
    3994:	e8 00 00 00 00       	call   3999 <_ZN4core3fmt3num3imp52_$LT$impl$u20$core..fmt..Display$u20$for$u20$u32$GT$3fmt17h387aa99bd20dd571E+0x9>
    3999:	5b                   	pop    %ebx
    399a:	81 c3 5b 66 00 00    	add    $0x665b,%ebx
    39a0:	8b 44 24 14          	mov    0x14(%esp),%eax
    39a4:	8b 4c 24 10          	mov    0x10(%esp),%ecx
    39a8:	8b 09                	mov    (%ecx),%ecx
    39aa:	89 04 24             	mov    %eax,(%esp)
    39ad:	ba 01 00 00 00       	mov    $0x1,%edx
    39b2:	e8 09 00 00 00       	call   39c0 <_ZN4core3fmt3num3imp21_$LT$impl$u20$u32$GT$4_fmt17hdffe7231dcb733e5E>
    39b7:	83 c4 08             	add    $0x8,%esp
    39ba:	5b                   	pop    %ebx
    39bb:	c3                   	ret
    39bc:	66 90                	xchg   %ax,%ax
    39be:	66 90                	xchg   %ax,%ax

000039c0 <_ZN4core3fmt3num3imp21_$LT$impl$u20$u32$GT$4_fmt17hdffe7231dcb733e5E>:
    39c0:	55                   	push   %ebp
    39c1:	53                   	push   %ebx
    39c2:	57                   	push   %edi
    39c3:	56                   	push   %esi
    39c4:	83 ec 1c             	sub    $0x1c,%esp
    39c7:	89 54 24 0c          	mov    %edx,0xc(%esp)
    39cb:	e8 00 00 00 00       	call   39d0 <_ZN4core3fmt3num3imp21_$LT$impl$u20$u32$GT$4_fmt17hdffe7231dcb733e5E+0x10>
    39d0:	5b                   	pop    %ebx
    39d1:	81 c3 24 66 00 00    	add    $0x6624,%ebx
    39d7:	b8 0a 00 00 00       	mov    $0xa,%eax
    39dc:	89 ca                	mov    %ecx,%edx
    39de:	89 4c 24 08          	mov    %ecx,0x8(%esp)
    39e2:	81 f9 e8 03 00 00    	cmp    $0x3e8,%ecx
    39e8:	72 66                	jb     3a50 <_ZN4core3fmt3num3imp21_$LT$impl$u20$u32$GT$4_fmt17hdffe7231dcb733e5E+0x90>
    39ea:	bf 0a 00 00 00       	mov    $0xa,%edi
    39ef:	8b 4c 24 08          	mov    0x8(%esp),%ecx
    39f3:	90                   	nop
    39f4:	90                   	nop
    39f5:	90                   	nop
    39f6:	90                   	nop
    39f7:	90                   	nop
    39f8:	90                   	nop
    39f9:	90                   	nop
    39fa:	90                   	nop
    39fb:	90                   	nop
    39fc:	90                   	nop
    39fd:	90                   	nop
    39fe:	90                   	nop
    39ff:	90                   	nop
    3a00:	89 c8                	mov    %ecx,%eax
    3a02:	ba 59 17 b7 d1       	mov    $0xd1b71759,%edx
    3a07:	f7 e2                	mul    %edx
    3a09:	c1 ea 0d             	shr    $0xd,%edx
    3a0c:	69 c2 10 27 00 00    	imul   $0x2710,%edx,%eax
    3a12:	89 ce                	mov    %ecx,%esi
    3a14:	29 c6                	sub    %eax,%esi
    3a16:	69 c6 7b 14 00 00    	imul   $0x147b,%esi,%eax
    3a1c:	c1 e8 13             	shr    $0x13,%eax
    3a1f:	6b e8 64             	imul   $0x64,%eax,%ebp
    3a22:	29 ee                	sub    %ebp,%esi
    3a24:	0f b7 84 43 12 dc ff 	movzwl -0x23ee(%ebx,%eax,2),%eax
    3a2b:	ff 
    3a2c:	66 89 44 3c 0e       	mov    %ax,0xe(%esp,%edi,1)
    3a31:	0f b7 c6             	movzwl %si,%eax
    3a34:	0f b7 84 43 12 dc ff 	movzwl -0x23ee(%ebx,%eax,2),%eax
    3a3b:	ff 
    3a3c:	66 89 44 3c 10       	mov    %ax,0x10(%esp,%edi,1)
    3a41:	8d 47 fc             	lea    -0x4(%edi),%eax
    3a44:	89 c7                	mov    %eax,%edi
    3a46:	81 f9 7f 96 98 00    	cmp    $0x98967f,%ecx
    3a4c:	89 d1                	mov    %edx,%ecx
    3a4e:	77 b0                	ja     3a00 <_ZN4core3fmt3num3imp21_$LT$impl$u20$u32$GT$4_fmt17hdffe7231dcb733e5E+0x40>
    3a50:	83 fa 09             	cmp    $0x9,%edx
    3a53:	76 29                	jbe    3a7e <_ZN4core3fmt3num3imp21_$LT$impl$u20$u32$GT$4_fmt17hdffe7231dcb733e5E+0xbe>
    3a55:	0f b7 ca             	movzwl %dx,%ecx
    3a58:	c1 e9 02             	shr    $0x2,%ecx
    3a5b:	69 c9 7b 14 00 00    	imul   $0x147b,%ecx,%ecx
    3a61:	c1 e9 11             	shr    $0x11,%ecx
    3a64:	6b f1 64             	imul   $0x64,%ecx,%esi
    3a67:	29 f2                	sub    %esi,%edx
    3a69:	0f b7 d2             	movzwl %dx,%edx
    3a6c:	0f b7 94 53 12 dc ff 	movzwl -0x23ee(%ebx,%edx,2),%edx
    3a73:	ff 
    3a74:	66 89 54 04 10       	mov    %dx,0x10(%esp,%eax,1)
    3a79:	83 c0 fe             	add    $0xfffffffe,%eax
    3a7c:	89 ca                	mov    %ecx,%edx
    3a7e:	8b 74 24 30          	mov    0x30(%esp),%esi
    3a82:	83 7c 24 08 00       	cmpl   $0x0,0x8(%esp)
    3a87:	74 04                	je     3a8d <_ZN4core3fmt3num3imp21_$LT$impl$u20$u32$GT$4_fmt17hdffe7231dcb733e5E+0xcd>
    3a89:	85 d2                	test   %edx,%edx
    3a8b:	74 10                	je     3a9d <_ZN4core3fmt3num3imp21_$LT$impl$u20$u32$GT$4_fmt17hdffe7231dcb733e5E+0xdd>
    3a8d:	83 e2 0f             	and    $0xf,%edx
    3a90:	0f b6 8c 53 13 dc ff 	movzbl -0x23ed(%ebx,%edx,2),%ecx
    3a97:	ff 
    3a98:	88 4c 04 11          	mov    %cl,0x11(%esp,%eax,1)
    3a9c:	48                   	dec    %eax
    3a9d:	bf 0a 00 00 00       	mov    $0xa,%edi
    3aa2:	29 c7                	sub    %eax,%edi
    3aa4:	01 e0                	add    %esp,%eax
    3aa6:	83 c0 12             	add    $0x12,%eax
    3aa9:	0f b6 54 24 0c       	movzbl 0xc(%esp),%edx
    3aae:	89 f1                	mov    %esi,%ecx
    3ab0:	57                   	push   %edi
    3ab1:	50                   	push   %eax
    3ab2:	6a 00                	push   $0x0
    3ab4:	6a 01                	push   $0x1
    3ab6:	e8 d5 f3 ff ff       	call   2e90 <_ZN4core3fmt9Formatter12pad_integral17h098dc4ffcfaf833fE>
    3abb:	83 c4 2c             	add    $0x2c,%esp
    3abe:	5e                   	pop    %esi
    3abf:	5f                   	pop    %edi
    3ac0:	5b                   	pop    %ebx
    3ac1:	5d                   	pop    %ebp
    3ac2:	c3                   	ret
    3ac3:	66 90                	xchg   %ax,%ax
    3ac5:	66 90                	xchg   %ax,%ax
    3ac7:	66 90                	xchg   %ax,%ax
    3ac9:	66 90                	xchg   %ax,%ax
    3acb:	66 90                	xchg   %ax,%ax
    3acd:	66 90                	xchg   %ax,%ax
    3acf:	90                   	nop

00003ad0 <_ZN4core7unicode12unicode_data15grapheme_extend11lookup_slow17h1564a2dab4ebeb9dE>:
    3ad0:	53                   	push   %ebx
    3ad1:	57                   	push   %edi
    3ad2:	56                   	push   %esi
    3ad3:	e8 00 00 00 00       	call   3ad8 <_ZN4core7unicode12unicode_data15grapheme_extend11lookup_slow17h1564a2dab4ebeb9dE+0x8>
    3ad8:	5a                   	pop    %edx
    3ad9:	81 c2 1c 65 00 00    	add    $0x651c,%edx
    3adf:	89 ce                	mov    %ecx,%esi
    3ae1:	c1 e6 0b             	shl    $0xb,%esi
    3ae4:	31 c0                	xor    %eax,%eax
    3ae6:	81 f9 2f 18 01 00    	cmp    $0x1182f,%ecx
    3aec:	0f 83 d5 00 00 00    	jae    3bc7 <_ZN4core7unicode12unicode_data15grapheme_extend11lookup_slow17h1564a2dab4ebeb9dE+0xf7>
    3af2:	8b bc 82 78 e3 ff ff 	mov    -0x1c88(%edx,%eax,4),%edi
    3af9:	c1 e7 0b             	shl    $0xb,%edi
    3afc:	39 f7                	cmp    %esi,%edi
    3afe:	0f 86 da 00 00 00    	jbe    3bde <_ZN4core7unicode12unicode_data15grapheme_extend11lookup_slow17h1564a2dab4ebeb9dE+0x10e>
    3b04:	8b bc 82 68 e3 ff ff 	mov    -0x1c98(%edx,%eax,4),%edi
    3b0b:	c1 e7 0b             	shl    $0xb,%edi
    3b0e:	39 f7                	cmp    %esi,%edi
    3b10:	0f 86 dd 00 00 00    	jbe    3bf3 <_ZN4core7unicode12unicode_data15grapheme_extend11lookup_slow17h1564a2dab4ebeb9dE+0x123>
    3b16:	8b bc 82 60 e3 ff ff 	mov    -0x1ca0(%edx,%eax,4),%edi
    3b1d:	c1 e7 0b             	shl    $0xb,%edi
    3b20:	39 f7                	cmp    %esi,%edi
    3b22:	0f 86 e0 00 00 00    	jbe    3c08 <_ZN4core7unicode12unicode_data15grapheme_extend11lookup_slow17h1564a2dab4ebeb9dE+0x138>
    3b28:	8b bc 82 5c e3 ff ff 	mov    -0x1ca4(%edx,%eax,4),%edi
    3b2f:	c1 e7 0b             	shl    $0xb,%edi
    3b32:	39 f7                	cmp    %esi,%edi
    3b34:	0f 86 e3 00 00 00    	jbe    3c1d <_ZN4core7unicode12unicode_data15grapheme_extend11lookup_slow17h1564a2dab4ebeb9dE+0x14d>
    3b3a:	8b bc 82 5c e3 ff ff 	mov    -0x1ca4(%edx,%eax,4),%edi
    3b41:	c1 e7 0b             	shl    $0xb,%edi
    3b44:	39 f7                	cmp    %esi,%edi
    3b46:	77 01                	ja     3b49 <_ZN4core7unicode12unicode_data15grapheme_extend11lookup_slow17h1564a2dab4ebeb9dE+0x79>
    3b48:	40                   	inc    %eax
    3b49:	8b bc 82 58 e3 ff ff 	mov    -0x1ca8(%edx,%eax,4),%edi
    3b50:	c1 e7 0b             	shl    $0xb,%edi
    3b53:	31 db                	xor    %ebx,%ebx
    3b55:	39 f7                	cmp    %esi,%edi
    3b57:	0f 94 c3             	sete   %bl
    3b5a:	11 c3                	adc    %eax,%ebx
    3b5c:	8b 84 9a 58 e3 ff ff 	mov    -0x1ca8(%edx,%ebx,4),%eax
    3b63:	c1 e8 15             	shr    $0x15,%eax
    3b66:	be ef 02 00 00       	mov    $0x2ef,%esi
    3b6b:	83 fb 20             	cmp    $0x20,%ebx
    3b6e:	77 12                	ja     3b82 <_ZN4core7unicode12unicode_data15grapheme_extend11lookup_slow17h1564a2dab4ebeb9dE+0xb2>
    3b70:	8b b4 9a 5c e3 ff ff 	mov    -0x1ca4(%edx,%ebx,4),%esi
    3b77:	c1 ee 15             	shr    $0x15,%esi
    3b7a:	85 db                	test   %ebx,%ebx
    3b7c:	0f 84 b3 00 00 00    	je     3c35 <_ZN4core7unicode12unicode_data15grapheme_extend11lookup_slow17h1564a2dab4ebeb9dE+0x165>
    3b82:	bf ff ff 1f 00       	mov    $0x1fffff,%edi
    3b87:	23 bc 9a 54 e3 ff ff 	and    -0x1cac(%edx,%ebx,4),%edi
    3b8e:	89 c3                	mov    %eax,%ebx
    3b90:	f7 d3                	not    %ebx
    3b92:	01 f3                	add    %esi,%ebx
    3b94:	74 2b                	je     3bc1 <_ZN4core7unicode12unicode_data15grapheme_extend11lookup_slow17h1564a2dab4ebeb9dE+0xf1>
    3b96:	29 f9                	sub    %edi,%ecx
    3b98:	4e                   	dec    %esi
    3b99:	01 c2                	add    %eax,%edx
    3b9b:	81 c2 c2 d8 ff ff    	add    $0xffffd8c2,%edx
    3ba1:	31 ff                	xor    %edi,%edi
    3ba3:	90                   	nop
    3ba4:	90                   	nop
    3ba5:	90                   	nop
    3ba6:	90                   	nop
    3ba7:	90                   	nop
    3ba8:	90                   	nop
    3ba9:	90                   	nop
    3baa:	90                   	nop
    3bab:	90                   	nop
    3bac:	90                   	nop
    3bad:	90                   	nop
    3bae:	90                   	nop
    3baf:	90                   	nop
    3bb0:	89 fb                	mov    %edi,%ebx
    3bb2:	0f b6 3a             	movzbl (%edx),%edi
    3bb5:	01 df                	add    %ebx,%edi
    3bb7:	39 cf                	cmp    %ecx,%edi
    3bb9:	77 06                	ja     3bc1 <_ZN4core7unicode12unicode_data15grapheme_extend11lookup_slow17h1564a2dab4ebeb9dE+0xf1>
    3bbb:	40                   	inc    %eax
    3bbc:	42                   	inc    %edx
    3bbd:	39 c6                	cmp    %eax,%esi
    3bbf:	75 ef                	jne    3bb0 <_ZN4core7unicode12unicode_data15grapheme_extend11lookup_slow17h1564a2dab4ebeb9dE+0xe0>
    3bc1:	24 01                	and    $0x1,%al
    3bc3:	5e                   	pop    %esi
    3bc4:	5f                   	pop    %edi
    3bc5:	5b                   	pop    %ebx
    3bc6:	c3                   	ret
    3bc7:	b8 11 00 00 00       	mov    $0x11,%eax
    3bcc:	8b bc 82 78 e3 ff ff 	mov    -0x1c88(%edx,%eax,4),%edi
    3bd3:	c1 e7 0b             	shl    $0xb,%edi
    3bd6:	39 f7                	cmp    %esi,%edi
    3bd8:	0f 87 26 ff ff ff    	ja     3b04 <_ZN4core7unicode12unicode_data15grapheme_extend11lookup_slow17h1564a2dab4ebeb9dE+0x34>
    3bde:	83 c8 08             	or     $0x8,%eax
    3be1:	8b bc 82 68 e3 ff ff 	mov    -0x1c98(%edx,%eax,4),%edi
    3be8:	c1 e7 0b             	shl    $0xb,%edi
    3beb:	39 f7                	cmp    %esi,%edi
    3bed:	0f 87 23 ff ff ff    	ja     3b16 <_ZN4core7unicode12unicode_data15grapheme_extend11lookup_slow17h1564a2dab4ebeb9dE+0x46>
    3bf3:	83 c8 04             	or     $0x4,%eax
    3bf6:	8b bc 82 60 e3 ff ff 	mov    -0x1ca0(%edx,%eax,4),%edi
    3bfd:	c1 e7 0b             	shl    $0xb,%edi
    3c00:	39 f7                	cmp    %esi,%edi
    3c02:	0f 87 20 ff ff ff    	ja     3b28 <_ZN4core7unicode12unicode_data15grapheme_extend11lookup_slow17h1564a2dab4ebeb9dE+0x58>
    3c08:	83 c8 02             	or     $0x2,%eax
    3c0b:	8b bc 82 5c e3 ff ff 	mov    -0x1ca4(%edx,%eax,4),%edi
    3c12:	c1 e7 0b             	shl    $0xb,%edi
    3c15:	39 f7                	cmp    %esi,%edi
    3c17:	0f 87 1d ff ff ff    	ja     3b3a <_ZN4core7unicode12unicode_data15grapheme_extend11lookup_slow17h1564a2dab4ebeb9dE+0x6a>
    3c1d:	40                   	inc    %eax
    3c1e:	8b bc 82 5c e3 ff ff 	mov    -0x1ca4(%edx,%eax,4),%edi
    3c25:	c1 e7 0b             	shl    $0xb,%edi
    3c28:	39 f7                	cmp    %esi,%edi
    3c2a:	0f 86 18 ff ff ff    	jbe    3b48 <_ZN4core7unicode12unicode_data15grapheme_extend11lookup_slow17h1564a2dab4ebeb9dE+0x78>
    3c30:	e9 14 ff ff ff       	jmp    3b49 <_ZN4core7unicode12unicode_data15grapheme_extend11lookup_slow17h1564a2dab4ebeb9dE+0x79>
    3c35:	31 ff                	xor    %edi,%edi
    3c37:	89 c3                	mov    %eax,%ebx
    3c39:	f7 d3                	not    %ebx
    3c3b:	01 f3                	add    %esi,%ebx
    3c3d:	0f 85 53 ff ff ff    	jne    3b96 <_ZN4core7unicode12unicode_data15grapheme_extend11lookup_slow17h1564a2dab4ebeb9dE+0xc6>
    3c43:	e9 79 ff ff ff       	jmp    3bc1 <_ZN4core7unicode12unicode_data15grapheme_extend11lookup_slow17h1564a2dab4ebeb9dE+0xf1>
    3c48:	66 90                	xchg   %ax,%ax
    3c4a:	66 90                	xchg   %ax,%ax
    3c4c:	66 90                	xchg   %ax,%ax
    3c4e:	66 90                	xchg   %ax,%ax

00003c50 <_ZN4core3fmt8builders11DebugStruct5field17h3453ce3955d2bfaeE>:
    3c50:	55                   	push   %ebp
    3c51:	53                   	push   %ebx
    3c52:	57                   	push   %edi
    3c53:	56                   	push   %esi
    3c54:	83 ec 2c             	sub    $0x2c,%esp
    3c57:	89 ce                	mov    %ecx,%esi
    3c59:	e8 00 00 00 00       	call   3c5e <_ZN4core3fmt8builders11DebugStruct5field17h3453ce3955d2bfaeE+0xe>
    3c5e:	5b                   	pop    %ebx
    3c5f:	81 c3 96 63 00 00    	add    $0x6396,%ebx
    3c65:	b1 01                	mov    $0x1,%cl
    3c67:	80 7e 04 00          	cmpb   $0x0,0x4(%esi)
    3c6b:	0f 85 23 01 00 00    	jne    3d94 <_ZN4core3fmt8builders11DebugStruct5field17h3453ce3955d2bfaeE+0x144>
    3c71:	8b 6c 24 48          	mov    0x48(%esp),%ebp
    3c75:	8b 3e                	mov    (%esi),%edi
    3c77:	f6 47 0a 80          	testb  $0x80,0xa(%edi)
    3c7b:	0f b6 4e 05          	movzbl 0x5(%esi),%ecx
    3c7f:	75 1b                	jne    3c9c <_ZN4core3fmt8builders11DebugStruct5field17h3453ce3955d2bfaeE+0x4c>
    3c81:	0f b6 c1             	movzbl %cl,%eax
    3c84:	83 f0 03             	xor    $0x3,%eax
    3c87:	89 d5                	mov    %edx,%ebp
    3c89:	84 c9                	test   %cl,%cl
    3c8b:	0f 85 ce 00 00 00    	jne    3d5f <_ZN4core3fmt8builders11DebugStruct5field17h3453ce3955d2bfaeE+0x10f>
    3c91:	8d 8b 00 dc ff ff    	lea    -0x2400(%ebx),%ecx
    3c97:	e9 c9 00 00 00       	jmp    3d65 <_ZN4core3fmt8builders11DebugStruct5field17h3453ce3955d2bfaeE+0x115>
    3c9c:	84 c9                	test   %cl,%cl
    3c9e:	75 29                	jne    3cc9 <_ZN4core3fmt8builders11DebugStruct5field17h3453ce3955d2bfaeE+0x79>
    3ca0:	8b 47 04             	mov    0x4(%edi),%eax
    3ca3:	83 ec 04             	sub    $0x4,%esp
    3ca6:	8d 8b 05 dc ff ff    	lea    -0x23fb(%ebx),%ecx
    3cac:	6a 03                	push   $0x3
    3cae:	51                   	push   %ecx
    3caf:	ff 37                	push   (%edi)
    3cb1:	89 d5                	mov    %edx,%ebp
    3cb3:	ff 50 0c             	call   *0xc(%eax)
    3cb6:	89 ea                	mov    %ebp,%edx
    3cb8:	8b 6c 24 58          	mov    0x58(%esp),%ebp
    3cbc:	83 c4 10             	add    $0x10,%esp
    3cbf:	b1 01                	mov    $0x1,%cl
    3cc1:	84 c0                	test   %al,%al
    3cc3:	0f 85 cb 00 00 00    	jne    3d94 <_ZN4core3fmt8builders11DebugStruct5field17h3453ce3955d2bfaeE+0x144>
    3cc9:	c6 44 24 0f 01       	movb   $0x1,0xf(%esp)
    3cce:	8b 07                	mov    (%edi),%eax
    3cd0:	8b 4f 04             	mov    0x4(%edi),%ecx
    3cd3:	89 44 24 20          	mov    %eax,0x20(%esp)
    3cd7:	89 4c 24 24          	mov    %ecx,0x24(%esp)
    3cdb:	8d 44 24 0f          	lea    0xf(%esp),%eax
    3cdf:	89 44 24 28          	mov    %eax,0x28(%esp)
    3ce3:	8b 47 08             	mov    0x8(%edi),%eax
    3ce6:	8b 4f 0c             	mov    0xc(%edi),%ecx
    3ce9:	89 4c 24 1c          	mov    %ecx,0x1c(%esp)
    3ced:	89 44 24 18          	mov    %eax,0x18(%esp)
    3cf1:	8d 7c 24 20          	lea    0x20(%esp),%edi
    3cf5:	89 7c 24 10          	mov    %edi,0x10(%esp)
    3cf9:	8d 83 88 fd ff ff    	lea    -0x278(%ebx),%eax
    3cff:	89 44 24 14          	mov    %eax,0x14(%esp)
    3d03:	83 ec 04             	sub    $0x4,%esp
    3d06:	ff 74 24 44          	push   0x44(%esp)
    3d0a:	52                   	push   %edx
    3d0b:	57                   	push   %edi
    3d0c:	e8 cf 00 00 00       	call   3de0 <_ZN68_$LT$core..fmt..builders..PadAdapter$u20$as$u20$core..fmt..Write$GT$9write_str17h24b9d0f154c11ae5E>
    3d11:	83 c4 10             	add    $0x10,%esp
    3d14:	84 c0                	test   %al,%al
    3d16:	75 7a                	jne    3d92 <_ZN4core3fmt8builders11DebugStruct5field17h3453ce3955d2bfaeE+0x142>
    3d18:	83 ec 04             	sub    $0x4,%esp
    3d1b:	8d 83 fe db ff ff    	lea    -0x2402(%ebx),%eax
    3d21:	6a 02                	push   $0x2
    3d23:	50                   	push   %eax
    3d24:	57                   	push   %edi
    3d25:	e8 b6 00 00 00       	call   3de0 <_ZN68_$LT$core..fmt..builders..PadAdapter$u20$as$u20$core..fmt..Write$GT$9write_str17h24b9d0f154c11ae5E>
    3d2a:	83 c4 10             	add    $0x10,%esp
    3d2d:	84 c0                	test   %al,%al
    3d2f:	75 61                	jne    3d92 <_ZN4core3fmt8builders11DebugStruct5field17h3453ce3955d2bfaeE+0x142>
    3d31:	83 ec 08             	sub    $0x8,%esp
    3d34:	8d 44 24 18          	lea    0x18(%esp),%eax
    3d38:	50                   	push   %eax
    3d39:	ff 74 24 50          	push   0x50(%esp)
    3d3d:	ff d5                	call   *%ebp
    3d3f:	83 c4 10             	add    $0x10,%esp
    3d42:	84 c0                	test   %al,%al
    3d44:	75 4c                	jne    3d92 <_ZN4core3fmt8builders11DebugStruct5field17h3453ce3955d2bfaeE+0x142>
    3d46:	8b 44 24 14          	mov    0x14(%esp),%eax
    3d4a:	83 ec 04             	sub    $0x4,%esp
    3d4d:	8d 8b 08 dc ff ff    	lea    -0x23f8(%ebx),%ecx
    3d53:	6a 02                	push   $0x2
    3d55:	51                   	push   %ecx
    3d56:	ff 74 24 1c          	push   0x1c(%esp)
    3d5a:	ff 50 0c             	call   *0xc(%eax)
    3d5d:	eb 71                	jmp    3dd0 <_ZN4core3fmt8builders11DebugStruct5field17h3453ce3955d2bfaeE+0x180>
    3d5f:	8d 8b 03 dc ff ff    	lea    -0x23fd(%ebx),%ecx
    3d65:	8b 57 04             	mov    0x4(%edi),%edx
    3d68:	83 ec 04             	sub    $0x4,%esp
    3d6b:	50                   	push   %eax
    3d6c:	51                   	push   %ecx
    3d6d:	ff 37                	push   (%edi)
    3d6f:	ff 52 0c             	call   *0xc(%edx)
    3d72:	83 c4 10             	add    $0x10,%esp
    3d75:	b1 01                	mov    $0x1,%cl
    3d77:	84 c0                	test   %al,%al
    3d79:	75 19                	jne    3d94 <_ZN4core3fmt8builders11DebugStruct5field17h3453ce3955d2bfaeE+0x144>
    3d7b:	8b 47 04             	mov    0x4(%edi),%eax
    3d7e:	83 ec 04             	sub    $0x4,%esp
    3d81:	ff 74 24 44          	push   0x44(%esp)
    3d85:	55                   	push   %ebp
    3d86:	ff 37                	push   (%edi)
    3d88:	ff 50 0c             	call   *0xc(%eax)
    3d8b:	83 c4 10             	add    $0x10,%esp
    3d8e:	84 c0                	test   %al,%al
    3d90:	74 13                	je     3da5 <_ZN4core3fmt8builders11DebugStruct5field17h3453ce3955d2bfaeE+0x155>
    3d92:	b1 01                	mov    $0x1,%cl
    3d94:	88 4e 04             	mov    %cl,0x4(%esi)
    3d97:	c6 46 05 01          	movb   $0x1,0x5(%esi)
    3d9b:	89 f0                	mov    %esi,%eax
    3d9d:	83 c4 2c             	add    $0x2c,%esp
    3da0:	5e                   	pop    %esi
    3da1:	5f                   	pop    %edi
    3da2:	5b                   	pop    %ebx
    3da3:	5d                   	pop    %ebp
    3da4:	c3                   	ret
    3da5:	8b 47 04             	mov    0x4(%edi),%eax
    3da8:	83 ec 04             	sub    $0x4,%esp
    3dab:	8d 8b fe db ff ff    	lea    -0x2402(%ebx),%ecx
    3db1:	6a 02                	push   $0x2
    3db3:	51                   	push   %ecx
    3db4:	ff 37                	push   (%edi)
    3db6:	ff 50 0c             	call   *0xc(%eax)
    3db9:	83 c4 10             	add    $0x10,%esp
    3dbc:	84 c0                	test   %al,%al
    3dbe:	8b 44 24 48          	mov    0x48(%esp),%eax
    3dc2:	b1 01                	mov    $0x1,%cl
    3dc4:	75 ce                	jne    3d94 <_ZN4core3fmt8builders11DebugStruct5field17h3453ce3955d2bfaeE+0x144>
    3dc6:	83 ec 08             	sub    $0x8,%esp
    3dc9:	57                   	push   %edi
    3dca:	ff 74 24 50          	push   0x50(%esp)
    3dce:	ff d0                	call   *%eax
    3dd0:	83 c4 10             	add    $0x10,%esp
    3dd3:	89 c1                	mov    %eax,%ecx
    3dd5:	eb bd                	jmp    3d94 <_ZN4core3fmt8builders11DebugStruct5field17h3453ce3955d2bfaeE+0x144>
    3dd7:	66 90                	xchg   %ax,%ax
    3dd9:	66 90                	xchg   %ax,%ax
    3ddb:	66 90                	xchg   %ax,%ax
    3ddd:	66 90                	xchg   %ax,%ax
    3ddf:	90                   	nop

00003de0 <_ZN68_$LT$core..fmt..builders..PadAdapter$u20$as$u20$core..fmt..Write$GT$9write_str17h24b9d0f154c11ae5E>:
    3de0:	55                   	push   %ebp
    3de1:	53                   	push   %ebx
    3de2:	57                   	push   %edi
    3de3:	56                   	push   %esi
    3de4:	83 ec 2c             	sub    $0x2c,%esp
    3de7:	e8 00 00 00 00       	call   3dec <_ZN68_$LT$core..fmt..builders..PadAdapter$u20$as$u20$core..fmt..Write$GT$9write_str17h24b9d0f154c11ae5E+0xc>
    3dec:	5b                   	pop    %ebx
    3ded:	81 c3 08 62 00 00    	add    $0x6208,%ebx
    3df3:	8b 6c 24 48          	mov    0x48(%esp),%ebp
    3df7:	8b 74 24 44          	mov    0x44(%esp),%esi
    3dfb:	8b 44 24 40          	mov    0x40(%esp),%eax
    3dff:	8b 48 08             	mov    0x8(%eax),%ecx
    3e02:	89 4c 24 24          	mov    %ecx,0x24(%esp)
    3e06:	8b 08                	mov    (%eax),%ecx
    3e08:	89 4c 24 20          	mov    %ecx,0x20(%esp)
    3e0c:	8b 40 04             	mov    0x4(%eax),%eax
    3e0f:	89 44 24 1c          	mov    %eax,0x1c(%esp)
    3e13:	31 d2                	xor    %edx,%edx
    3e15:	8d 83 aa d6 ff ff    	lea    -0x2956(%ebx),%eax
    3e1b:	89 44 24 28          	mov    %eax,0x28(%esp)
    3e1f:	31 c0                	xor    %eax,%eax
    3e21:	31 c9                	xor    %ecx,%ecx
    3e23:	89 5c 24 18          	mov    %ebx,0x18(%esp)
    3e27:	eb 48                	jmp    3e71 <_ZN68_$LT$core..fmt..builders..PadAdapter$u20$as$u20$core..fmt..Write$GT$9write_str17h24b9d0f154c11ae5E+0x91>
    3e29:	90                   	nop
    3e2a:	90                   	nop
    3e2b:	90                   	nop
    3e2c:	90                   	nop
    3e2d:	90                   	nop
    3e2e:	90                   	nop
    3e2f:	90                   	nop
    3e30:	8b 4c 24 44          	mov    0x44(%esp),%ecx
    3e34:	80 7c 31 ff 0a       	cmpb   $0xa,-0x1(%ecx,%esi,1)
    3e39:	89 ce                	mov    %ecx,%esi
    3e3b:	0f 94 c1             	sete   %cl
    3e3e:	01 f2                	add    %esi,%edx
    3e40:	89 d5                	mov    %edx,%ebp
    3e42:	8b 54 24 24          	mov    0x24(%esp),%edx
    3e46:	88 0a                	mov    %cl,(%edx)
    3e48:	83 ec 04             	sub    $0x4,%esp
    3e4b:	50                   	push   %eax
    3e4c:	55                   	push   %ebp
    3e4d:	ff 74 24 2c          	push   0x2c(%esp)
    3e51:	8b 44 24 2c          	mov    0x2c(%esp),%eax
    3e55:	ff 50 0c             	call   *0xc(%eax)
    3e58:	83 c4 10             	add    $0x10,%esp
    3e5b:	89 fa                	mov    %edi,%edx
    3e5d:	84 c0                	test   %al,%al
    3e5f:	8b 44 24 10          	mov    0x10(%esp),%eax
    3e63:	8b 6c 24 48          	mov    0x48(%esp),%ebp
    3e67:	8b 4c 24 14          	mov    0x14(%esp),%ecx
    3e6b:	0f 85 d0 01 00 00    	jne    4041 <_ZN68_$LT$core..fmt..builders..PadAdapter$u20$as$u20$core..fmt..Write$GT$9write_str17h24b9d0f154c11ae5E+0x261>
    3e71:	f6 c1 01             	test   $0x1,%cl
    3e74:	0f 85 c3 01 00 00    	jne    403d <_ZN68_$LT$core..fmt..builders..PadAdapter$u20$as$u20$core..fmt..Write$GT$9write_str17h24b9d0f154c11ae5E+0x25d>
    3e7a:	39 c5                	cmp    %eax,%ebp
    3e7c:	73 12                	jae    3e90 <_ZN68_$LT$core..fmt..builders..PadAdapter$u20$as$u20$core..fmt..Write$GT$9write_str17h24b9d0f154c11ae5E+0xb0>
    3e7e:	89 c7                	mov    %eax,%edi
    3e80:	e9 5b 01 00 00       	jmp    3fe0 <_ZN68_$LT$core..fmt..builders..PadAdapter$u20$as$u20$core..fmt..Write$GT$9write_str17h24b9d0f154c11ae5E+0x200>
    3e85:	90                   	nop
    3e86:	90                   	nop
    3e87:	90                   	nop
    3e88:	90                   	nop
    3e89:	90                   	nop
    3e8a:	90                   	nop
    3e8b:	90                   	nop
    3e8c:	90                   	nop
    3e8d:	90                   	nop
    3e8e:	90                   	nop
    3e8f:	90                   	nop
    3e90:	89 54 24 0c          	mov    %edx,0xc(%esp)
    3e94:	eb 18                	jmp    3eae <_ZN68_$LT$core..fmt..builders..PadAdapter$u20$as$u20$core..fmt..Write$GT$9write_str17h24b9d0f154c11ae5E+0xce>
    3e96:	90                   	nop
    3e97:	90                   	nop
    3e98:	90                   	nop
    3e99:	90                   	nop
    3e9a:	90                   	nop
    3e9b:	90                   	nop
    3e9c:	90                   	nop
    3e9d:	90                   	nop
    3e9e:	90                   	nop
    3e9f:	90                   	nop
    3ea0:	89 f8                	mov    %edi,%eax
    3ea2:	39 ef                	cmp    %ebp,%edi
    3ea4:	8b 74 24 44          	mov    0x44(%esp),%esi
    3ea8:	0f 87 32 01 00 00    	ja     3fe0 <_ZN68_$LT$core..fmt..builders..PadAdapter$u20$as$u20$core..fmt..Write$GT$9write_str17h24b9d0f154c11ae5E+0x200>
    3eae:	89 e9                	mov    %ebp,%ecx
    3eb0:	29 c1                	sub    %eax,%ecx
    3eb2:	89 c7                	mov    %eax,%edi
    3eb4:	01 f0                	add    %esi,%eax
    3eb6:	83 f9 07             	cmp    $0x7,%ecx
    3eb9:	89 7c 24 10          	mov    %edi,0x10(%esp)
    3ebd:	77 31                	ja     3ef0 <_ZN68_$LT$core..fmt..builders..PadAdapter$u20$as$u20$core..fmt..Write$GT$9write_str17h24b9d0f154c11ae5E+0x110>
    3ebf:	39 fd                	cmp    %edi,%ebp
    3ec1:	0f 84 09 01 00 00    	je     3fd0 <_ZN68_$LT$core..fmt..builders..PadAdapter$u20$as$u20$core..fmt..Write$GT$9write_str17h24b9d0f154c11ae5E+0x1f0>
    3ec7:	31 f6                	xor    %esi,%esi
    3ec9:	90                   	nop
    3eca:	90                   	nop
    3ecb:	90                   	nop
    3ecc:	90                   	nop
    3ecd:	90                   	nop
    3ece:	90                   	nop
    3ecf:	90                   	nop
    3ed0:	80 3c 30 0a          	cmpb   $0xa,(%eax,%esi,1)
    3ed4:	0f 84 c9 00 00 00    	je     3fa3 <_ZN68_$LT$core..fmt..builders..PadAdapter$u20$as$u20$core..fmt..Write$GT$9write_str17h24b9d0f154c11ae5E+0x1c3>
    3eda:	46                   	inc    %esi
    3edb:	39 f1                	cmp    %esi,%ecx
    3edd:	75 f1                	jne    3ed0 <_ZN68_$LT$core..fmt..builders..PadAdapter$u20$as$u20$core..fmt..Write$GT$9write_str17h24b9d0f154c11ae5E+0xf0>
    3edf:	e9 ec 00 00 00       	jmp    3fd0 <_ZN68_$LT$core..fmt..builders..PadAdapter$u20$as$u20$core..fmt..Write$GT$9write_str17h24b9d0f154c11ae5E+0x1f0>
    3ee4:	90                   	nop
    3ee5:	90                   	nop
    3ee6:	90                   	nop
    3ee7:	90                   	nop
    3ee8:	90                   	nop
    3ee9:	90                   	nop
    3eea:	90                   	nop
    3eeb:	90                   	nop
    3eec:	90                   	nop
    3eed:	90                   	nop
    3eee:	90                   	nop
    3eef:	90                   	nop
    3ef0:	8d 78 03             	lea    0x3(%eax),%edi
    3ef3:	83 e7 fc             	and    $0xfffffffc,%edi
    3ef6:	89 fa                	mov    %edi,%edx
    3ef8:	29 c2                	sub    %eax,%edx
    3efa:	74 20                	je     3f1c <_ZN68_$LT$core..fmt..builders..PadAdapter$u20$as$u20$core..fmt..Write$GT$9write_str17h24b9d0f154c11ae5E+0x13c>
    3efc:	31 f6                	xor    %esi,%esi
    3efe:	90                   	nop
    3eff:	90                   	nop
    3f00:	80 3c 30 0a          	cmpb   $0xa,(%eax,%esi,1)
    3f04:	0f 84 95 00 00 00    	je     3f9f <_ZN68_$LT$core..fmt..builders..PadAdapter$u20$as$u20$core..fmt..Write$GT$9write_str17h24b9d0f154c11ae5E+0x1bf>
    3f0a:	46                   	inc    %esi
    3f0b:	39 f2                	cmp    %esi,%edx
    3f0d:	75 f1                	jne    3f00 <_ZN68_$LT$core..fmt..builders..PadAdapter$u20$as$u20$core..fmt..Write$GT$9write_str17h24b9d0f154c11ae5E+0x120>
    3f0f:	8d 71 f8             	lea    -0x8(%ecx),%esi
    3f12:	89 74 24 14          	mov    %esi,0x14(%esp)
    3f16:	39 f2                	cmp    %esi,%edx
    3f18:	76 09                	jbe    3f23 <_ZN68_$LT$core..fmt..builders..PadAdapter$u20$as$u20$core..fmt..Write$GT$9write_str17h24b9d0f154c11ae5E+0x143>
    3f1a:	eb 51                	jmp    3f6d <_ZN68_$LT$core..fmt..builders..PadAdapter$u20$as$u20$core..fmt..Write$GT$9write_str17h24b9d0f154c11ae5E+0x18d>
    3f1c:	8d 71 f8             	lea    -0x8(%ecx),%esi
    3f1f:	89 74 24 14          	mov    %esi,0x14(%esp)
    3f23:	be 04 00 00 00       	mov    $0x4,%esi
    3f28:	01 f7                	add    %esi,%edi
    3f2a:	90                   	nop
    3f2b:	90                   	nop
    3f2c:	90                   	nop
    3f2d:	90                   	nop
    3f2e:	90                   	nop
    3f2f:	90                   	nop
    3f30:	8b 5f fc             	mov    -0x4(%edi),%ebx
    3f33:	8b 37                	mov    (%edi),%esi
    3f35:	89 dd                	mov    %ebx,%ebp
    3f37:	81 f5 f5 f5 f5 f5    	xor    $0xf5f5f5f5,%ebp
    3f3d:	81 c5 01 01 01 01    	add    $0x1010101,%ebp
    3f43:	09 dd                	or     %ebx,%ebp
    3f45:	89 f3                	mov    %esi,%ebx
    3f47:	81 f3 f5 f5 f5 f5    	xor    $0xf5f5f5f5,%ebx
    3f4d:	81 c3 01 01 01 01    	add    $0x1010101,%ebx
    3f53:	09 f3                	or     %esi,%ebx
    3f55:	21 eb                	and    %ebp,%ebx
    3f57:	f7 d3                	not    %ebx
    3f59:	f7 c3 80 80 80 80    	test   $0x80808080,%ebx
    3f5f:	75 0c                	jne    3f6d <_ZN68_$LT$core..fmt..builders..PadAdapter$u20$as$u20$core..fmt..Write$GT$9write_str17h24b9d0f154c11ae5E+0x18d>
    3f61:	83 c2 08             	add    $0x8,%edx
    3f64:	83 c7 08             	add    $0x8,%edi
    3f67:	3b 54 24 14          	cmp    0x14(%esp),%edx
    3f6b:	76 c3                	jbe    3f30 <_ZN68_$LT$core..fmt..builders..PadAdapter$u20$as$u20$core..fmt..Write$GT$9write_str17h24b9d0f154c11ae5E+0x150>
    3f6d:	39 d1                	cmp    %edx,%ecx
    3f6f:	0f 84 bc 00 00 00    	je     4031 <_ZN68_$LT$core..fmt..builders..PadAdapter$u20$as$u20$core..fmt..Write$GT$9write_str17h24b9d0f154c11ae5E+0x251>
    3f75:	8d 0c 10             	lea    (%eax,%edx,1),%ecx
    3f78:	8b 6c 24 48          	mov    0x48(%esp),%ebp
    3f7c:	89 ef                	mov    %ebp,%edi
    3f7e:	29 d7                	sub    %edx,%edi
    3f80:	2b 7c 24 10          	sub    0x10(%esp),%edi
    3f84:	31 f6                	xor    %esi,%esi
    3f86:	8b 5c 24 18          	mov    0x18(%esp),%ebx
    3f8a:	90                   	nop
    3f8b:	90                   	nop
    3f8c:	90                   	nop
    3f8d:	90                   	nop
    3f8e:	90                   	nop
    3f8f:	90                   	nop
    3f90:	80 3c 31 0a          	cmpb   $0xa,(%ecx,%esi,1)
    3f94:	74 07                	je     3f9d <_ZN68_$LT$core..fmt..builders..PadAdapter$u20$as$u20$core..fmt..Write$GT$9write_str17h24b9d0f154c11ae5E+0x1bd>
    3f96:	46                   	inc    %esi
    3f97:	39 f7                	cmp    %esi,%edi
    3f99:	75 f5                	jne    3f90 <_ZN68_$LT$core..fmt..builders..PadAdapter$u20$as$u20$core..fmt..Write$GT$9write_str17h24b9d0f154c11ae5E+0x1b0>
    3f9b:	eb 37                	jmp    3fd4 <_ZN68_$LT$core..fmt..builders..PadAdapter$u20$as$u20$core..fmt..Write$GT$9write_str17h24b9d0f154c11ae5E+0x1f4>
    3f9d:	01 d6                	add    %edx,%esi
    3f9f:	8b 54 24 0c          	mov    0xc(%esp),%edx
    3fa3:	8b 4c 24 10          	mov    0x10(%esp),%ecx
    3fa7:	8d 3c 0e             	lea    (%esi,%ecx,1),%edi
    3faa:	47                   	inc    %edi
    3fab:	01 f1                	add    %esi,%ecx
    3fad:	39 e9                	cmp    %ebp,%ecx
    3faf:	0f 83 eb fe ff ff    	jae    3ea0 <_ZN68_$LT$core..fmt..builders..PadAdapter$u20$as$u20$core..fmt..Write$GT$9write_str17h24b9d0f154c11ae5E+0xc0>
    3fb5:	80 3c 30 0a          	cmpb   $0xa,(%eax,%esi,1)
    3fb9:	0f 85 e1 fe ff ff    	jne    3ea0 <_ZN68_$LT$core..fmt..builders..PadAdapter$u20$as$u20$core..fmt..Write$GT$9write_str17h24b9d0f154c11ae5E+0xc0>
    3fbf:	31 c9                	xor    %ecx,%ecx
    3fc1:	89 f8                	mov    %edi,%eax
    3fc3:	89 fe                	mov    %edi,%esi
    3fc5:	eb 25                	jmp    3fec <_ZN68_$LT$core..fmt..builders..PadAdapter$u20$as$u20$core..fmt..Write$GT$9write_str17h24b9d0f154c11ae5E+0x20c>
    3fc7:	90                   	nop
    3fc8:	90                   	nop
    3fc9:	90                   	nop
    3fca:	90                   	nop
    3fcb:	90                   	nop
    3fcc:	90                   	nop
    3fcd:	90                   	nop
    3fce:	90                   	nop
    3fcf:	90                   	nop
    3fd0:	89 ef                	mov    %ebp,%edi
    3fd2:	eb 0c                	jmp    3fe0 <_ZN68_$LT$core..fmt..builders..PadAdapter$u20$as$u20$core..fmt..Write$GT$9write_str17h24b9d0f154c11ae5E+0x200>
    3fd4:	89 ef                	mov    %ebp,%edi
    3fd6:	8b 54 24 0c          	mov    0xc(%esp),%edx
    3fda:	90                   	nop
    3fdb:	90                   	nop
    3fdc:	90                   	nop
    3fdd:	90                   	nop
    3fde:	90                   	nop
    3fdf:	90                   	nop
    3fe0:	89 f8                	mov    %edi,%eax
    3fe2:	b1 01                	mov    $0x1,%cl
    3fe4:	89 d7                	mov    %edx,%edi
    3fe6:	89 ee                	mov    %ebp,%esi
    3fe8:	39 d5                	cmp    %edx,%ebp
    3fea:	74 51                	je     403d <_ZN68_$LT$core..fmt..builders..PadAdapter$u20$as$u20$core..fmt..Write$GT$9write_str17h24b9d0f154c11ae5E+0x25d>
    3fec:	89 4c 24 14          	mov    %ecx,0x14(%esp)
    3ff0:	89 44 24 10          	mov    %eax,0x10(%esp)
    3ff4:	8b 44 24 24          	mov    0x24(%esp),%eax
    3ff8:	80 38 00             	cmpb   $0x0,(%eax)
    3ffb:	74 1f                	je     401c <_ZN68_$LT$core..fmt..builders..PadAdapter$u20$as$u20$core..fmt..Write$GT$9write_str17h24b9d0f154c11ae5E+0x23c>
    3ffd:	83 ec 04             	sub    $0x4,%esp
    4000:	6a 04                	push   $0x4
    4002:	ff 74 24 30          	push   0x30(%esp)
    4006:	ff 74 24 2c          	push   0x2c(%esp)
    400a:	8b 44 24 2c          	mov    0x2c(%esp),%eax
    400e:	89 d5                	mov    %edx,%ebp
    4010:	ff 50 0c             	call   *0xc(%eax)
    4013:	89 ea                	mov    %ebp,%edx
    4015:	83 c4 10             	add    $0x10,%esp
    4018:	84 c0                	test   %al,%al
    401a:	75 25                	jne    4041 <_ZN68_$LT$core..fmt..builders..PadAdapter$u20$as$u20$core..fmt..Write$GT$9write_str17h24b9d0f154c11ae5E+0x261>
    401c:	89 f0                	mov    %esi,%eax
    401e:	29 d0                	sub    %edx,%eax
    4020:	0f 85 0a fe ff ff    	jne    3e30 <_ZN68_$LT$core..fmt..builders..PadAdapter$u20$as$u20$core..fmt..Write$GT$9write_str17h24b9d0f154c11ae5E+0x50>
    4026:	31 c9                	xor    %ecx,%ecx
    4028:	8b 74 24 44          	mov    0x44(%esp),%esi
    402c:	e9 0d fe ff ff       	jmp    3e3e <_ZN68_$LT$core..fmt..builders..PadAdapter$u20$as$u20$core..fmt..Write$GT$9write_str17h24b9d0f154c11ae5E+0x5e>
    4031:	8b 6c 24 48          	mov    0x48(%esp),%ebp
    4035:	89 ef                	mov    %ebp,%edi
    4037:	8b 5c 24 18          	mov    0x18(%esp),%ebx
    403b:	eb 99                	jmp    3fd6 <_ZN68_$LT$core..fmt..builders..PadAdapter$u20$as$u20$core..fmt..Write$GT$9write_str17h24b9d0f154c11ae5E+0x1f6>
    403d:	31 c0                	xor    %eax,%eax
    403f:	eb 02                	jmp    4043 <_ZN68_$LT$core..fmt..builders..PadAdapter$u20$as$u20$core..fmt..Write$GT$9write_str17h24b9d0f154c11ae5E+0x263>
    4041:	b0 01                	mov    $0x1,%al
    4043:	83 c4 2c             	add    $0x2c,%esp
    4046:	5e                   	pop    %esi
    4047:	5f                   	pop    %edi
    4048:	5b                   	pop    %ebx
    4049:	5d                   	pop    %ebp
    404a:	c3                   	ret
    404b:	66 90                	xchg   %ax,%ax
    404d:	66 90                	xchg   %ax,%ax
    404f:	90                   	nop

00004050 <_ZN68_$LT$core..fmt..builders..PadAdapter$u20$as$u20$core..fmt..Write$GT$10write_char17hcd25163a23e864c6E>:
    4050:	55                   	push   %ebp
    4051:	53                   	push   %ebx
    4052:	57                   	push   %edi
    4053:	56                   	push   %esi
    4054:	83 ec 0c             	sub    $0xc,%esp
    4057:	e8 00 00 00 00       	call   405c <_ZN68_$LT$core..fmt..builders..PadAdapter$u20$as$u20$core..fmt..Write$GT$10write_char17hcd25163a23e864c6E+0xc>
    405c:	5b                   	pop    %ebx
    405d:	81 c3 98 5f 00 00    	add    $0x5f98,%ebx
    4063:	8b 44 24 20          	mov    0x20(%esp),%eax
    4067:	8b 68 08             	mov    0x8(%eax),%ebp
    406a:	8b 38                	mov    (%eax),%edi
    406c:	8b 70 04             	mov    0x4(%eax),%esi
    406f:	80 7d 00 00          	cmpb   $0x0,0x0(%ebp)
    4073:	74 1e                	je     4093 <_ZN68_$LT$core..fmt..builders..PadAdapter$u20$as$u20$core..fmt..Write$GT$10write_char17hcd25163a23e864c6E+0x43>
    4075:	83 ec 04             	sub    $0x4,%esp
    4078:	8d 83 aa d6 ff ff    	lea    -0x2956(%ebx),%eax
    407e:	6a 04                	push   $0x4
    4080:	50                   	push   %eax
    4081:	57                   	push   %edi
    4082:	ff 56 0c             	call   *0xc(%esi)
    4085:	83 c4 10             	add    $0x10,%esp
    4088:	84 c0                	test   %al,%al
    408a:	74 07                	je     4093 <_ZN68_$LT$core..fmt..builders..PadAdapter$u20$as$u20$core..fmt..Write$GT$10write_char17hcd25163a23e864c6E+0x43>
    408c:	b0 01                	mov    $0x1,%al
    408e:	83 c4 0c             	add    $0xc,%esp
    4091:	eb 16                	jmp    40a9 <_ZN68_$LT$core..fmt..builders..PadAdapter$u20$as$u20$core..fmt..Write$GT$10write_char17hcd25163a23e864c6E+0x59>
    4093:	8b 44 24 24          	mov    0x24(%esp),%eax
    4097:	83 f8 0a             	cmp    $0xa,%eax
    409a:	0f 94 45 00          	sete   0x0(%ebp)
    409e:	83 ec 08             	sub    $0x8,%esp
    40a1:	50                   	push   %eax
    40a2:	57                   	push   %edi
    40a3:	ff 56 10             	call   *0x10(%esi)
    40a6:	83 c4 1c             	add    $0x1c,%esp
    40a9:	5e                   	pop    %esi
    40aa:	5f                   	pop    %edi
    40ab:	5b                   	pop    %ebx
    40ac:	5d                   	pop    %ebp
    40ad:	c3                   	ret
    40ae:	66 90                	xchg   %ax,%ax

000040b0 <_ZN4core3fmt5Write9write_fmt17h8f134d5b7e940ddaE>:
    40b0:	53                   	push   %ebx
    40b1:	83 ec 08             	sub    $0x8,%esp
    40b4:	e8 00 00 00 00       	call   40b9 <_ZN4core3fmt5Write9write_fmt17h8f134d5b7e940ddaE+0x9>
    40b9:	5b                   	pop    %ebx
    40ba:	81 c3 3b 5f 00 00    	add    $0x5f3b,%ebx
    40c0:	8b 44 24 14          	mov    0x14(%esp),%eax
    40c4:	8b 4c 24 10          	mov    0x10(%esp),%ecx
    40c8:	8b 50 04             	mov    0x4(%eax),%edx
    40cb:	83 fa 01             	cmp    $0x1,%edx
    40ce:	74 02                	je     40d2 <_ZN4core3fmt5Write9write_fmt17h8f134d5b7e940ddaE+0x22>
    40d0:	85 d2                	test   %edx,%edx
    40d2:	89 04 24             	mov    %eax,(%esp)
    40d5:	8d 93 88 fd ff ff    	lea    -0x278(%ebx),%edx
    40db:	e8 90 f6 ff ff       	call   3770 <_ZN4core3fmt5write17h60dc8996c7a95b44E>
    40e0:	83 c4 08             	add    $0x8,%esp
    40e3:	5b                   	pop    %ebx
    40e4:	c3                   	ret
    40e5:	66 90                	xchg   %ax,%ax
    40e7:	66 90                	xchg   %ax,%ax
    40e9:	66 90                	xchg   %ax,%ax
    40eb:	66 90                	xchg   %ax,%ax
    40ed:	66 90                	xchg   %ax,%ax
    40ef:	90                   	nop

000040f0 <_ZN4core3fmt3num52_$LT$impl$u20$core..fmt..LowerHex$u20$for$u20$u8$GT$3fmt17hb093d7c5ea18d275E>:
    40f0:	53                   	push   %ebx
    40f1:	57                   	push   %edi
    40f2:	56                   	push   %esi
    40f3:	81 ec 80 00 00 00    	sub    $0x80,%esp
    40f9:	e8 00 00 00 00       	call   40fe <_ZN4core3fmt3num52_$LT$impl$u20$core..fmt..LowerHex$u20$for$u20$u8$GT$3fmt17hb093d7c5ea18d275E+0xe>
    40fe:	5b                   	pop    %ebx
    40ff:	81 c3 f6 5e 00 00    	add    $0x5ef6,%ebx
    4105:	8b 8c 24 94 00 00 00 	mov    0x94(%esp),%ecx
    410c:	8b 84 24 90 00 00 00 	mov    0x90(%esp),%eax
    4113:	0f b6 10             	movzbl (%eax),%edx
    4116:	be 81 00 00 00       	mov    $0x81,%esi
    411b:	eb 19                	jmp    4136 <_ZN4core3fmt3num52_$LT$impl$u20$core..fmt..LowerHex$u20$for$u20$u8$GT$3fmt17hb093d7c5ea18d275E+0x46>
    411d:	90                   	nop
    411e:	90                   	nop
    411f:	90                   	nop
    4120:	80 c4 57             	add    $0x57,%ah
    4123:	88 d0                	mov    %dl,%al
    4125:	c0 e8 04             	shr    $0x4,%al
    4128:	88 64 3c fe          	mov    %ah,-0x2(%esp,%edi,1)
    412c:	8d 77 ff             	lea    -0x1(%edi),%esi
    412f:	80 fa 0f             	cmp    $0xf,%dl
    4132:	89 c2                	mov    %eax,%edx
    4134:	76 11                	jbe    4147 <_ZN4core3fmt3num52_$LT$impl$u20$core..fmt..LowerHex$u20$for$u20$u8$GT$3fmt17hb093d7c5ea18d275E+0x57>
    4136:	89 f7                	mov    %esi,%edi
    4138:	88 d4                	mov    %dl,%ah
    413a:	80 e4 0f             	and    $0xf,%ah
    413d:	80 fc 0a             	cmp    $0xa,%ah
    4140:	73 de                	jae    4120 <_ZN4core3fmt3num52_$LT$impl$u20$core..fmt..LowerHex$u20$for$u20$u8$GT$3fmt17hb093d7c5ea18d275E+0x30>
    4142:	80 cc 30             	or     $0x30,%ah
    4145:	eb dc                	jmp    4123 <_ZN4core3fmt3num52_$LT$impl$u20$core..fmt..LowerHex$u20$for$u20$u8$GT$3fmt17hb093d7c5ea18d275E+0x33>
    4147:	83 c7 fe             	add    $0xfffffffe,%edi
    414a:	8d 04 3c             	lea    (%esp,%edi,1),%eax
    414d:	bf 81 00 00 00       	mov    $0x81,%edi
    4152:	29 f7                	sub    %esi,%edi
    4154:	8d b3 10 dc ff ff    	lea    -0x23f0(%ebx),%esi
    415a:	ba 01 00 00 00       	mov    $0x1,%edx
    415f:	57                   	push   %edi
    4160:	50                   	push   %eax
    4161:	6a 02                	push   $0x2
    4163:	56                   	push   %esi
    4164:	e8 27 ed ff ff       	call   2e90 <_ZN4core3fmt9Formatter12pad_integral17h098dc4ffcfaf833fE>
    4169:	81 c4 90 00 00 00    	add    $0x90,%esp
    416f:	5e                   	pop    %esi
    4170:	5f                   	pop    %edi
    4171:	5b                   	pop    %ebx
    4172:	c3                   	ret
    4173:	66 90                	xchg   %ax,%ax
    4175:	66 90                	xchg   %ax,%ax
    4177:	66 90                	xchg   %ax,%ax
    4179:	66 90                	xchg   %ax,%ax
    417b:	66 90                	xchg   %ax,%ax
    417d:	66 90                	xchg   %ax,%ax
    417f:	90                   	nop

00004180 <_ZN4core3fmt3num55_$LT$impl$u20$core..fmt..UpperHex$u20$for$u20$usize$GT$3fmt17h387a40616dc23209E>:
    4180:	53                   	push   %ebx
    4181:	57                   	push   %edi
    4182:	56                   	push   %esi
    4183:	81 ec 80 00 00 00    	sub    $0x80,%esp
    4189:	e8 00 00 00 00       	call   418e <_ZN4core3fmt3num55_$LT$impl$u20$core..fmt..UpperHex$u20$for$u20$usize$GT$3fmt17h387a40616dc23209E+0xe>
    418e:	5b                   	pop    %ebx
    418f:	81 c3 66 5e 00 00    	add    $0x5e66,%ebx
    4195:	8b 8c 24 94 00 00 00 	mov    0x94(%esp),%ecx
    419c:	8b 84 24 90 00 00 00 	mov    0x90(%esp),%eax
    41a3:	8b 00                	mov    (%eax),%eax
    41a5:	ba 81 00 00 00       	mov    $0x81,%edx
    41aa:	eb 1a                	jmp    41c6 <_ZN4core3fmt3num55_$LT$impl$u20$core..fmt..UpperHex$u20$for$u20$usize$GT$3fmt17h387a40616dc23209E+0x46>
    41ac:	90                   	nop
    41ad:	90                   	nop
    41ae:	90                   	nop
    41af:	90                   	nop
    41b0:	80 c2 37             	add    $0x37,%dl
    41b3:	89 c7                	mov    %eax,%edi
    41b5:	c1 ef 04             	shr    $0x4,%edi
    41b8:	88 54 34 fe          	mov    %dl,-0x2(%esp,%esi,1)
    41bc:	8d 56 ff             	lea    -0x1(%esi),%edx
    41bf:	83 f8 0f             	cmp    $0xf,%eax
    41c2:	89 f8                	mov    %edi,%eax
    41c4:	76 11                	jbe    41d7 <_ZN4core3fmt3num55_$LT$impl$u20$core..fmt..UpperHex$u20$for$u20$usize$GT$3fmt17h387a40616dc23209E+0x57>
    41c6:	89 d6                	mov    %edx,%esi
    41c8:	89 c2                	mov    %eax,%edx
    41ca:	80 e2 0f             	and    $0xf,%dl
    41cd:	80 fa 0a             	cmp    $0xa,%dl
    41d0:	73 de                	jae    41b0 <_ZN4core3fmt3num55_$LT$impl$u20$core..fmt..UpperHex$u20$for$u20$usize$GT$3fmt17h387a40616dc23209E+0x30>
    41d2:	80 ca 30             	or     $0x30,%dl
    41d5:	eb dc                	jmp    41b3 <_ZN4core3fmt3num55_$LT$impl$u20$core..fmt..UpperHex$u20$for$u20$usize$GT$3fmt17h387a40616dc23209E+0x33>
    41d7:	83 c6 fe             	add    $0xfffffffe,%esi
    41da:	8d 04 34             	lea    (%esp,%esi,1),%eax
    41dd:	be 81 00 00 00       	mov    $0x81,%esi
    41e2:	29 d6                	sub    %edx,%esi
    41e4:	8d bb 10 dc ff ff    	lea    -0x23f0(%ebx),%edi
    41ea:	ba 01 00 00 00       	mov    $0x1,%edx
    41ef:	56                   	push   %esi
    41f0:	50                   	push   %eax
    41f1:	6a 02                	push   $0x2
    41f3:	57                   	push   %edi
    41f4:	e8 97 ec ff ff       	call   2e90 <_ZN4core3fmt9Formatter12pad_integral17h098dc4ffcfaf833fE>
    41f9:	81 c4 90 00 00 00    	add    $0x90,%esp
    41ff:	5e                   	pop    %esi
    4200:	5f                   	pop    %edi
    4201:	5b                   	pop    %ebx
    4202:	c3                   	ret
    4203:	66 90                	xchg   %ax,%ax
    4205:	66 90                	xchg   %ax,%ax
    4207:	66 90                	xchg   %ax,%ax
    4209:	66 90                	xchg   %ax,%ax
    420b:	66 90                	xchg   %ax,%ax
    420d:	66 90                	xchg   %ax,%ax
    420f:	90                   	nop

00004210 <_ZN4core3fmt3num3imp52_$LT$impl$u20$core..fmt..Display$u20$for$u20$i32$GT$3fmt17h66eca3aabc4e6005E>:
    4210:	53                   	push   %ebx
    4211:	56                   	push   %esi
    4212:	50                   	push   %eax
    4213:	e8 00 00 00 00       	call   4218 <_ZN4core3fmt3num3imp52_$LT$impl$u20$core..fmt..Display$u20$for$u20$i32$GT$3fmt17h66eca3aabc4e6005E+0x8>
    4218:	5b                   	pop    %ebx
    4219:	81 c3 dc 5d 00 00    	add    $0x5ddc,%ebx
    421f:	8b 44 24 14          	mov    0x14(%esp),%eax
    4223:	8b 4c 24 10          	mov    0x10(%esp),%ecx
    4227:	8b 11                	mov    (%ecx),%edx
    4229:	89 d6                	mov    %edx,%esi
    422b:	c1 fe 1f             	sar    $0x1f,%esi
    422e:	89 d1                	mov    %edx,%ecx
    4230:	31 f1                	xor    %esi,%ecx
    4232:	29 f1                	sub    %esi,%ecx
    4234:	89 04 24             	mov    %eax,(%esp)
    4237:	f7 d2                	not    %edx
    4239:	c1 ea 1f             	shr    $0x1f,%edx
    423c:	e8 7f f7 ff ff       	call   39c0 <_ZN4core3fmt3num3imp21_$LT$impl$u20$u32$GT$4_fmt17hdffe7231dcb733e5E>
    4241:	83 c4 04             	add    $0x4,%esp
    4244:	5e                   	pop    %esi
    4245:	5b                   	pop    %ebx
    4246:	c3                   	ret
    4247:	66 90                	xchg   %ax,%ax
    4249:	66 90                	xchg   %ax,%ax
    424b:	66 90                	xchg   %ax,%ax
    424d:	66 90                	xchg   %ax,%ax
    424f:	90                   	nop

00004250 <_ZN4talc4talc13Talc$LT$O$GT$4free17h03e7af9670e8940dE>:
    4250:	55                   	push   %ebp
    4251:	53                   	push   %ebx
    4252:	57                   	push   %edi
    4253:	56                   	push   %esi
    4254:	83 ec 08             	sub    $0x8,%esp
    4257:	e8 00 00 00 00       	call   425c <_ZN4talc4talc13Talc$LT$O$GT$4free17h03e7af9670e8940dE+0xc>
    425c:	5f                   	pop    %edi
    425d:	81 c7 98 5d 00 00    	add    $0x5d98,%edi
    4263:	8d 04 11             	lea    (%ecx,%edx,1),%eax
    4266:	83 c0 03             	add    $0x3,%eax
    4269:	83 e0 fc             	and    $0xfffffffc,%eax
    426c:	8b 18                	mov    (%eax),%ebx
    426e:	39 c3                	cmp    %eax,%ebx
    4270:	76 04                	jbe    4276 <_ZN4talc4talc13Talc$LT$O$GT$4free17h03e7af9670e8940dE+0x26>
    4272:	8b 0b                	mov    (%ebx),%ecx
    4274:	eb 04                	jmp    427a <_ZN4talc4talc13Talc$LT$O$GT$4free17h03e7af9670e8940dE+0x2a>
    4276:	89 d9                	mov    %ebx,%ecx
    4278:	89 c3                	mov    %eax,%ebx
    427a:	89 ce                	mov    %ecx,%esi
    427c:	83 e6 fc             	and    $0xfffffffc,%esi
    427f:	8b 46 fc             	mov    -0x4(%esi),%eax
    4282:	a8 01                	test   $0x1,%al
    4284:	75 12                	jne    4298 <_ZN4talc4talc13Talc$LT$O$GT$4free17h03e7af9670e8940dE+0x48>
    4286:	29 c6                	sub    %eax,%esi
    4288:	83 f8 40             	cmp    $0x40,%eax
    428b:	89 0c 24             	mov    %ecx,(%esp)
    428e:	73 1b                	jae    42ab <_ZN4talc4talc13Talc$LT$O$GT$4free17h03e7af9670e8940dE+0x5b>
    4290:	83 c0 f4             	add    $0xfffffff4,%eax
    4293:	c1 e8 02             	shr    $0x2,%eax
    4296:	eb 3f                	jmp    42d7 <_ZN4talc4talc13Talc$LT$O$GT$4free17h03e7af9670e8940dE+0x87>
    4298:	83 c0 02             	add    $0x2,%eax
    429b:	89 46 fc             	mov    %eax,-0x4(%esi)
    429e:	8d 53 04             	lea    0x4(%ebx),%edx
    42a1:	f6 c1 02             	test   $0x2,%cl
    42a4:	74 56                	je     42fc <_ZN4talc4talc13Talc$LT$O$GT$4free17h03e7af9670e8940dE+0xac>
    42a6:	e9 90 00 00 00       	jmp    433b <_ZN4talc4talc13Talc$LT$O$GT$4free17h03e7af9670e8940dE+0xeb>
    42ab:	3d 80 00 00 00       	cmp    $0x80,%eax
    42b0:	73 08                	jae    42ba <_ZN4talc4talc13Talc$LT$O$GT$4free17h03e7af9670e8940dE+0x6a>
    42b2:	c1 e8 03             	shr    $0x3,%eax
    42b5:	83 c0 05             	add    $0x5,%eax
    42b8:	eb 1d                	jmp    42d7 <_ZN4talc4talc13Talc$LT$O$GT$4free17h03e7af9670e8940dE+0x87>
    42ba:	0f bd d0             	bsr    %eax,%edx
    42bd:	83 f2 1f             	xor    $0x1f,%edx
    42c0:	b1 1e                	mov    $0x1e,%cl
    42c2:	28 d1                	sub    %dl,%cl
    42c4:	d3 e8                	shr    %cl,%eax
    42c6:	01 d2                	add    %edx,%edx
    42c8:	29 d0                	sub    %edx,%eax
    42ca:	83 c0 43             	add    $0x43,%eax
    42cd:	83 f8 3f             	cmp    $0x3f,%eax
    42d0:	72 05                	jb     42d7 <_ZN4talc4talc13Talc$LT$O$GT$4free17h03e7af9670e8940dE+0x87>
    42d2:	b8 3f 00 00 00       	mov    $0x3f,%eax
    42d7:	8b 0e                	mov    (%esi),%ecx
    42d9:	8b 56 04             	mov    0x4(%esi),%edx
    42dc:	89 0a                	mov    %ecx,(%edx)
    42de:	85 c9                	test   %ecx,%ecx
    42e0:	74 03                	je     42e5 <_ZN4talc4talc13Talc$LT$O$GT$4free17h03e7af9670e8940dE+0x95>
    42e2:	89 51 04             	mov    %edx,0x4(%ecx)
    42e5:	8b 8f 20 00 00 00    	mov    0x20(%edi),%ecx
    42eb:	83 3c 81 00          	cmpl   $0x0,(%ecx,%eax,4)
    42ef:	74 23                	je     4314 <_ZN4talc4talc13Talc$LT$O$GT$4free17h03e7af9670e8940dE+0xc4>
    42f1:	8b 0c 24             	mov    (%esp),%ecx
    42f4:	8d 53 04             	lea    0x4(%ebx),%edx
    42f7:	f6 c1 02             	test   $0x2,%cl
    42fa:	75 3f                	jne    433b <_ZN4talc4talc13Talc$LT$O$GT$4free17h03e7af9670e8940dE+0xeb>
    42fc:	89 d3                	mov    %edx,%ebx
    42fe:	29 f3                	sub    %esi,%ebx
    4300:	83 fb 40             	cmp    $0x40,%ebx
    4303:	0f 83 c3 00 00 00    	jae    43cc <_ZN4talc4talc13Talc$LT$O$GT$4free17h03e7af9670e8940dE+0x17c>
    4309:	8d 43 f4             	lea    -0xc(%ebx),%eax
    430c:	c1 e8 02             	shr    $0x2,%eax
    430f:	e9 ed 00 00 00       	jmp    4401 <_ZN4talc4talc13Talc$LT$O$GT$4free17h03e7af9670e8940dE+0x1b1>
    4314:	31 d2                	xor    %edx,%edx
    4316:	83 f8 20             	cmp    $0x20,%eax
    4319:	0f 93 c2             	setae  %dl
    431c:	89 fd                	mov    %edi,%ebp
    431e:	bf 01 00 00 00       	mov    $0x1,%edi
    4323:	89 c1                	mov    %eax,%ecx
    4325:	d3 e7                	shl    %cl,%edi
    4327:	31 bc 95 18 00 00 00 	xor    %edi,0x18(%ebp,%edx,4)
    432e:	89 ef                	mov    %ebp,%edi
    4330:	8b 0c 24             	mov    (%esp),%ecx
    4333:	8d 53 04             	lea    0x4(%ebx),%edx
    4336:	f6 c1 02             	test   $0x2,%cl
    4339:	74 c1                	je     42fc <_ZN4talc4talc13Talc$LT$O$GT$4free17h03e7af9670e8940dE+0xac>
    433b:	8b 6b 0c             	mov    0xc(%ebx),%ebp
    433e:	83 fd 40             	cmp    $0x40,%ebp
    4341:	89 54 24 04          	mov    %edx,0x4(%esp)
    4345:	73 08                	jae    434f <_ZN4talc4talc13Talc$LT$O$GT$4free17h03e7af9670e8940dE+0xff>
    4347:	8d 45 f4             	lea    -0xc(%ebp),%eax
    434a:	c1 e8 02             	shr    $0x2,%eax
    434d:	eb 37                	jmp    4386 <_ZN4talc4talc13Talc$LT$O$GT$4free17h03e7af9670e8940dE+0x136>
    434f:	81 fd 80 00 00 00    	cmp    $0x80,%ebp
    4355:	73 0a                	jae    4361 <_ZN4talc4talc13Talc$LT$O$GT$4free17h03e7af9670e8940dE+0x111>
    4357:	89 e8                	mov    %ebp,%eax
    4359:	c1 e8 03             	shr    $0x3,%eax
    435c:	83 c0 05             	add    $0x5,%eax
    435f:	eb 25                	jmp    4386 <_ZN4talc4talc13Talc$LT$O$GT$4free17h03e7af9670e8940dE+0x136>
    4361:	0f bd c5             	bsr    %ebp,%eax
    4364:	83 f0 1f             	xor    $0x1f,%eax
    4367:	89 04 24             	mov    %eax,(%esp)
    436a:	b1 1e                	mov    $0x1e,%cl
    436c:	28 c1                	sub    %al,%cl
    436e:	89 e8                	mov    %ebp,%eax
    4370:	d3 e8                	shr    %cl,%eax
    4372:	8b 0c 24             	mov    (%esp),%ecx
    4375:	01 c9                	add    %ecx,%ecx
    4377:	29 c8                	sub    %ecx,%eax
    4379:	83 c0 43             	add    $0x43,%eax
    437c:	83 f8 3f             	cmp    $0x3f,%eax
    437f:	72 05                	jb     4386 <_ZN4talc4talc13Talc$LT$O$GT$4free17h03e7af9670e8940dE+0x136>
    4381:	b8 3f 00 00 00       	mov    $0x3f,%eax
    4386:	8b 4b 04             	mov    0x4(%ebx),%ecx
    4389:	8b 53 08             	mov    0x8(%ebx),%edx
    438c:	89 0a                	mov    %ecx,(%edx)
    438e:	85 c9                	test   %ecx,%ecx
    4390:	74 03                	je     4395 <_ZN4talc4talc13Talc$LT$O$GT$4free17h03e7af9670e8940dE+0x145>
    4392:	89 51 04             	mov    %edx,0x4(%ecx)
    4395:	8b 8f 20 00 00 00    	mov    0x20(%edi),%ecx
    439b:	83 3c 81 00          	cmpl   $0x0,(%ecx,%eax,4)
    439f:	75 18                	jne    43b9 <_ZN4talc4talc13Talc$LT$O$GT$4free17h03e7af9670e8940dE+0x169>
    43a1:	31 d2                	xor    %edx,%edx
    43a3:	83 f8 20             	cmp    $0x20,%eax
    43a6:	0f 93 c2             	setae  %dl
    43a9:	bb 01 00 00 00       	mov    $0x1,%ebx
    43ae:	89 c1                	mov    %eax,%ecx
    43b0:	d3 e3                	shl    %cl,%ebx
    43b2:	31 9c 97 18 00 00 00 	xor    %ebx,0x18(%edi,%edx,4)
    43b9:	8b 54 24 04          	mov    0x4(%esp),%edx
    43bd:	01 ea                	add    %ebp,%edx
    43bf:	89 d3                	mov    %edx,%ebx
    43c1:	29 f3                	sub    %esi,%ebx
    43c3:	83 fb 40             	cmp    $0x40,%ebx
    43c6:	0f 82 3d ff ff ff    	jb     4309 <_ZN4talc4talc13Talc$LT$O$GT$4free17h03e7af9670e8940dE+0xb9>
    43cc:	81 fb 80 00 00 00    	cmp    $0x80,%ebx
    43d2:	73 0a                	jae    43de <_ZN4talc4talc13Talc$LT$O$GT$4free17h03e7af9670e8940dE+0x18e>
    43d4:	89 d8                	mov    %ebx,%eax
    43d6:	c1 e8 03             	shr    $0x3,%eax
    43d9:	83 c0 05             	add    $0x5,%eax
    43dc:	eb 23                	jmp    4401 <_ZN4talc4talc13Talc$LT$O$GT$4free17h03e7af9670e8940dE+0x1b1>
    43de:	89 d5                	mov    %edx,%ebp
    43e0:	0f bd d3             	bsr    %ebx,%edx
    43e3:	83 f2 1f             	xor    $0x1f,%edx
    43e6:	b1 1e                	mov    $0x1e,%cl
    43e8:	28 d1                	sub    %dl,%cl
    43ea:	89 d8                	mov    %ebx,%eax
    43ec:	d3 e8                	shr    %cl,%eax
    43ee:	01 d2                	add    %edx,%edx
    43f0:	29 d0                	sub    %edx,%eax
    43f2:	83 c0 43             	add    $0x43,%eax
    43f5:	83 f8 3f             	cmp    $0x3f,%eax
    43f8:	72 05                	jb     43ff <_ZN4talc4talc13Talc$LT$O$GT$4free17h03e7af9670e8940dE+0x1af>
    43fa:	b8 3f 00 00 00       	mov    $0x3f,%eax
    43ff:	89 ea                	mov    %ebp,%edx
    4401:	8b 8f 20 00 00 00    	mov    0x20(%edi),%ecx
    4407:	8d 2c 81             	lea    (%ecx,%eax,4),%ebp
    440a:	8b 0c 81             	mov    (%ecx,%eax,4),%ecx
    440d:	85 c9                	test   %ecx,%ecx
    440f:	74 0d                	je     441e <_ZN4talc4talc13Talc$LT$O$GT$4free17h03e7af9670e8940dE+0x1ce>
    4411:	89 0e                	mov    %ecx,(%esi)
    4413:	89 6e 04             	mov    %ebp,0x4(%esi)
    4416:	89 75 00             	mov    %esi,0x0(%ebp)
    4419:	89 71 04             	mov    %esi,0x4(%ecx)
    441c:	eb 32                	jmp    4450 <_ZN4talc4talc13Talc$LT$O$GT$4free17h03e7af9670e8940dE+0x200>
    441e:	89 54 24 04          	mov    %edx,0x4(%esp)
    4422:	31 d2                	xor    %edx,%edx
    4424:	83 f8 20             	cmp    $0x20,%eax
    4427:	0f 93 c2             	setae  %dl
    442a:	89 3c 24             	mov    %edi,(%esp)
    442d:	bf 01 00 00 00       	mov    $0x1,%edi
    4432:	89 c1                	mov    %eax,%ecx
    4434:	d3 e7                	shl    %cl,%edi
    4436:	8b 04 24             	mov    (%esp),%eax
    4439:	31 bc 90 18 00 00 00 	xor    %edi,0x18(%eax,%edx,4)
    4440:	8b 54 24 04          	mov    0x4(%esp),%edx
    4444:	c7 06 00 00 00 00    	movl   $0x0,(%esi)
    444a:	89 6e 04             	mov    %ebp,0x4(%esi)
    444d:	89 75 00             	mov    %esi,0x0(%ebp)
    4450:	89 5e 08             	mov    %ebx,0x8(%esi)
    4453:	89 5a fc             	mov    %ebx,-0x4(%edx)
    4456:	83 c4 08             	add    $0x8,%esp
    4459:	5e                   	pop    %esi
    445a:	5f                   	pop    %edi
    445b:	5b                   	pop    %ebx
    445c:	5d                   	pop    %ebp
    445d:	c3                   	ret
    445e:	66 90                	xchg   %ax,%ax

00004460 <_ZN10kernel_lib2fs19not_supported_write17h9e4d025bb1412a8dE>:
    4460:	53                   	push   %ebx
    4461:	57                   	push   %edi
    4462:	56                   	push   %esi
    4463:	e8 00 00 00 00       	call   4468 <_ZN10kernel_lib2fs19not_supported_write17h9e4d025bb1412a8dE+0x8>
    4468:	5b                   	pop    %ebx
    4469:	81 c3 8c 5b 00 00    	add    $0x5b8c,%ebx
    446f:	8b 74 24 10          	mov    0x10(%esp),%esi
    4473:	8b 44 24 14          	mov    0x14(%esp),%eax
    4477:	8b 10                	mov    (%eax),%edx
    4479:	85 d2                	test   %edx,%edx
    447b:	74 40                	je     44bd <_ZN10kernel_lib2fs19not_supported_write17h9e4d025bb1412a8dE+0x5d>
    447d:	8b 78 04             	mov    0x4(%eax),%edi
    4480:	b1 01                	mov    $0x1,%cl
    4482:	90                   	nop
    4483:	90                   	nop
    4484:	90                   	nop
    4485:	90                   	nop
    4486:	90                   	nop
    4487:	90                   	nop
    4488:	90                   	nop
    4489:	90                   	nop
    448a:	90                   	nop
    448b:	90                   	nop
    448c:	90                   	nop
    448d:	90                   	nop
    448e:	90                   	nop
    448f:	90                   	nop
    4490:	31 c0                	xor    %eax,%eax
    4492:	f0 0f b0 8b 0c 00 00 	lock cmpxchg %cl,0xc(%ebx)
    4499:	00 
    449a:	75 06                	jne    44a2 <_ZN10kernel_lib2fs19not_supported_write17h9e4d025bb1412a8dE+0x42>
    449c:	eb 11                	jmp    44af <_ZN10kernel_lib2fs19not_supported_write17h9e4d025bb1412a8dE+0x4f>
    449e:	90                   	nop
    449f:	90                   	nop
    44a0:	f3 90                	pause
    44a2:	0f b6 83 0c 00 00 00 	movzbl 0xc(%ebx),%eax
    44a9:	84 c0                	test   %al,%al
    44ab:	75 f3                	jne    44a0 <_ZN10kernel_lib2fs19not_supported_write17h9e4d025bb1412a8dE+0x40>
    44ad:	eb e1                	jmp    4490 <_ZN10kernel_lib2fs19not_supported_write17h9e4d025bb1412a8dE+0x30>
    44af:	89 f9                	mov    %edi,%ecx
    44b1:	e8 9a fd ff ff       	call   4250 <_ZN4talc4talc13Talc$LT$O$GT$4free17h03e7af9670e8940dE>
    44b6:	c6 83 0c 00 00 00 00 	movb   $0x0,0xc(%ebx)
    44bd:	8b 0e                	mov    (%esi),%ecx
    44bf:	e8 3c 26 00 00       	call   6b00 <_ZN81_$LT$kernel_types..object..handle..RawHandle$u20$as$u20$core..ops..drop..Drop$GT$4drop17h3ae0020523155c57E>
    44c4:	b0 01                	mov    $0x1,%al
    44c6:	5e                   	pop    %esi
    44c7:	5f                   	pop    %edi
    44c8:	5b                   	pop    %ebx
    44c9:	c3                   	ret
    44ca:	66 90                	xchg   %ax,%ax
    44cc:	66 90                	xchg   %ax,%ax
    44ce:	66 90                	xchg   %ax,%ax

000044d0 <_ZN4core3fmt3num52_$LT$impl$u20$core..fmt..Debug$u20$for$u20$usize$GT$3fmt17hc3e369e9f8fef25cE.96>:
    44d0:	53                   	push   %ebx
    44d1:	57                   	push   %edi
    44d2:	56                   	push   %esi
    44d3:	81 ec 80 00 00 00    	sub    $0x80,%esp
    44d9:	e8 00 00 00 00       	call   44de <_ZN4core3fmt3num52_$LT$impl$u20$core..fmt..Debug$u20$for$u20$usize$GT$3fmt17hc3e369e9f8fef25cE.96+0xe>
    44de:	5b                   	pop    %ebx
    44df:	81 c3 16 5b 00 00    	add    $0x5b16,%ebx
    44e5:	8b 8c 24 94 00 00 00 	mov    0x94(%esp),%ecx
    44ec:	8b 84 24 90 00 00 00 	mov    0x90(%esp),%eax
    44f3:	8b 51 08             	mov    0x8(%ecx),%edx
    44f6:	f7 c2 00 00 00 02    	test   $0x2000000,%edx
    44fc:	75 16                	jne    4514 <_ZN4core3fmt3num52_$LT$impl$u20$core..fmt..Debug$u20$for$u20$usize$GT$3fmt17hc3e369e9f8fef25cE.96+0x44>
    44fe:	f7 c2 00 00 00 04    	test   $0x4000000,%edx
    4504:	75 41                	jne    4547 <_ZN4core3fmt3num52_$LT$impl$u20$core..fmt..Debug$u20$for$u20$usize$GT$3fmt17hc3e369e9f8fef25cE.96+0x77>
    4506:	81 c4 80 00 00 00    	add    $0x80,%esp
    450c:	5e                   	pop    %esi
    450d:	5f                   	pop    %edi
    450e:	5b                   	pop    %ebx
    450f:	e9 6c e8 ff ff       	jmp    2d80 <_ZN4core3fmt3num3imp54_$LT$impl$u20$core..fmt..Display$u20$for$u20$usize$GT$3fmt17h10e52ed1ac19dcc3E>
    4514:	8b 00                	mov    (%eax),%eax
    4516:	ba 81 00 00 00       	mov    $0x81,%edx
    451b:	eb 19                	jmp    4536 <_ZN4core3fmt3num52_$LT$impl$u20$core..fmt..Debug$u20$for$u20$usize$GT$3fmt17hc3e369e9f8fef25cE.96+0x66>
    451d:	90                   	nop
    451e:	90                   	nop
    451f:	90                   	nop
    4520:	80 c2 57             	add    $0x57,%dl
    4523:	89 c7                	mov    %eax,%edi
    4525:	c1 ef 04             	shr    $0x4,%edi
    4528:	88 54 34 fe          	mov    %dl,-0x2(%esp,%esi,1)
    452c:	8d 56 ff             	lea    -0x1(%esi),%edx
    452f:	83 f8 0f             	cmp    $0xf,%eax
    4532:	89 f8                	mov    %edi,%eax
    4534:	76 41                	jbe    4577 <_ZN4core3fmt3num52_$LT$impl$u20$core..fmt..Debug$u20$for$u20$usize$GT$3fmt17hc3e369e9f8fef25cE.96+0xa7>
    4536:	89 d6                	mov    %edx,%esi
    4538:	89 c2                	mov    %eax,%edx
    453a:	80 e2 0f             	and    $0xf,%dl
    453d:	80 fa 0a             	cmp    $0xa,%dl
    4540:	73 de                	jae    4520 <_ZN4core3fmt3num52_$LT$impl$u20$core..fmt..Debug$u20$for$u20$usize$GT$3fmt17hc3e369e9f8fef25cE.96+0x50>
    4542:	80 ca 30             	or     $0x30,%dl
    4545:	eb dc                	jmp    4523 <_ZN4core3fmt3num52_$LT$impl$u20$core..fmt..Debug$u20$for$u20$usize$GT$3fmt17hc3e369e9f8fef25cE.96+0x53>
    4547:	8b 00                	mov    (%eax),%eax
    4549:	ba 81 00 00 00       	mov    $0x81,%edx
