
target/i686-unknown-linux-gnu/release/vga:     file format elf32-i386


Disassembly of section .text:

00001000 <_ZN5alloc5alloc18handle_alloc_error17h692534c446c02bcdE>:
    1000:	53                   	push   %ebx
    1001:	83 ec 08             	sub    $0x8,%esp
    1004:	e8 00 00 00 00       	call   1009 <_ZN5alloc5alloc18handle_alloc_error17h692534c446c02bcdE+0x9>
    1009:	5b                   	pop    %ebx
    100a:	81 c3 eb 6f 00 00    	add    $0x6feb,%ebx
    1010:	e8 9b 02 00 00       	call   12b0 <_RNvCs9xNfxAkRhBx_7___rustc26___rust_alloc_error_handler>
    1015:	66 90                	xchg   %ax,%ax
    1017:	66 90                	xchg   %ax,%ax
    1019:	66 90                	xchg   %ax,%ax
    101b:	66 90                	xchg   %ax,%ax
    101d:	66 90                	xchg   %ax,%ax
    101f:	90                   	nop

00001020 <_ZN5alloc7raw_vec17capacity_overflow17hf4854d1cf84712dcE>:
    1020:	53                   	push   %ebx
    1021:	83 ec 18             	sub    $0x18,%esp
    1024:	e8 00 00 00 00       	call   1029 <_ZN5alloc7raw_vec17capacity_overflow17hf4854d1cf84712dcE+0x9>
    1029:	5b                   	pop    %ebx
    102a:	81 c3 cb 6f 00 00    	add    $0x6fcb,%ebx
    1030:	8d 83 30 fe ff ff    	lea    -0x1d0(%ebx),%eax
    1036:	89 04 24             	mov    %eax,(%esp)
    1039:	c7 44 24 04 01 00 00 	movl   $0x1,0x4(%esp)
    1040:	00 
    1041:	c7 44 24 10 00 00 00 	movl   $0x0,0x10(%esp)
    1048:	00 
    1049:	c7 44 24 08 04 00 00 	movl   $0x4,0x8(%esp)
    1050:	00 
    1051:	c7 44 24 0c 00 00 00 	movl   $0x0,0xc(%esp)
    1058:	00 
    1059:	8d 93 a0 fd ff ff    	lea    -0x260(%ebx),%edx
    105f:	89 e1                	mov    %esp,%ecx
    1061:	e8 ca 00 00 00       	call   1130 <_ZN4core9panicking9panic_fmt17he08b1796856e5d1aE>
    1066:	66 90                	xchg   %ax,%ax
    1068:	66 90                	xchg   %ax,%ax
    106a:	66 90                	xchg   %ax,%ax
    106c:	66 90                	xchg   %ax,%ax
    106e:	66 90                	xchg   %ax,%ax

00001070 <_RNvCs9xNfxAkRhBx_7___rustc9___rdl_oom>:
    1070:	53                   	push   %ebx
    1071:	83 ec 28             	sub    $0x28,%esp
    1074:	e8 00 00 00 00       	call   1079 <_RNvCs9xNfxAkRhBx_7___rustc9___rdl_oom+0x9>
    1079:	5b                   	pop    %ebx
    107a:	81 c3 7b 6f 00 00    	add    $0x6f7b,%ebx
    1080:	89 4c 24 04          	mov    %ecx,0x4(%esp)
    1084:	8d 44 24 04          	lea    0x4(%esp),%eax
    1088:	89 44 24 08          	mov    %eax,0x8(%esp)
    108c:	8d 83 6c c4 ff ff    	lea    -0x3b94(%ebx),%eax
    1092:	89 44 24 0c          	mov    %eax,0xc(%esp)
    1096:	8d 83 38 fe ff ff    	lea    -0x1c8(%ebx),%eax
    109c:	89 44 24 10          	mov    %eax,0x10(%esp)
    10a0:	c7 44 24 14 02 00 00 	movl   $0x2,0x14(%esp)
    10a7:	00 
    10a8:	c7 44 24 20 00 00 00 	movl   $0x0,0x20(%esp)
    10af:	00 
    10b0:	8d 44 24 08          	lea    0x8(%esp),%eax
    10b4:	89 44 24 18          	mov    %eax,0x18(%esp)
    10b8:	c7 44 24 1c 01 00 00 	movl   $0x1,0x1c(%esp)
    10bf:	00 
    10c0:	8d 4c 24 10          	lea    0x10(%esp),%ecx
    10c4:	e8 87 01 00 00       	call   1250 <_ZN4core9panicking18panic_nounwind_fmt17hebbe881a71c93670E>

000010c9 <_ZN4core9panicking18panic_bounds_check17h1db588f06ac7ac58E>:
    10c9:	53                   	push   %ebx
    10ca:	57                   	push   %edi
    10cb:	56                   	push   %esi
    10cc:	83 ec 30             	sub    $0x30,%esp
    10cf:	e8 00 00 00 00       	call   10d4 <_ZN4core9panicking18panic_bounds_check17h1db588f06ac7ac58E+0xb>
    10d4:	5b                   	pop    %ebx
    10d5:	81 c3 20 6f 00 00    	add    $0x6f20,%ebx
    10db:	89 e0                	mov    %esp,%eax
    10dd:	89 08                	mov    %ecx,(%eax)
    10df:	8d 4c 24 04          	lea    0x4(%esp),%ecx
    10e3:	c7 01 d0 07 00 00    	movl   $0x7d0,(%ecx)
    10e9:	8d 54 24 08          	lea    0x8(%esp),%edx
    10ed:	89 0a                	mov    %ecx,(%edx)
    10ef:	8d b3 6c c4 ff ff    	lea    -0x3b94(%ebx),%esi
    10f5:	89 72 04             	mov    %esi,0x4(%edx)
    10f8:	8d bb d0 fe ff ff    	lea    -0x130(%ebx),%edi
    10fe:	8d 4c 24 18          	lea    0x18(%esp),%ecx
    1102:	89 39                	mov    %edi,(%ecx)
    1104:	6a 02                	push   $0x2
    1106:	5f                   	pop    %edi
    1107:	89 79 04             	mov    %edi,0x4(%ecx)
    110a:	83 61 10 00          	andl   $0x0,0x10(%ecx)
    110e:	89 42 08             	mov    %eax,0x8(%edx)
    1111:	89 72 0c             	mov    %esi,0xc(%edx)
    1114:	89 51 08             	mov    %edx,0x8(%ecx)
    1117:	89 79 0c             	mov    %edi,0xc(%ecx)
    111a:	8d 93 78 fe ff ff    	lea    -0x188(%ebx),%edx
    1120:	e8 0b 00 00 00       	call   1130 <_ZN4core9panicking9panic_fmt17he08b1796856e5d1aE>
    1125:	66 90                	xchg   %ax,%ax
    1127:	66 90                	xchg   %ax,%ax
    1129:	66 90                	xchg   %ax,%ax
    112b:	66 90                	xchg   %ax,%ax
    112d:	66 90                	xchg   %ax,%ax
    112f:	90                   	nop

00001130 <_ZN4core9panicking9panic_fmt17he08b1796856e5d1aE>:
    1130:	53                   	push   %ebx
    1131:	83 ec 18             	sub    $0x18,%esp
    1134:	e8 00 00 00 00       	call   1139 <_ZN4core9panicking9panic_fmt17he08b1796856e5d1aE+0x9>
    1139:	5b                   	pop    %ebx
    113a:	81 c3 bb 6e 00 00    	add    $0x6ebb,%ebx
    1140:	89 4c 24 0c          	mov    %ecx,0xc(%esp)
    1144:	89 54 24 10          	mov    %edx,0x10(%esp)
    1148:	66 c7 44 24 14 01 00 	movw   $0x1,0x14(%esp)
    114f:	8d 4c 24 0c          	lea    0xc(%esp),%ecx
    1153:	e8 48 25 00 00       	call   36a0 <_RNvCs9xNfxAkRhBx_7___rustc17rust_begin_unwind>
    1158:	66 90                	xchg   %ax,%ax
    115a:	66 90                	xchg   %ax,%ax
    115c:	66 90                	xchg   %ax,%ax
    115e:	66 90                	xchg   %ax,%ax

00001160 <_ZN4core9panicking5panic17hdc0bb452f89252d5E>:
    1160:	53                   	push   %ebx
    1161:	83 ec 28             	sub    $0x28,%esp
    1164:	89 ca                	mov    %ecx,%edx
    1166:	e8 00 00 00 00       	call   116b <_ZN4core9panicking5panic17hdc0bb452f89252d5E+0xb>
    116b:	5b                   	pop    %ebx
    116c:	81 c3 89 6e 00 00    	add    $0x6e89,%ebx
    1172:	8d 83 3c e6 ff ff    	lea    -0x19c4(%ebx),%eax
    1178:	89 44 24 08          	mov    %eax,0x8(%esp)
    117c:	c7 44 24 0c 13 00 00 	movl   $0x13,0xc(%esp)
    1183:	00 
    1184:	8d 44 24 08          	lea    0x8(%esp),%eax
    1188:	89 44 24 10          	mov    %eax,0x10(%esp)
    118c:	c7 44 24 14 01 00 00 	movl   $0x1,0x14(%esp)
    1193:	00 
    1194:	c7 44 24 20 00 00 00 	movl   $0x0,0x20(%esp)
    119b:	00 
    119c:	c7 44 24 18 04 00 00 	movl   $0x4,0x18(%esp)
    11a3:	00 
    11a4:	c7 44 24 1c 00 00 00 	movl   $0x0,0x1c(%esp)
    11ab:	00 
    11ac:	8d 4c 24 10          	lea    0x10(%esp),%ecx
    11b0:	e8 7b ff ff ff       	call   1130 <_ZN4core9panicking9panic_fmt17he08b1796856e5d1aE>
    11b5:	66 90                	xchg   %ax,%ax
    11b7:	66 90                	xchg   %ax,%ax
    11b9:	66 90                	xchg   %ax,%ax
    11bb:	66 90                	xchg   %ax,%ax
    11bd:	66 90                	xchg   %ax,%ax
    11bf:	90                   	nop

000011c0 <_ZN4core6result13unwrap_failed17he01453759a0dabd3E>:
    11c0:	53                   	push   %ebx
    11c1:	57                   	push   %edi
    11c2:	56                   	push   %esi
    11c3:	83 ec 40             	sub    $0x40,%esp
    11c6:	89 d0                	mov    %edx,%eax
    11c8:	e8 00 00 00 00       	call   11cd <_ZN4core6result13unwrap_failed17he01453759a0dabd3E+0xd>
    11cd:	5b                   	pop    %ebx
    11ce:	81 c3 27 6e 00 00    	add    $0x6e27,%ebx
    11d4:	8b 54 24 58          	mov    0x58(%esp),%edx
    11d8:	8b 74 24 54          	mov    0x54(%esp),%esi
    11dc:	8b 7c 24 50          	mov    0x50(%esp),%edi
    11e0:	89 4c 24 08          	mov    %ecx,0x8(%esp)
    11e4:	89 44 24 0c          	mov    %eax,0xc(%esp)
    11e8:	89 7c 24 10          	mov    %edi,0x10(%esp)
    11ec:	89 74 24 14          	mov    %esi,0x14(%esp)
    11f0:	8d 44 24 08          	lea    0x8(%esp),%eax
    11f4:	89 44 24 18          	mov    %eax,0x18(%esp)
    11f8:	8d 83 fc cd ff ff    	lea    -0x3204(%ebx),%eax
    11fe:	89 44 24 1c          	mov    %eax,0x1c(%esp)
    1202:	8d 44 24 10          	lea    0x10(%esp),%eax
    1206:	89 44 24 20          	mov    %eax,0x20(%esp)
    120a:	8d 83 2c ce ff ff    	lea    -0x31d4(%ebx),%eax
    1210:	89 44 24 24          	mov    %eax,0x24(%esp)
    1214:	8d 83 e0 fe ff ff    	lea    -0x120(%ebx),%eax
    121a:	89 44 24 28          	mov    %eax,0x28(%esp)
    121e:	c7 44 24 2c 02 00 00 	movl   $0x2,0x2c(%esp)
    1225:	00 
    1226:	c7 44 24 38 00 00 00 	movl   $0x0,0x38(%esp)
    122d:	00 
    122e:	8d 44 24 18          	lea    0x18(%esp),%eax
    1232:	89 44 24 30          	mov    %eax,0x30(%esp)
    1236:	c7 44 24 34 02 00 00 	movl   $0x2,0x34(%esp)
    123d:	00 
    123e:	8d 4c 24 28          	lea    0x28(%esp),%ecx
    1242:	e8 e9 fe ff ff       	call   1130 <_ZN4core9panicking9panic_fmt17he08b1796856e5d1aE>
    1247:	66 90                	xchg   %ax,%ax
    1249:	66 90                	xchg   %ax,%ax
    124b:	66 90                	xchg   %ax,%ax
    124d:	66 90                	xchg   %ax,%ax
    124f:	90                   	nop

00001250 <_ZN4core9panicking18panic_nounwind_fmt17hebbe881a71c93670E>:
    1250:	53                   	push   %ebx
    1251:	83 ec 28             	sub    $0x28,%esp
    1254:	e8 00 00 00 00       	call   1259 <_ZN4core9panicking18panic_nounwind_fmt17hebbe881a71c93670E+0x9>
    1259:	5b                   	pop    %ebx
    125a:	81 c3 9b 6d 00 00    	add    $0x6d9b,%ebx
    1260:	8b 41 14             	mov    0x14(%ecx),%eax
    1263:	89 44 24 24          	mov    %eax,0x24(%esp)
    1267:	8b 41 10             	mov    0x10(%ecx),%eax
    126a:	89 44 24 20          	mov    %eax,0x20(%esp)
    126e:	8b 41 0c             	mov    0xc(%ecx),%eax
    1271:	89 44 24 1c          	mov    %eax,0x1c(%esp)
    1275:	8b 41 08             	mov    0x8(%ecx),%eax
    1278:	89 44 24 18          	mov    %eax,0x18(%esp)
    127c:	8b 01                	mov    (%ecx),%eax
    127e:	8b 49 04             	mov    0x4(%ecx),%ecx
    1281:	89 4c 24 14          	mov    %ecx,0x14(%esp)
    1285:	89 44 24 10          	mov    %eax,0x10(%esp)
    1289:	8d 44 24 10          	lea    0x10(%esp),%eax
    128d:	89 44 24 04          	mov    %eax,0x4(%esp)
    1291:	8d 83 48 fe ff ff    	lea    -0x1b8(%ebx),%eax
    1297:	89 44 24 08          	mov    %eax,0x8(%esp)
    129b:	66 c7 44 24 0c 00 00 	movw   $0x0,0xc(%esp)
    12a2:	8d 4c 24 04          	lea    0x4(%esp),%ecx
    12a6:	e8 f5 23 00 00       	call   36a0 <_RNvCs9xNfxAkRhBx_7___rustc17rust_begin_unwind>
    12ab:	66 90                	xchg   %ax,%ax
    12ad:	66 90                	xchg   %ax,%ax
    12af:	90                   	nop

000012b0 <_RNvCs9xNfxAkRhBx_7___rustc26___rust_alloc_error_handler>:
    12b0:	53                   	push   %ebx
    12b1:	83 ec 08             	sub    $0x8,%esp
    12b4:	e8 00 00 00 00       	call   12b9 <_RNvCs9xNfxAkRhBx_7___rustc26___rust_alloc_error_handler+0x9>
    12b9:	5b                   	pop    %ebx
    12ba:	81 c3 3b 6d 00 00    	add    $0x6d3b,%ebx
    12c0:	e8 ab fd ff ff       	call   1070 <_RNvCs9xNfxAkRhBx_7___rustc9___rdl_oom>
    12c5:	66 90                	xchg   %ax,%ax
    12c7:	66 90                	xchg   %ax,%ax
    12c9:	66 90                	xchg   %ax,%ax
    12cb:	66 90                	xchg   %ax,%ax
    12cd:	66 90                	xchg   %ax,%ax
    12cf:	90                   	nop

000012d0 <_ZN42_$LT$$RF$T$u20$as$u20$core..fmt..Debug$GT$3fmt17h0a55bb3fc6e7cb48E>:
    12d0:	55                   	push   %ebp
    12d1:	53                   	push   %ebx
    12d2:	57                   	push   %edi
    12d3:	56                   	push   %esi
    12d4:	83 ec 2c             	sub    $0x2c,%esp
    12d7:	e8 00 00 00 00       	call   12dc <_ZN42_$LT$$RF$T$u20$as$u20$core..fmt..Debug$GT$3fmt17h0a55bb3fc6e7cb48E+0xc>
    12dc:	5b                   	pop    %ebx
    12dd:	81 c3 18 6d 00 00    	add    $0x6d18,%ebx
    12e3:	8b 7c 24 44          	mov    0x44(%esp),%edi
    12e7:	8b 44 24 40          	mov    0x40(%esp),%eax
    12eb:	8b 00                	mov    (%eax),%eax
    12ed:	89 44 24 08          	mov    %eax,0x8(%esp)
    12f1:	8b 17                	mov    (%edi),%edx
    12f3:	8b 77 04             	mov    0x4(%edi),%esi
    12f6:	8b 4e 0c             	mov    0xc(%esi),%ecx
    12f9:	83 ec 04             	sub    $0x4,%esp
    12fc:	8d 83 33 e6 ff ff    	lea    -0x19cd(%ebx),%eax
    1302:	6a 09                	push   $0x9
    1304:	50                   	push   %eax
    1305:	89 d5                	mov    %edx,%ebp
    1307:	52                   	push   %edx
    1308:	89 4c 24 1c          	mov    %ecx,0x1c(%esp)
    130c:	ff d1                	call   *%ecx
    130e:	83 c4 10             	add    $0x10,%esp
    1311:	b1 01                	mov    $0x1,%cl
    1313:	84 c0                	test   %al,%al
    1315:	0f 85 e6 00 00 00    	jne    1401 <_ZN42_$LT$$RF$T$u20$as$u20$core..fmt..Debug$GT$3fmt17h0a55bb3fc6e7cb48E+0x131>
    131b:	f6 47 0a 80          	testb  $0x80,0xa(%edi)
    131f:	75 42                	jne    1363 <_ZN42_$LT$$RF$T$u20$as$u20$core..fmt..Debug$GT$3fmt17h0a55bb3fc6e7cb48E+0x93>
    1321:	83 ec 04             	sub    $0x4,%esp
    1324:	8d 83 ee eb ff ff    	lea    -0x1412(%ebx),%eax
    132a:	6a 01                	push   $0x1
    132c:	50                   	push   %eax
    132d:	55                   	push   %ebp
    132e:	ff 54 24 1c          	call   *0x1c(%esp)
    1332:	83 c4 10             	add    $0x10,%esp
    1335:	84 c0                	test   %al,%al
    1337:	0f 85 8c 00 00 00    	jne    13c9 <_ZN42_$LT$$RF$T$u20$as$u20$core..fmt..Debug$GT$3fmt17h0a55bb3fc6e7cb48E+0xf9>
    133d:	8b 4c 24 08          	mov    0x8(%esp),%ecx
    1341:	8b 74 24 44          	mov    0x44(%esp),%esi
    1345:	89 f2                	mov    %esi,%edx
    1347:	e8 f4 00 00 00       	call   1440 <_ZN42_$LT$$RF$T$u20$as$u20$core..fmt..Debug$GT$3fmt17h370a393ac022ab6dE>
    134c:	84 c0                	test   %al,%al
    134e:	b1 01                	mov    $0x1,%cl
    1350:	0f 85 ab 00 00 00    	jne    1401 <_ZN42_$LT$$RF$T$u20$as$u20$core..fmt..Debug$GT$3fmt17h0a55bb3fc6e7cb48E+0x131>
    1356:	8b 3e                	mov    (%esi),%edi
    1358:	8b 46 04             	mov    0x4(%esi),%eax
    135b:	8b 68 0c             	mov    0xc(%eax),%ebp
    135e:	e9 8a 00 00 00       	jmp    13ed <_ZN42_$LT$$RF$T$u20$as$u20$core..fmt..Debug$GT$3fmt17h0a55bb3fc6e7cb48E+0x11d>
    1363:	83 ec 04             	sub    $0x4,%esp
    1366:	8d 83 ef eb ff ff    	lea    -0x1411(%ebx),%eax
    136c:	6a 02                	push   $0x2
    136e:	50                   	push   %eax
    136f:	89 ef                	mov    %ebp,%edi
    1371:	55                   	push   %ebp
    1372:	8b 6c 24 1c          	mov    0x1c(%esp),%ebp
    1376:	ff d5                	call   *%ebp
    1378:	83 c4 10             	add    $0x10,%esp
    137b:	84 c0                	test   %al,%al
    137d:	75 4a                	jne    13c9 <_ZN42_$LT$$RF$T$u20$as$u20$core..fmt..Debug$GT$3fmt17h0a55bb3fc6e7cb48E+0xf9>
    137f:	c6 44 24 07 01       	movb   $0x1,0x7(%esp)
    1384:	89 7c 24 20          	mov    %edi,0x20(%esp)
    1388:	89 74 24 24          	mov    %esi,0x24(%esp)
    138c:	8d 44 24 07          	lea    0x7(%esp),%eax
    1390:	89 44 24 28          	mov    %eax,0x28(%esp)
    1394:	8b 4c 24 44          	mov    0x44(%esp),%ecx
    1398:	8b 41 08             	mov    0x8(%ecx),%eax
    139b:	8b 49 0c             	mov    0xc(%ecx),%ecx
    139e:	89 4c 24 1c          	mov    %ecx,0x1c(%esp)
    13a2:	89 44 24 18          	mov    %eax,0x18(%esp)
    13a6:	8d 44 24 20          	lea    0x20(%esp),%eax
    13aa:	89 44 24 10          	mov    %eax,0x10(%esp)
    13ae:	8d 83 f0 fe ff ff    	lea    -0x110(%ebx),%eax
    13b4:	89 44 24 14          	mov    %eax,0x14(%esp)
    13b8:	8d 54 24 10          	lea    0x10(%esp),%edx
    13bc:	8b 4c 24 08          	mov    0x8(%esp),%ecx
    13c0:	e8 7b 00 00 00       	call   1440 <_ZN42_$LT$$RF$T$u20$as$u20$core..fmt..Debug$GT$3fmt17h370a393ac022ab6dE>
    13c5:	84 c0                	test   %al,%al
    13c7:	74 04                	je     13cd <_ZN42_$LT$$RF$T$u20$as$u20$core..fmt..Debug$GT$3fmt17h0a55bb3fc6e7cb48E+0xfd>
    13c9:	b1 01                	mov    $0x1,%cl
    13cb:	eb 34                	jmp    1401 <_ZN42_$LT$$RF$T$u20$as$u20$core..fmt..Debug$GT$3fmt17h0a55bb3fc6e7cb48E+0x131>
    13cd:	8b 44 24 14          	mov    0x14(%esp),%eax
    13d1:	83 ec 04             	sub    $0x4,%esp
    13d4:	8d 8b e9 eb ff ff    	lea    -0x1417(%ebx),%ecx
    13da:	6a 02                	push   $0x2
    13dc:	51                   	push   %ecx
    13dd:	ff 74 24 1c          	push   0x1c(%esp)
    13e1:	ff 50 0c             	call   *0xc(%eax)
    13e4:	83 c4 10             	add    $0x10,%esp
    13e7:	84 c0                	test   %al,%al
    13e9:	b1 01                	mov    $0x1,%cl
    13eb:	75 14                	jne    1401 <_ZN42_$LT$$RF$T$u20$as$u20$core..fmt..Debug$GT$3fmt17h0a55bb3fc6e7cb48E+0x131>
    13ed:	83 ec 04             	sub    $0x4,%esp
    13f0:	8d 83 91 eb ff ff    	lea    -0x146f(%ebx),%eax
    13f6:	6a 01                	push   $0x1
    13f8:	50                   	push   %eax
    13f9:	57                   	push   %edi
    13fa:	ff d5                	call   *%ebp
    13fc:	83 c4 10             	add    $0x10,%esp
    13ff:	89 c1                	mov    %eax,%ecx
    1401:	89 c8                	mov    %ecx,%eax
    1403:	83 c4 2c             	add    $0x2c,%esp
    1406:	5e                   	pop    %esi
    1407:	5f                   	pop    %edi
    1408:	5b                   	pop    %ebx
    1409:	5d                   	pop    %ebp
    140a:	c3                   	ret
    140b:	66 90                	xchg   %ax,%ax
    140d:	66 90                	xchg   %ax,%ax
    140f:	90                   	nop

00001410 <_ZN42_$LT$$RF$T$u20$as$u20$core..fmt..Debug$GT$3fmt17h1c10eea8ba9fb618E>:
    1410:	53                   	push   %ebx
    1411:	83 ec 08             	sub    $0x8,%esp
    1414:	e8 00 00 00 00       	call   1419 <_ZN42_$LT$$RF$T$u20$as$u20$core..fmt..Debug$GT$3fmt17h1c10eea8ba9fb618E+0x9>
    1419:	5b                   	pop    %ebx
    141a:	81 c3 db 6b 00 00    	add    $0x6bdb,%ebx
    1420:	8b 44 24 10          	mov    0x10(%esp),%eax
    1424:	83 ec 08             	sub    $0x8,%esp
    1427:	ff 74 24 1c          	push   0x1c(%esp)
    142b:	ff 30                	push   (%eax)
    142d:	e8 ee 0e 00 00       	call   2320 <_ZN72_$LT$kernel_types..syscall..SyscallError$u20$as$u20$core..fmt..Debug$GT$3fmt17h51423209a3f15815E>
    1432:	83 c4 18             	add    $0x18,%esp
    1435:	5b                   	pop    %ebx
    1436:	c3                   	ret
    1437:	66 90                	xchg   %ax,%ax
    1439:	66 90                	xchg   %ax,%ax
    143b:	66 90                	xchg   %ax,%ax
    143d:	66 90                	xchg   %ax,%ax
    143f:	90                   	nop

00001440 <_ZN42_$LT$$RF$T$u20$as$u20$core..fmt..Debug$GT$3fmt17h370a393ac022ab6dE>:
    1440:	53                   	push   %ebx
    1441:	57                   	push   %edi
    1442:	56                   	push   %esi
    1443:	81 ec 80 00 00 00    	sub    $0x80,%esp
    1449:	e8 00 00 00 00       	call   144e <_ZN42_$LT$$RF$T$u20$as$u20$core..fmt..Debug$GT$3fmt17h370a393ac022ab6dE+0xe>
    144e:	5b                   	pop    %ebx
    144f:	81 c3 a6 6b 00 00    	add    $0x6ba6,%ebx
    1455:	8b 42 08             	mov    0x8(%edx),%eax
    1458:	a9 00 00 00 02       	test   $0x2000000,%eax
    145d:	75 1b                	jne    147a <_ZN42_$LT$$RF$T$u20$as$u20$core..fmt..Debug$GT$3fmt17h370a393ac022ab6dE+0x3a>
    145f:	a9 00 00 00 04       	test   $0x4000000,%eax
    1464:	75 51                	jne    14b7 <_ZN42_$LT$$RF$T$u20$as$u20$core..fmt..Debug$GT$3fmt17h370a393ac022ab6dE+0x77>
    1466:	83 ec 08             	sub    $0x8,%esp
    1469:	52                   	push   %edx
    146a:	51                   	push   %ecx
    146b:	e8 f0 2f 00 00       	call   4460 <_ZN4core3fmt3num3imp54_$LT$impl$u20$core..fmt..Display$u20$for$u20$usize$GT$3fmt17h10e52ed1ac19dcc3E>
    1470:	81 c4 90 00 00 00    	add    $0x90,%esp
    1476:	5e                   	pop    %esi
    1477:	5f                   	pop    %edi
    1478:	5b                   	pop    %ebx
    1479:	c3                   	ret
    147a:	8b 01                	mov    (%ecx),%eax
    147c:	b9 81 00 00 00       	mov    $0x81,%ecx
    1481:	eb 23                	jmp    14a6 <_ZN42_$LT$$RF$T$u20$as$u20$core..fmt..Debug$GT$3fmt17h370a393ac022ab6dE+0x66>
    1483:	90                   	nop
    1484:	90                   	nop
    1485:	90                   	nop
    1486:	90                   	nop
    1487:	90                   	nop
    1488:	90                   	nop
    1489:	90                   	nop
    148a:	90                   	nop
    148b:	90                   	nop
    148c:	90                   	nop
    148d:	90                   	nop
    148e:	90                   	nop
    148f:	90                   	nop
    1490:	80 c1 57             	add    $0x57,%cl
    1493:	89 c7                	mov    %eax,%edi
    1495:	c1 ef 04             	shr    $0x4,%edi
    1498:	88 4c 34 fe          	mov    %cl,-0x2(%esp,%esi,1)
    149c:	8d 4e ff             	lea    -0x1(%esi),%ecx
    149f:	83 f8 0f             	cmp    $0xf,%eax
    14a2:	89 f8                	mov    %edi,%eax
    14a4:	76 41                	jbe    14e7 <_ZN42_$LT$$RF$T$u20$as$u20$core..fmt..Debug$GT$3fmt17h370a393ac022ab6dE+0xa7>
    14a6:	89 ce                	mov    %ecx,%esi
    14a8:	89 c1                	mov    %eax,%ecx
    14aa:	80 e1 0f             	and    $0xf,%cl
    14ad:	80 f9 0a             	cmp    $0xa,%cl
    14b0:	73 de                	jae    1490 <_ZN42_$LT$$RF$T$u20$as$u20$core..fmt..Debug$GT$3fmt17h370a393ac022ab6dE+0x50>
    14b2:	80 c9 30             	or     $0x30,%cl
    14b5:	eb dc                	jmp    1493 <_ZN42_$LT$$RF$T$u20$as$u20$core..fmt..Debug$GT$3fmt17h370a393ac022ab6dE+0x53>
    14b7:	8b 01                	mov    (%ecx),%eax
    14b9:	b9 81 00 00 00       	mov    $0x81,%ecx
    14be:	eb 16                	jmp    14d6 <_ZN42_$LT$$RF$T$u20$as$u20$core..fmt..Debug$GT$3fmt17h370a393ac022ab6dE+0x96>
    14c0:	80 c1 37             	add    $0x37,%cl
    14c3:	89 c7                	mov    %eax,%edi
    14c5:	c1 ef 04             	shr    $0x4,%edi
    14c8:	88 4c 34 fe          	mov    %cl,-0x2(%esp,%esi,1)
    14cc:	8d 4e ff             	lea    -0x1(%esi),%ecx
    14cf:	83 f8 0f             	cmp    $0xf,%eax
    14d2:	89 f8                	mov    %edi,%eax
    14d4:	76 11                	jbe    14e7 <_ZN42_$LT$$RF$T$u20$as$u20$core..fmt..Debug$GT$3fmt17h370a393ac022ab6dE+0xa7>
    14d6:	89 ce                	mov    %ecx,%esi
    14d8:	89 c1                	mov    %eax,%ecx
    14da:	80 e1 0f             	and    $0xf,%cl
    14dd:	80 f9 0a             	cmp    $0xa,%cl
    14e0:	73 de                	jae    14c0 <_ZN42_$LT$$RF$T$u20$as$u20$core..fmt..Debug$GT$3fmt17h370a393ac022ab6dE+0x80>
    14e2:	80 c9 30             	or     $0x30,%cl
    14e5:	eb dc                	jmp    14c3 <_ZN42_$LT$$RF$T$u20$as$u20$core..fmt..Debug$GT$3fmt17h370a393ac022ab6dE+0x83>
    14e7:	83 c6 fe             	add    $0xfffffffe,%esi
    14ea:	8d 04 34             	lea    (%esp,%esi,1),%eax
    14ed:	be 81 00 00 00       	mov    $0x81,%esi
    14f2:	29 ce                	sub    %ecx,%esi
    14f4:	8d bb f1 eb ff ff    	lea    -0x140f(%ebx),%edi
    14fa:	89 d1                	mov    %edx,%ecx
    14fc:	ba 01 00 00 00       	mov    $0x1,%edx
    1501:	56                   	push   %esi
    1502:	50                   	push   %eax
    1503:	6a 02                	push   $0x2
    1505:	57                   	push   %edi
    1506:	e8 65 30 00 00       	call   4570 <_ZN4core3fmt9Formatter12pad_integral17h098dc4ffcfaf833fE>
    150b:	83 c4 10             	add    $0x10,%esp
    150e:	81 c4 80 00 00 00    	add    $0x80,%esp
    1514:	5e                   	pop    %esi
    1515:	5f                   	pop    %edi
    1516:	5b                   	pop    %ebx
    1517:	c3                   	ret
    1518:	66 90                	xchg   %ax,%ax
    151a:	66 90                	xchg   %ax,%ax
    151c:	66 90                	xchg   %ax,%ax
    151e:	66 90                	xchg   %ax,%ax

00001520 <_ZN44_$LT$$RF$T$u20$as$u20$core..fmt..Display$GT$3fmt17h67e6c3f5df774723E>:
    1520:	55                   	push   %ebp
    1521:	53                   	push   %ebx
    1522:	57                   	push   %edi
    1523:	56                   	push   %esi
    1524:	83 ec 3c             	sub    $0x3c,%esp
    1527:	e8 00 00 00 00       	call   152c <_ZN44_$LT$$RF$T$u20$as$u20$core..fmt..Display$GT$3fmt17h67e6c3f5df774723E+0xc>
    152c:	5b                   	pop    %ebx
    152d:	81 c3 c8 6a 00 00    	add    $0x6ac8,%ebx
    1533:	8b 44 24 54          	mov    0x54(%esp),%eax
    1537:	8b 4c 24 50          	mov    0x50(%esp),%ecx
    153b:	8b 09                	mov    (%ecx),%ecx
    153d:	8b 11                	mov    (%ecx),%edx
    153f:	89 54 24 1c          	mov    %edx,0x1c(%esp)
    1543:	8b 79 04             	mov    0x4(%ecx),%edi
    1546:	8b 28                	mov    (%eax),%ebp
    1548:	8b 70 04             	mov    0x4(%eax),%esi
    154b:	8b 4e 0c             	mov    0xc(%esi),%ecx
    154e:	83 ec 04             	sub    $0x4,%esp
    1551:	8d 83 93 eb ff ff    	lea    -0x146d(%ebx),%eax
    1557:	6a 0c                	push   $0xc
    1559:	50                   	push   %eax
    155a:	55                   	push   %ebp
    155b:	89 4c 24 30          	mov    %ecx,0x30(%esp)
    155f:	ff d1                	call   *%ecx
    1561:	83 c4 10             	add    $0x10,%esp
    1564:	b1 01                	mov    $0x1,%cl
    1566:	84 c0                	test   %al,%al
    1568:	0f 85 d0 00 00 00    	jne    163e <_ZN44_$LT$$RF$T$u20$as$u20$core..fmt..Display$GT$3fmt17h67e6c3f5df774723E+0x11e>
    156e:	8d 47 08             	lea    0x8(%edi),%eax
    1571:	89 7c 24 04          	mov    %edi,0x4(%esp)
    1575:	83 c7 0c             	add    $0xc,%edi
    1578:	8d 8b fc cd ff ff    	lea    -0x3204(%ebx),%ecx
    157e:	89 4c 24 08          	mov    %ecx,0x8(%esp)
    1582:	89 44 24 0c          	mov    %eax,0xc(%esp)
    1586:	8d 83 7c d0 ff ff    	lea    -0x2f84(%ebx),%eax
    158c:	89 44 24 10          	mov    %eax,0x10(%esp)
    1590:	89 7c 24 14          	mov    %edi,0x14(%esp)
    1594:	89 44 24 18          	mov    %eax,0x18(%esp)
    1598:	8d 83 b8 fe ff ff    	lea    -0x148(%ebx),%eax
    159e:	89 44 24 24          	mov    %eax,0x24(%esp)
    15a2:	c7 44 24 28 03 00 00 	movl   $0x3,0x28(%esp)
    15a9:	00 
    15aa:	c7 44 24 34 00 00 00 	movl   $0x0,0x34(%esp)
    15b1:	00 
    15b2:	8d 7c 24 04          	lea    0x4(%esp),%edi
    15b6:	89 7c 24 2c          	mov    %edi,0x2c(%esp)
    15ba:	c7 44 24 30 03 00 00 	movl   $0x3,0x30(%esp)
    15c1:	00 
    15c2:	83 ec 0c             	sub    $0xc,%esp
    15c5:	8d 44 24 30          	lea    0x30(%esp),%eax
    15c9:	89 e9                	mov    %ebp,%ecx
    15cb:	89 f2                	mov    %esi,%edx
    15cd:	50                   	push   %eax
    15ce:	e8 7d 38 00 00       	call   4e50 <_ZN4core3fmt5write17h60dc8996c7a95b44E>
    15d3:	83 c4 10             	add    $0x10,%esp
    15d6:	84 c0                	test   %al,%al
    15d8:	74 04                	je     15de <_ZN44_$LT$$RF$T$u20$as$u20$core..fmt..Display$GT$3fmt17h67e6c3f5df774723E+0xbe>
    15da:	b1 01                	mov    $0x1,%cl
    15dc:	eb 60                	jmp    163e <_ZN44_$LT$$RF$T$u20$as$u20$core..fmt..Display$GT$3fmt17h67e6c3f5df774723E+0x11e>
    15de:	83 ec 04             	sub    $0x4,%esp
    15e1:	8d 83 9f eb ff ff    	lea    -0x1461(%ebx),%eax
    15e7:	6a 02                	push   $0x2
    15e9:	50                   	push   %eax
    15ea:	55                   	push   %ebp
    15eb:	ff 54 24 30          	call   *0x30(%esp)
    15ef:	83 c4 10             	add    $0x10,%esp
    15f2:	84 c0                	test   %al,%al
    15f4:	b1 01                	mov    $0x1,%cl
    15f6:	75 46                	jne    163e <_ZN44_$LT$$RF$T$u20$as$u20$core..fmt..Display$GT$3fmt17h67e6c3f5df774723E+0x11e>
    15f8:	8b 54 24 1c          	mov    0x1c(%esp),%edx
    15fc:	8b 42 14             	mov    0x14(%edx),%eax
    15ff:	89 44 24 18          	mov    %eax,0x18(%esp)
    1603:	8b 42 10             	mov    0x10(%edx),%eax
    1606:	89 44 24 14          	mov    %eax,0x14(%esp)
    160a:	8b 42 0c             	mov    0xc(%edx),%eax
    160d:	89 44 24 10          	mov    %eax,0x10(%esp)
    1611:	8b 42 08             	mov    0x8(%edx),%eax
    1614:	89 44 24 0c          	mov    %eax,0xc(%esp)
    1618:	8b 0a                	mov    (%edx),%ecx
    161a:	8b 42 04             	mov    0x4(%edx),%eax
    161d:	89 44 24 08          	mov    %eax,0x8(%esp)
    1621:	89 4c 24 04          	mov    %ecx,0x4(%esp)
    1625:	83 f8 01             	cmp    $0x1,%eax
    1628:	74 02                	je     162c <_ZN44_$LT$$RF$T$u20$as$u20$core..fmt..Display$GT$3fmt17h67e6c3f5df774723E+0x10c>
    162a:	85 c0                	test   %eax,%eax
    162c:	83 ec 0c             	sub    $0xc,%esp
    162f:	89 e9                	mov    %ebp,%ecx
    1631:	89 f2                	mov    %esi,%edx
    1633:	57                   	push   %edi
    1634:	e8 17 38 00 00       	call   4e50 <_ZN4core3fmt5write17h60dc8996c7a95b44E>
    1639:	83 c4 10             	add    $0x10,%esp
    163c:	89 c1                	mov    %eax,%ecx
    163e:	89 c8                	mov    %ecx,%eax
    1640:	83 c4 3c             	add    $0x3c,%esp
    1643:	5e                   	pop    %esi
    1644:	5f                   	pop    %edi
    1645:	5b                   	pop    %ebx
    1646:	5d                   	pop    %ebp
    1647:	c3                   	ret
    1648:	66 90                	xchg   %ax,%ax
    164a:	66 90                	xchg   %ax,%ax
    164c:	66 90                	xchg   %ax,%ax
    164e:	66 90                	xchg   %ax,%ax

00001650 <_ZN44_$LT$$RF$T$u20$as$u20$core..fmt..Display$GT$3fmt17h744bf35b61fad11fE>:
    1650:	53                   	push   %ebx
    1651:	83 ec 08             	sub    $0x8,%esp
    1654:	e8 00 00 00 00       	call   1659 <_ZN44_$LT$$RF$T$u20$as$u20$core..fmt..Display$GT$3fmt17h744bf35b61fad11fE+0x9>
    1659:	5b                   	pop    %ebx
    165a:	81 c3 9b 69 00 00    	add    $0x699b,%ebx
    1660:	8b 44 24 14          	mov    0x14(%esp),%eax
    1664:	8b 48 04             	mov    0x4(%eax),%ecx
    1667:	83 ec 04             	sub    $0x4,%esp
    166a:	8d 93 aa e9 ff ff    	lea    -0x1656(%ebx),%edx
    1670:	6a 0d                	push   $0xd
    1672:	52                   	push   %edx
    1673:	ff 30                	push   (%eax)
    1675:	ff 51 0c             	call   *0xc(%ecx)
    1678:	83 c4 18             	add    $0x18,%esp
    167b:	5b                   	pop    %ebx
    167c:	c3                   	ret
    167d:	66 90                	xchg   %ax,%ax
    167f:	90                   	nop

00001680 <_ZN44_$LT$$RF$T$u20$as$u20$core..fmt..Display$GT$3fmt17h85bd4713be9ebf66E>:
    1680:	53                   	push   %ebx
    1681:	83 ec 08             	sub    $0x8,%esp
    1684:	e8 00 00 00 00       	call   1689 <_ZN44_$LT$$RF$T$u20$as$u20$core..fmt..Display$GT$3fmt17h85bd4713be9ebf66E+0x9>
    1689:	5b                   	pop    %ebx
    168a:	81 c3 6b 69 00 00    	add    $0x696b,%ebx
    1690:	8b 44 24 14          	mov    0x14(%esp),%eax
    1694:	8b 48 04             	mov    0x4(%eax),%ecx
    1697:	83 ec 04             	sub    $0x4,%esp
    169a:	8d 93 bb ec ff ff    	lea    -0x1345(%ebx),%edx
    16a0:	6a 18                	push   $0x18
    16a2:	52                   	push   %edx
    16a3:	ff 30                	push   (%eax)
    16a5:	ff 51 0c             	call   *0xc(%ecx)
    16a8:	83 c4 18             	add    $0x18,%esp
    16ab:	5b                   	pop    %ebx
    16ac:	c3                   	ret
    16ad:	66 90                	xchg   %ax,%ax
    16af:	90                   	nop

000016b0 <_ZN44_$LT$$RF$T$u20$as$u20$core..fmt..Display$GT$3fmt17h8ba23cf86a527b7cE>:
    16b0:	53                   	push   %ebx
    16b1:	83 ec 28             	sub    $0x28,%esp
    16b4:	e8 00 00 00 00       	call   16b9 <_ZN44_$LT$$RF$T$u20$as$u20$core..fmt..Display$GT$3fmt17h8ba23cf86a527b7cE+0x9>
    16b9:	5b                   	pop    %ebx
    16ba:	81 c3 3b 69 00 00    	add    $0x693b,%ebx
    16c0:	8b 44 24 34          	mov    0x34(%esp),%eax
    16c4:	8b 4c 24 30          	mov    0x30(%esp),%ecx
    16c8:	8b 09                	mov    (%ecx),%ecx
    16ca:	83 39 00             	cmpl   $0x0,(%ecx)
    16cd:	74 57                	je     1726 <_ZN44_$LT$$RF$T$u20$as$u20$core..fmt..Display$GT$3fmt17h8ba23cf86a527b7cE+0x76>
    16cf:	89 4c 24 04          	mov    %ecx,0x4(%esp)
    16d3:	8d 4c 24 04          	lea    0x4(%esp),%ecx
    16d7:	89 4c 24 08          	mov    %ecx,0x8(%esp)
    16db:	8d 8b 1c 94 ff ff    	lea    -0x6be4(%ebx),%ecx
    16e1:	89 4c 24 0c          	mov    %ecx,0xc(%esp)
    16e5:	8d 8b 10 fe ff ff    	lea    -0x1f0(%ebx),%ecx
    16eb:	89 4c 24 10          	mov    %ecx,0x10(%esp)
    16ef:	c7 44 24 14 01 00 00 	movl   $0x1,0x14(%esp)
    16f6:	00 
    16f7:	c7 44 24 20 00 00 00 	movl   $0x0,0x20(%esp)
    16fe:	00 
    16ff:	8d 4c 24 08          	lea    0x8(%esp),%ecx
    1703:	89 4c 24 18          	mov    %ecx,0x18(%esp)
    1707:	c7 44 24 1c 01 00 00 	movl   $0x1,0x1c(%esp)
    170e:	00 
    170f:	8b 08                	mov    (%eax),%ecx
    1711:	8b 50 04             	mov    0x4(%eax),%edx
    1714:	83 ec 0c             	sub    $0xc,%esp
    1717:	8d 44 24 1c          	lea    0x1c(%esp),%eax
    171b:	50                   	push   %eax
    171c:	e8 2f 37 00 00       	call   4e50 <_ZN4core3fmt5write17h60dc8996c7a95b44E>
    1721:	83 c4 38             	add    $0x38,%esp
    1724:	5b                   	pop    %ebx
    1725:	c3                   	ret
    1726:	8b 48 04             	mov    0x4(%eax),%ecx
    1729:	83 ec 04             	sub    $0x4,%esp
    172c:	8d 93 b7 e9 ff ff    	lea    -0x1649(%ebx),%edx
    1732:	6a 17                	push   $0x17
    1734:	52                   	push   %edx
    1735:	ff 30                	push   (%eax)
    1737:	ff 51 0c             	call   *0xc(%ecx)
    173a:	83 c4 38             	add    $0x38,%esp
    173d:	5b                   	pop    %ebx
    173e:	c3                   	ret
    173f:	90                   	nop

00001740 <_ZN44_$LT$$RF$T$u20$as$u20$core..fmt..Display$GT$3fmt17h9455cc26f8a63d55E>:
    1740:	53                   	push   %ebx
    1741:	56                   	push   %esi
    1742:	50                   	push   %eax
    1743:	e8 00 00 00 00       	call   1748 <_ZN44_$LT$$RF$T$u20$as$u20$core..fmt..Display$GT$3fmt17h9455cc26f8a63d55E+0x8>
    1748:	5b                   	pop    %ebx
    1749:	81 c3 ac 68 00 00    	add    $0x68ac,%ebx
    174f:	8b 44 24 14          	mov    0x14(%esp),%eax
    1753:	8b 4c 24 10          	mov    0x10(%esp),%ecx
    1757:	8b 31                	mov    (%ecx),%esi
    1759:	8b 08                	mov    (%eax),%ecx
    175b:	8b 50 04             	mov    0x4(%eax),%edx
    175e:	89 34 24             	mov    %esi,(%esp)
    1761:	e8 ea 36 00 00       	call   4e50 <_ZN4core3fmt5write17h60dc8996c7a95b44E>
    1766:	83 c4 04             	add    $0x4,%esp
    1769:	5e                   	pop    %esi
    176a:	5b                   	pop    %ebx
    176b:	c3                   	ret
    176c:	66 90                	xchg   %ax,%ax
    176e:	66 90                	xchg   %ax,%ax

00001770 <_ZN4core3fmt3num52_$LT$impl$u20$core..fmt..Debug$u20$for$u20$usize$GT$3fmt17hc3e369e9f8fef25cE>:
    1770:	53                   	push   %ebx
    1771:	57                   	push   %edi
    1772:	56                   	push   %esi
    1773:	81 ec 80 00 00 00    	sub    $0x80,%esp
    1779:	e8 00 00 00 00       	call   177e <_ZN4core3fmt3num52_$LT$impl$u20$core..fmt..Debug$u20$for$u20$usize$GT$3fmt17hc3e369e9f8fef25cE+0xe>
    177e:	5b                   	pop    %ebx
    177f:	81 c3 76 68 00 00    	add    $0x6876,%ebx
    1785:	8b 8c 24 94 00 00 00 	mov    0x94(%esp),%ecx
    178c:	8b 84 24 90 00 00 00 	mov    0x90(%esp),%eax
    1793:	8b 51 08             	mov    0x8(%ecx),%edx
    1796:	f7 c2 00 00 00 02    	test   $0x2000000,%edx
    179c:	75 16                	jne    17b4 <_ZN4core3fmt3num52_$LT$impl$u20$core..fmt..Debug$u20$for$u20$usize$GT$3fmt17hc3e369e9f8fef25cE+0x44>
    179e:	f7 c2 00 00 00 04    	test   $0x4000000,%edx
    17a4:	75 41                	jne    17e7 <_ZN4core3fmt3num52_$LT$impl$u20$core..fmt..Debug$u20$for$u20$usize$GT$3fmt17hc3e369e9f8fef25cE+0x77>
    17a6:	81 c4 80 00 00 00    	add    $0x80,%esp
    17ac:	5e                   	pop    %esi
    17ad:	5f                   	pop    %edi
    17ae:	5b                   	pop    %ebx
    17af:	e9 ac 2c 00 00       	jmp    4460 <_ZN4core3fmt3num3imp54_$LT$impl$u20$core..fmt..Display$u20$for$u20$usize$GT$3fmt17h10e52ed1ac19dcc3E>
    17b4:	8b 00                	mov    (%eax),%eax
    17b6:	ba 81 00 00 00       	mov    $0x81,%edx
    17bb:	eb 19                	jmp    17d6 <_ZN4core3fmt3num52_$LT$impl$u20$core..fmt..Debug$u20$for$u20$usize$GT$3fmt17hc3e369e9f8fef25cE+0x66>
    17bd:	90                   	nop
    17be:	90                   	nop
    17bf:	90                   	nop
    17c0:	80 c2 57             	add    $0x57,%dl
    17c3:	89 c7                	mov    %eax,%edi
    17c5:	c1 ef 04             	shr    $0x4,%edi
    17c8:	88 54 34 fe          	mov    %dl,-0x2(%esp,%esi,1)
    17cc:	8d 56 ff             	lea    -0x1(%esi),%edx
    17cf:	83 f8 0f             	cmp    $0xf,%eax
    17d2:	89 f8                	mov    %edi,%eax
    17d4:	76 41                	jbe    1817 <_ZN4core3fmt3num52_$LT$impl$u20$core..fmt..Debug$u20$for$u20$usize$GT$3fmt17hc3e369e9f8fef25cE+0xa7>
    17d6:	89 d6                	mov    %edx,%esi
    17d8:	89 c2                	mov    %eax,%edx
    17da:	80 e2 0f             	and    $0xf,%dl
    17dd:	80 fa 0a             	cmp    $0xa,%dl
    17e0:	73 de                	jae    17c0 <_ZN4core3fmt3num52_$LT$impl$u20$core..fmt..Debug$u20$for$u20$usize$GT$3fmt17hc3e369e9f8fef25cE+0x50>
    17e2:	80 ca 30             	or     $0x30,%dl
    17e5:	eb dc                	jmp    17c3 <_ZN4core3fmt3num52_$LT$impl$u20$core..fmt..Debug$u20$for$u20$usize$GT$3fmt17hc3e369e9f8fef25cE+0x53>
    17e7:	8b 00                	mov    (%eax),%eax
    17e9:	ba 81 00 00 00       	mov    $0x81,%edx
    17ee:	eb 16                	jmp    1806 <_ZN4core3fmt3num52_$LT$impl$u20$core..fmt..Debug$u20$for$u20$usize$GT$3fmt17hc3e369e9f8fef25cE+0x96>
    17f0:	80 c2 37             	add    $0x37,%dl
    17f3:	89 c7                	mov    %eax,%edi
    17f5:	c1 ef 04             	shr    $0x4,%edi
    17f8:	88 54 34 fe          	mov    %dl,-0x2(%esp,%esi,1)
    17fc:	8d 56 ff             	lea    -0x1(%esi),%edx
    17ff:	83 f8 0f             	cmp    $0xf,%eax
    1802:	89 f8                	mov    %edi,%eax
    1804:	76 11                	jbe    1817 <_ZN4core3fmt3num52_$LT$impl$u20$core..fmt..Debug$u20$for$u20$usize$GT$3fmt17hc3e369e9f8fef25cE+0xa7>
    1806:	89 d6                	mov    %edx,%esi
    1808:	89 c2                	mov    %eax,%edx
    180a:	80 e2 0f             	and    $0xf,%dl
    180d:	80 fa 0a             	cmp    $0xa,%dl
    1810:	73 de                	jae    17f0 <_ZN4core3fmt3num52_$LT$impl$u20$core..fmt..Debug$u20$for$u20$usize$GT$3fmt17hc3e369e9f8fef25cE+0x80>
    1812:	80 ca 30             	or     $0x30,%dl
    1815:	eb dc                	jmp    17f3 <_ZN4core3fmt3num52_$LT$impl$u20$core..fmt..Debug$u20$for$u20$usize$GT$3fmt17hc3e369e9f8fef25cE+0x83>
    1817:	83 c6 fe             	add    $0xfffffffe,%esi
    181a:	8d 04 34             	lea    (%esp,%esi,1),%eax
    181d:	be 81 00 00 00       	mov    $0x81,%esi
    1822:	29 d6                	sub    %edx,%esi
    1824:	8d bb f1 eb ff ff    	lea    -0x140f(%ebx),%edi
    182a:	ba 01 00 00 00       	mov    $0x1,%edx
    182f:	56                   	push   %esi
    1830:	50                   	push   %eax
    1831:	6a 02                	push   $0x2
    1833:	57                   	push   %edi
    1834:	e8 37 2d 00 00       	call   4570 <_ZN4core3fmt9Formatter12pad_integral17h098dc4ffcfaf833fE>
    1839:	83 c4 10             	add    $0x10,%esp
    183c:	81 c4 80 00 00 00    	add    $0x80,%esp
    1842:	5e                   	pop    %esi
    1843:	5f                   	pop    %edi
    1844:	5b                   	pop    %ebx
    1845:	c3                   	ret
    1846:	66 90                	xchg   %ax,%ax
    1848:	66 90                	xchg   %ax,%ax
    184a:	66 90                	xchg   %ax,%ax
    184c:	66 90                	xchg   %ax,%ax
    184e:	66 90                	xchg   %ax,%ax

00001850 <_ZN4core3fmt5Write10write_char17h87b203a6199c2fc3E>:
    1850:	53                   	push   %ebx
    1851:	57                   	push   %edi
    1852:	56                   	push   %esi
    1853:	83 ec 10             	sub    $0x10,%esp
    1856:	e8 00 00 00 00       	call   185b <_ZN4core3fmt5Write10write_char17h87b203a6199c2fc3E+0xb>
    185b:	5b                   	pop    %ebx
    185c:	81 c3 99 67 00 00    	add    $0x6799,%ebx
    1862:	8b 44 24 24          	mov    0x24(%esp),%eax
    1866:	8b 74 24 20          	mov    0x20(%esp),%esi
    186a:	c7 44 24 0c 00 00 00 	movl   $0x0,0xc(%esp)
    1871:	00 
    1872:	3d 80 00 00 00       	cmp    $0x80,%eax
    1877:	73 1f                	jae    1898 <_ZN4core3fmt5Write10write_char17h87b203a6199c2fc3E+0x48>
    1879:	88 44 24 0c          	mov    %al,0xc(%esp)
    187d:	b8 01 00 00 00       	mov    $0x1,%eax
    1882:	8b 0e                	mov    (%esi),%ecx
    1884:	8d 3c 01             	lea    (%ecx,%eax,1),%edi
    1887:	81 ff ff 00 00 00    	cmp    $0xff,%edi
    188d:	0f 86 b9 00 00 00    	jbe    194c <_ZN4core3fmt5Write10write_char17h87b203a6199c2fc3E+0xfc>
    1893:	e9 cd 00 00 00       	jmp    1965 <_ZN4core3fmt5Write10write_char17h87b203a6199c2fc3E+0x115>
    1898:	89 c1                	mov    %eax,%ecx
    189a:	3d 00 08 00 00       	cmp    $0x800,%eax
    189f:	73 2d                	jae    18ce <_ZN4core3fmt5Write10write_char17h87b203a6199c2fc3E+0x7e>
    18a1:	c1 e9 06             	shr    $0x6,%ecx
    18a4:	80 c9 c0             	or     $0xc0,%cl
    18a7:	88 4c 24 0c          	mov    %cl,0xc(%esp)
    18ab:	24 3f                	and    $0x3f,%al
    18ad:	0c 80                	or     $0x80,%al
    18af:	88 44 24 0d          	mov    %al,0xd(%esp)
    18b3:	b8 02 00 00 00       	mov    $0x2,%eax
    18b8:	8b 0e                	mov    (%esi),%ecx
    18ba:	8d 3c 01             	lea    (%ecx,%eax,1),%edi
    18bd:	81 ff ff 00 00 00    	cmp    $0xff,%edi
    18c3:	0f 86 83 00 00 00    	jbe    194c <_ZN4core3fmt5Write10write_char17h87b203a6199c2fc3E+0xfc>
    18c9:	e9 97 00 00 00       	jmp    1965 <_ZN4core3fmt5Write10write_char17h87b203a6199c2fc3E+0x115>
    18ce:	3d 00 00 01 00       	cmp    $0x10000,%eax
    18d3:	73 35                	jae    190a <_ZN4core3fmt5Write10write_char17h87b203a6199c2fc3E+0xba>
    18d5:	c1 e9 0c             	shr    $0xc,%ecx
    18d8:	80 c9 e0             	or     $0xe0,%cl
    18db:	88 4c 24 0c          	mov    %cl,0xc(%esp)
    18df:	89 c1                	mov    %eax,%ecx
    18e1:	c1 e9 06             	shr    $0x6,%ecx
    18e4:	80 e1 3f             	and    $0x3f,%cl
    18e7:	80 c9 80             	or     $0x80,%cl
    18ea:	88 4c 24 0d          	mov    %cl,0xd(%esp)
    18ee:	24 3f                	and    $0x3f,%al
    18f0:	0c 80                	or     $0x80,%al
    18f2:	88 44 24 0e          	mov    %al,0xe(%esp)
    18f6:	b8 03 00 00 00       	mov    $0x3,%eax
    18fb:	8b 0e                	mov    (%esi),%ecx
    18fd:	8d 3c 01             	lea    (%ecx,%eax,1),%edi
    1900:	81 ff ff 00 00 00    	cmp    $0xff,%edi
    1906:	76 44                	jbe    194c <_ZN4core3fmt5Write10write_char17h87b203a6199c2fc3E+0xfc>
    1908:	eb 5b                	jmp    1965 <_ZN4core3fmt5Write10write_char17h87b203a6199c2fc3E+0x115>
    190a:	c1 e9 12             	shr    $0x12,%ecx
    190d:	80 c9 f0             	or     $0xf0,%cl
    1910:	88 4c 24 0c          	mov    %cl,0xc(%esp)
    1914:	89 c1                	mov    %eax,%ecx
    1916:	c1 e9 0c             	shr    $0xc,%ecx
    1919:	80 e1 3f             	and    $0x3f,%cl
    191c:	80 c9 80             	or     $0x80,%cl
    191f:	88 4c 24 0d          	mov    %cl,0xd(%esp)
    1923:	89 c1                	mov    %eax,%ecx
    1925:	c1 e9 06             	shr    $0x6,%ecx
    1928:	80 e1 3f             	and    $0x3f,%cl
    192b:	80 c9 80             	or     $0x80,%cl
    192e:	88 4c 24 0e          	mov    %cl,0xe(%esp)
    1932:	24 3f                	and    $0x3f,%al
    1934:	0c 80                	or     $0x80,%al
    1936:	88 44 24 0f          	mov    %al,0xf(%esp)
    193a:	b8 04 00 00 00       	mov    $0x4,%eax
    193f:	8b 0e                	mov    (%esi),%ecx
    1941:	8d 3c 01             	lea    (%ecx,%eax,1),%edi
    1944:	81 ff ff 00 00 00    	cmp    $0xff,%edi
    194a:	77 19                	ja     1965 <_ZN4core3fmt5Write10write_char17h87b203a6199c2fc3E+0x115>
    194c:	01 f1                	add    %esi,%ecx
    194e:	83 c1 04             	add    $0x4,%ecx
    1951:	83 ec 04             	sub    $0x4,%esp
    1954:	8d 54 24 10          	lea    0x10(%esp),%edx
    1958:	50                   	push   %eax
    1959:	52                   	push   %edx
    195a:	51                   	push   %ecx
    195b:	e8 10 41 00 00       	call   5a70 <memcpy>
    1960:	83 c4 10             	add    $0x10,%esp
    1963:	89 3e                	mov    %edi,(%esi)
    1965:	81 ff 00 01 00 00    	cmp    $0x100,%edi
    196b:	0f 93 c0             	setae  %al
    196e:	83 c4 10             	add    $0x10,%esp
    1971:	5e                   	pop    %esi
    1972:	5f                   	pop    %edi
    1973:	5b                   	pop    %ebx
    1974:	c3                   	ret
    1975:	66 90                	xchg   %ax,%ax
    1977:	66 90                	xchg   %ax,%ax
    1979:	66 90                	xchg   %ax,%ax
    197b:	66 90                	xchg   %ax,%ax
    197d:	66 90                	xchg   %ax,%ax
    197f:	90                   	nop

00001980 <_ZN4core3fmt5Write9write_fmt17h9d31c027b237edafE>:
    1980:	53                   	push   %ebx
    1981:	83 ec 08             	sub    $0x8,%esp
    1984:	e8 00 00 00 00       	call   1989 <_ZN4core3fmt5Write9write_fmt17h9d31c027b237edafE+0x9>
    1989:	5b                   	pop    %ebx
    198a:	81 c3 6b 66 00 00    	add    $0x666b,%ebx
    1990:	8b 44 24 14          	mov    0x14(%esp),%eax
    1994:	8b 4c 24 10          	mov    0x10(%esp),%ecx
    1998:	8b 50 04             	mov    0x4(%eax),%edx
    199b:	83 fa 01             	cmp    $0x1,%edx
    199e:	74 02                	je     19a2 <_ZN4core3fmt5Write9write_fmt17h9d31c027b237edafE+0x22>
    19a0:	85 d2                	test   %edx,%edx
    19a2:	89 04 24             	mov    %eax,(%esp)
    19a5:	8d 93 30 fd ff ff    	lea    -0x2d0(%ebx),%edx
    19ab:	e8 a0 34 00 00       	call   4e50 <_ZN4core3fmt5write17h60dc8996c7a95b44E>
    19b0:	83 c4 08             	add    $0x8,%esp
    19b3:	5b                   	pop    %ebx
    19b4:	c3                   	ret
    19b5:	66 90                	xchg   %ax,%ax
    19b7:	66 90                	xchg   %ax,%ax
    19b9:	66 90                	xchg   %ax,%ax
    19bb:	66 90                	xchg   %ax,%ax
    19bd:	66 90                	xchg   %ax,%ax
    19bf:	90                   	nop

000019c0 <_ZN4core3ptr56drop_in_place$LT$kernel_lib..logging..BufferedLogger$GT$17hb439f433930cd200E>:
    19c0:	c3                   	ret
    19c1:	66 90                	xchg   %ax,%ax
    19c3:	66 90                	xchg   %ax,%ax
    19c5:	66 90                	xchg   %ax,%ax
    19c7:	66 90                	xchg   %ax,%ax
    19c9:	66 90                	xchg   %ax,%ax
    19cb:	66 90                	xchg   %ax,%ax
    19cd:	66 90                	xchg   %ax,%ax
    19cf:	90                   	nop

000019d0 <_ZN4talc4talc13Talc$LT$O$GT$6malloc17hfb0da288b1d6f9eaE>:
    19d0:	55                   	push   %ebp
    19d1:	53                   	push   %ebx
    19d2:	57                   	push   %edi
    19d3:	56                   	push   %esi
    19d4:	83 ec 4c             	sub    $0x4c,%esp
    19d7:	e8 00 00 00 00       	call   19dc <_ZN4talc4talc13Talc$LT$O$GT$6malloc17hfb0da288b1d6f9eaE+0xc>
    19dc:	5d                   	pop    %ebp
    19dd:	81 c5 18 66 00 00    	add    $0x6618,%ebp
    19e3:	bf 0c 00 00 00       	mov    $0xc,%edi
    19e8:	89 54 24 20          	mov    %edx,0x20(%esp)
    19ec:	83 fa 09             	cmp    $0x9,%edx
    19ef:	72 0a                	jb     19fb <_ZN4talc4talc13Talc$LT$O$GT$6malloc17hfb0da288b1d6f9eaE+0x2b>
    19f1:	8b 44 24 20          	mov    0x20(%esp),%eax
    19f5:	8d 78 07             	lea    0x7(%eax),%edi
    19f8:	83 e7 fc             	and    $0xfffffffc,%edi
    19fb:	0f bd c7             	bsr    %edi,%eax
    19fe:	83 f0 1f             	xor    $0x1f,%eax
    1a01:	b1 1e                	mov    $0x1e,%cl
    1a03:	28 c1                	sub    %al,%cl
    1a05:	89 fa                	mov    %edi,%edx
    1a07:	d3 ea                	shr    %cl,%edx
    1a09:	01 c0                	add    %eax,%eax
    1a0b:	29 c2                	sub    %eax,%edx
    1a0d:	83 c2 43             	add    $0x43,%edx
    1a10:	83 fa 3f             	cmp    $0x3f,%edx
    1a13:	72 05                	jb     1a1a <_ZN4talc4talc13Talc$LT$O$GT$6malloc17hfb0da288b1d6f9eaE+0x4a>
    1a15:	ba 3f 00 00 00       	mov    $0x3f,%edx
    1a1a:	89 f9                	mov    %edi,%ecx
    1a1c:	83 e1 c0             	and    $0xffffffc0,%ecx
    1a1f:	83 ff 40             	cmp    $0x40,%edi
    1a22:	73 06                	jae    1a2a <_ZN4talc4talc13Talc$LT$O$GT$6malloc17hfb0da288b1d6f9eaE+0x5a>
    1a24:	8d 57 f4             	lea    -0xc(%edi),%edx
    1a27:	c1 ea 02             	shr    $0x2,%edx
    1a2a:	83 fa 20             	cmp    $0x20,%edx
    1a2d:	0f 92 c0             	setb   %al
    1a30:	83 f9 40             	cmp    $0x40,%ecx
    1a33:	0f 94 c1             	sete   %cl
    1a36:	74 06                	je     1a3e <_ZN4talc4talc13Talc$LT$O$GT$6malloc17hfb0da288b1d6f9eaE+0x6e>
    1a38:	89 54 24 18          	mov    %edx,0x18(%esp)
    1a3c:	eb 0c                	jmp    1a4a <_ZN4talc4talc13Talc$LT$O$GT$6malloc17hfb0da288b1d6f9eaE+0x7a>
    1a3e:	89 fe                	mov    %edi,%esi
    1a40:	c1 ee 03             	shr    $0x3,%esi
    1a43:	83 c6 05             	add    $0x5,%esi
    1a46:	89 74 24 18          	mov    %esi,0x18(%esp)
    1a4a:	89 d6                	mov    %edx,%esi
    1a4c:	83 e6 1f             	and    $0x1f,%esi
    1a4f:	89 74 24 30          	mov    %esi,0x30(%esp)
    1a53:	08 c1                	or     %al,%cl
    1a55:	89 6c 24 10          	mov    %ebp,0x10(%esp)
    1a59:	89 54 24 1c          	mov    %edx,0x1c(%esp)
    1a5d:	88 4c 24 0b          	mov    %cl,0xb(%esp)
    1a61:	84 c9                	test   %cl,%cl
    1a63:	74 3b                	je     1aa0 <_ZN4talc4talc13Talc$LT$O$GT$6malloc17hfb0da288b1d6f9eaE+0xd0>
    1a65:	8b 85 18 00 00 00    	mov    0x18(%ebp),%eax
    1a6b:	89 44 24 0c          	mov    %eax,0xc(%esp)
    1a6f:	8b 54 24 18          	mov    0x18(%esp),%edx
    1a73:	89 d1                	mov    %edx,%ecx
    1a75:	d3 e8                	shr    %cl,%eax
    1a77:	85 c0                	test   %eax,%eax
    1a79:	74 75                	je     1af0 <_ZN4talc4talc13Talc$LT$O$GT$6malloc17hfb0da288b1d6f9eaE+0x120>
    1a7b:	f3 0f bc c8          	tzcnt  %eax,%ecx
    1a7f:	01 d1                	add    %edx,%ecx
    1a81:	8b 95 1c 00 00 00    	mov    0x1c(%ebp),%edx
    1a87:	8b ad 20 00 00 00    	mov    0x20(%ebp),%ebp
    1a8d:	85 d2                	test   %edx,%edx
    1a8f:	75 4e                	jne    1adf <_ZN4talc4talc13Talc$LT$O$GT$6malloc17hfb0da288b1d6f9eaE+0x10f>
    1a91:	e9 02 01 00 00       	jmp    1b98 <_ZN4talc4talc13Talc$LT$O$GT$6malloc17hfb0da288b1d6f9eaE+0x1c8>
    1a96:	90                   	nop
    1a97:	90                   	nop
    1a98:	90                   	nop
    1a99:	90                   	nop
    1a9a:	90                   	nop
    1a9b:	90                   	nop
    1a9c:	90                   	nop
    1a9d:	90                   	nop
    1a9e:	90                   	nop
    1a9f:	90                   	nop
    1aa0:	83 fa 3f             	cmp    $0x3f,%edx
    1aa3:	0f 87 37 01 00 00    	ja     1be0 <_ZN4talc4talc13Talc$LT$O$GT$6malloc17hfb0da288b1d6f9eaE+0x210>
    1aa9:	8b 95 1c 00 00 00    	mov    0x1c(%ebp),%edx
    1aaf:	89 d0                	mov    %edx,%eax
    1ab1:	8b 4c 24 30          	mov    0x30(%esp),%ecx
    1ab5:	d3 e8                	shr    %cl,%eax
    1ab7:	85 c0                	test   %eax,%eax
    1ab9:	0f 84 21 01 00 00    	je     1be0 <_ZN4talc4talc13Talc$LT$O$GT$6malloc17hfb0da288b1d6f9eaE+0x210>
    1abf:	f3 0f bc c8          	tzcnt  %eax,%ecx
    1ac3:	03 4c 24 1c          	add    0x1c(%esp),%ecx
    1ac7:	8b 85 18 00 00 00    	mov    0x18(%ebp),%eax
    1acd:	89 44 24 0c          	mov    %eax,0xc(%esp)
    1ad1:	8b ad 20 00 00 00    	mov    0x20(%ebp),%ebp
    1ad7:	85 d2                	test   %edx,%edx
    1ad9:	0f 84 b9 00 00 00    	je     1b98 <_ZN4talc4talc13Talc$LT$O$GT$6malloc17hfb0da288b1d6f9eaE+0x1c8>
    1adf:	f3 0f bc c2          	tzcnt  %edx,%eax
    1ae3:	83 c8 20             	or     $0x20,%eax
    1ae6:	89 44 24 14          	mov    %eax,0x14(%esp)
    1aea:	eb 24                	jmp    1b10 <_ZN4talc4talc13Talc$LT$O$GT$6malloc17hfb0da288b1d6f9eaE+0x140>
    1aec:	90                   	nop
    1aed:	90                   	nop
    1aee:	90                   	nop
    1aef:	90                   	nop
    1af0:	8b 95 1c 00 00 00    	mov    0x1c(%ebp),%edx
    1af6:	85 d2                	test   %edx,%edx
    1af8:	0f 84 e2 00 00 00    	je     1be0 <_ZN4talc4talc13Talc$LT$O$GT$6malloc17hfb0da288b1d6f9eaE+0x210>
    1afe:	f3 0f bc ca          	tzcnt  %edx,%ecx
    1b02:	83 c9 20             	or     $0x20,%ecx
    1b05:	8b ad 20 00 00 00    	mov    0x20(%ebp),%ebp
    1b0b:	89 4c 24 14          	mov    %ecx,0x14(%esp)
    1b0f:	90                   	nop
    1b10:	89 eb                	mov    %ebp,%ebx
    1b12:	8d 6c 8d 00          	lea    0x0(%ebp,%ecx,4),%ebp
    1b16:	89 e8                	mov    %ebp,%eax
    1b18:	90                   	nop
    1b19:	90                   	nop
    1b1a:	90                   	nop
    1b1b:	90                   	nop
    1b1c:	90                   	nop
    1b1d:	90                   	nop
    1b1e:	90                   	nop
    1b1f:	90                   	nop
    1b20:	8b 00                	mov    (%eax),%eax
    1b22:	85 c0                	test   %eax,%eax
    1b24:	74 1a                	je     1b40 <_ZN4talc4talc13Talc$LT$O$GT$6malloc17hfb0da288b1d6f9eaE+0x170>
    1b26:	8b 70 08             	mov    0x8(%eax),%esi
    1b29:	39 fe                	cmp    %edi,%esi
    1b2b:	72 f3                	jb     1b20 <_ZN4talc4talc13Talc$LT$O$GT$6malloc17hfb0da288b1d6f9eaE+0x150>
    1b2d:	e9 5f 03 00 00       	jmp    1e91 <_ZN4talc4talc13Talc$LT$O$GT$6malloc17hfb0da288b1d6f9eaE+0x4c1>
    1b32:	90                   	nop
    1b33:	90                   	nop
    1b34:	90                   	nop
    1b35:	90                   	nop
    1b36:	90                   	nop
    1b37:	90                   	nop
    1b38:	90                   	nop
    1b39:	90                   	nop
    1b3a:	90                   	nop
    1b3b:	90                   	nop
    1b3c:	90                   	nop
    1b3d:	90                   	nop
    1b3e:	90                   	nop
    1b3f:	90                   	nop
    1b40:	8d 41 01             	lea    0x1(%ecx),%eax
    1b43:	83 f9 1f             	cmp    $0x1f,%ecx
    1b46:	73 28                	jae    1b70 <_ZN4talc4talc13Talc$LT$O$GT$6malloc17hfb0da288b1d6f9eaE+0x1a0>
    1b48:	8b 74 24 0c          	mov    0xc(%esp),%esi
    1b4c:	89 c1                	mov    %eax,%ecx
    1b4e:	d3 ee                	shr    %cl,%esi
    1b50:	8b 4c 24 14          	mov    0x14(%esp),%ecx
    1b54:	85 f6                	test   %esi,%esi
    1b56:	89 dd                	mov    %ebx,%ebp
    1b58:	74 b6                	je     1b10 <_ZN4talc4talc13Talc$LT$O$GT$6malloc17hfb0da288b1d6f9eaE+0x140>
    1b5a:	f3 0f bc ce          	tzcnt  %esi,%ecx
    1b5e:	01 c1                	add    %eax,%ecx
    1b60:	eb ae                	jmp    1b10 <_ZN4talc4talc13Talc$LT$O$GT$6malloc17hfb0da288b1d6f9eaE+0x140>
    1b62:	90                   	nop
    1b63:	90                   	nop
    1b64:	90                   	nop
    1b65:	90                   	nop
    1b66:	90                   	nop
    1b67:	90                   	nop
    1b68:	90                   	nop
    1b69:	90                   	nop
    1b6a:	90                   	nop
    1b6b:	90                   	nop
    1b6c:	90                   	nop
    1b6d:	90                   	nop
    1b6e:	90                   	nop
    1b6f:	90                   	nop
    1b70:	83 f9 3e             	cmp    $0x3e,%ecx
    1b73:	8b 6c 24 10          	mov    0x10(%esp),%ebp
    1b77:	77 67                	ja     1be0 <_ZN4talc4talc13Talc$LT$O$GT$6malloc17hfb0da288b1d6f9eaE+0x210>
    1b79:	89 d6                	mov    %edx,%esi
    1b7b:	89 c1                	mov    %eax,%ecx
    1b7d:	d3 ee                	shr    %cl,%esi
    1b7f:	85 f6                	test   %esi,%esi
    1b81:	74 5d                	je     1be0 <_ZN4talc4talc13Talc$LT$O$GT$6malloc17hfb0da288b1d6f9eaE+0x210>
    1b83:	f3 0f bc ce          	tzcnt  %esi,%ecx
    1b87:	01 c1                	add    %eax,%ecx
    1b89:	89 dd                	mov    %ebx,%ebp
    1b8b:	eb 83                	jmp    1b10 <_ZN4talc4talc13Talc$LT$O$GT$6malloc17hfb0da288b1d6f9eaE+0x140>
    1b8d:	90                   	nop
    1b8e:	90                   	nop
    1b8f:	90                   	nop
    1b90:	f3 0f bc c0          	tzcnt  %eax,%eax
    1b94:	01 c1                	add    %eax,%ecx
    1b96:	89 d5                	mov    %edx,%ebp
    1b98:	89 ea                	mov    %ebp,%edx
    1b9a:	8d 6c 8d 00          	lea    0x0(%ebp,%ecx,4),%ebp
    1b9e:	89 e8                	mov    %ebp,%eax
    1ba0:	8b 00                	mov    (%eax),%eax
    1ba2:	85 c0                	test   %eax,%eax
    1ba4:	74 1a                	je     1bc0 <_ZN4talc4talc13Talc$LT$O$GT$6malloc17hfb0da288b1d6f9eaE+0x1f0>
    1ba6:	8b 70 08             	mov    0x8(%eax),%esi
    1ba9:	39 fe                	cmp    %edi,%esi
    1bab:	72 f3                	jb     1ba0 <_ZN4talc4talc13Talc$LT$O$GT$6malloc17hfb0da288b1d6f9eaE+0x1d0>
    1bad:	e9 df 02 00 00       	jmp    1e91 <_ZN4talc4talc13Talc$LT$O$GT$6malloc17hfb0da288b1d6f9eaE+0x4c1>
    1bb2:	90                   	nop
    1bb3:	90                   	nop
    1bb4:	90                   	nop
    1bb5:	90                   	nop
    1bb6:	90                   	nop
    1bb7:	90                   	nop
    1bb8:	90                   	nop
    1bb9:	90                   	nop
    1bba:	90                   	nop
    1bbb:	90                   	nop
    1bbc:	90                   	nop
    1bbd:	90                   	nop
    1bbe:	90                   	nop
    1bbf:	90                   	nop
    1bc0:	83 f9 1e             	cmp    $0x1e,%ecx
    1bc3:	8b 6c 24 10          	mov    0x10(%esp),%ebp
    1bc7:	77 17                	ja     1be0 <_ZN4talc4talc13Talc$LT$O$GT$6malloc17hfb0da288b1d6f9eaE+0x210>
    1bc9:	41                   	inc    %ecx
    1bca:	8b 44 24 0c          	mov    0xc(%esp),%eax
    1bce:	d3 e8                	shr    %cl,%eax
    1bd0:	85 c0                	test   %eax,%eax
    1bd2:	75 bc                	jne    1b90 <_ZN4talc4talc13Talc$LT$O$GT$6malloc17hfb0da288b1d6f9eaE+0x1c0>
    1bd4:	90                   	nop
    1bd5:	90                   	nop
    1bd6:	90                   	nop
    1bd7:	90                   	nop
    1bd8:	90                   	nop
    1bd9:	90                   	nop
    1bda:	90                   	nop
    1bdb:	90                   	nop
    1bdc:	90                   	nop
    1bdd:	90                   	nop
    1bde:	90                   	nop
    1bdf:	90                   	nop
    1be0:	8b b5 10 00 00 00    	mov    0x10(%ebp),%esi
    1be6:	8b ad 14 00 00 00    	mov    0x14(%ebp),%ebp
    1bec:	31 c0                	xor    %eax,%eax
    1bee:	39 f5                	cmp    %esi,%ebp
    1bf0:	0f 86 98 04 00 00    	jbe    208e <_ZN4talc4talc13Talc$LT$O$GT$6malloc17hfb0da288b1d6f9eaE+0x6be>
    1bf6:	85 f6                	test   %esi,%esi
    1bf8:	0f 84 98 04 00 00    	je     2096 <_ZN4talc4talc13Talc$LT$O$GT$6malloc17hfb0da288b1d6f9eaE+0x6c6>
    1bfe:	83 fe fb             	cmp    $0xfffffffb,%esi
    1c01:	0f 87 87 04 00 00    	ja     208e <_ZN4talc4talc13Talc$LT$O$GT$6malloc17hfb0da288b1d6f9eaE+0x6be>
    1c07:	83 c6 03             	add    $0x3,%esi
    1c0a:	83 e6 fc             	and    $0xfffffffc,%esi
    1c0d:	83 e5 fc             	and    $0xfffffffc,%ebp
    1c10:	89 e9                	mov    %ebp,%ecx
    1c12:	29 f1                	sub    %esi,%ecx
    1c14:	0f 86 74 04 00 00    	jbe    208e <_ZN4talc4talc13Talc$LT$O$GT$6malloc17hfb0da288b1d6f9eaE+0x6be>
    1c1a:	8b 54 24 10          	mov    0x10(%esp),%edx
    1c1e:	8b 9a 20 00 00 00    	mov    0x20(%edx),%ebx
    1c24:	85 db                	test   %ebx,%ebx
    1c26:	74 38                	je     1c60 <_ZN4talc4talc13Talc$LT$O$GT$6malloc17hfb0da288b1d6f9eaE+0x290>
    1c28:	83 f9 0f             	cmp    $0xf,%ecx
    1c2b:	0f 86 5d 04 00 00    	jbe    208e <_ZN4talc4talc13Talc$LT$O$GT$6malloc17hfb0da288b1d6f9eaE+0x6be>
    1c31:	c7 06 03 00 00 00    	movl   $0x3,(%esi)
    1c37:	8d 46 04             	lea    0x4(%esi),%eax
    1c3a:	89 ea                	mov    %ebp,%edx
    1c3c:	89 44 24 0c          	mov    %eax,0xc(%esp)
    1c40:	29 c2                	sub    %eax,%edx
    1c42:	83 fa 40             	cmp    $0x40,%edx
    1c45:	0f 83 84 00 00 00    	jae    1ccf <_ZN4talc4talc13Talc$LT$O$GT$6malloc17hfb0da288b1d6f9eaE+0x2ff>
    1c4b:	8d 42 f4             	lea    -0xc(%edx),%eax
    1c4e:	c1 e8 02             	shr    $0x2,%eax
    1c51:	e9 cf 00 00 00       	jmp    1d25 <_ZN4talc4talc13Talc$LT$O$GT$6malloc17hfb0da288b1d6f9eaE+0x355>
    1c56:	90                   	nop
    1c57:	90                   	nop
    1c58:	90                   	nop
    1c59:	90                   	nop
    1c5a:	90                   	nop
    1c5b:	90                   	nop
    1c5c:	90                   	nop
    1c5d:	90                   	nop
    1c5e:	90                   	nop
    1c5f:	90                   	nop
    1c60:	81 f9 07 01 00 00    	cmp    $0x107,%ecx
    1c66:	0f 86 22 04 00 00    	jbe    208e <_ZN4talc4talc13Talc$LT$O$GT$6malloc17hfb0da288b1d6f9eaE+0x6be>
    1c6c:	c7 06 01 00 00 00    	movl   $0x1,(%esi)
    1c72:	8d 46 04             	lea    0x4(%esi),%eax
    1c75:	89 44 24 0c          	mov    %eax,0xc(%esp)
    1c79:	83 ec 04             	sub    $0x4,%esp
    1c7c:	8b 5c 24 14          	mov    0x14(%esp),%ebx
    1c80:	68 00 01 00 00       	push   $0x100
    1c85:	6a 00                	push   $0x0
    1c87:	50                   	push   %eax
    1c88:	e8 a3 3e 00 00       	call   5b30 <memset>
    1c8d:	8b 4c 24 1c          	mov    0x1c(%esp),%ecx
    1c91:	83 c4 10             	add    $0x10,%esp
    1c94:	89 8b 20 00 00 00    	mov    %ecx,0x20(%ebx)
    1c9a:	8d 86 08 01 00 00    	lea    0x108(%esi),%eax
    1ca0:	89 ea                	mov    %ebp,%edx
    1ca2:	29 c2                	sub    %eax,%edx
    1ca4:	83 fa 0b             	cmp    $0xb,%edx
    1ca7:	76 38                	jbe    1ce1 <_ZN4talc4talc13Talc$LT$O$GT$6malloc17hfb0da288b1d6f9eaE+0x311>
    1ca9:	83 fa 40             	cmp    $0x40,%edx
    1cac:	89 44 24 14          	mov    %eax,0x14(%esp)
    1cb0:	0f 83 05 01 00 00    	jae    1dbb <_ZN4talc4talc13Talc$LT$O$GT$6malloc17hfb0da288b1d6f9eaE+0x3eb>
    1cb6:	8d 42 f4             	lea    -0xc(%edx),%eax
    1cb9:	c1 e8 02             	shr    $0x2,%eax
    1cbc:	8d 1c 81             	lea    (%ecx,%eax,4),%ebx
    1cbf:	8b 0c 81             	mov    (%ecx,%eax,4),%ecx
    1cc2:	85 c9                	test   %ecx,%ecx
    1cc4:	0f 85 0b 01 00 00    	jne    1dd5 <_ZN4talc4talc13Talc$LT$O$GT$6malloc17hfb0da288b1d6f9eaE+0x405>
    1cca:	e9 4d 01 00 00       	jmp    1e1c <_ZN4talc4talc13Talc$LT$O$GT$6malloc17hfb0da288b1d6f9eaE+0x44c>
    1ccf:	81 fa 80 00 00 00    	cmp    $0x80,%edx
    1cd5:	73 27                	jae    1cfe <_ZN4talc4talc13Talc$LT$O$GT$6malloc17hfb0da288b1d6f9eaE+0x32e>
    1cd7:	89 d0                	mov    %edx,%eax
    1cd9:	c1 e8 03             	shr    $0x3,%eax
    1cdc:	83 c0 05             	add    $0x5,%eax
    1cdf:	eb 44                	jmp    1d25 <_ZN4talc4talc13Talc$LT$O$GT$6malloc17hfb0da288b1d6f9eaE+0x355>
    1ce1:	8d 86 04 01 00 00    	lea    0x104(%esi),%eax
    1ce7:	83 c5 fc             	add    $0xfffffffc,%ebp
    1cea:	39 c5                	cmp    %eax,%ebp
    1cec:	0f b6 4c 24 0b       	movzbl 0xb(%esp),%ecx
    1cf1:	74 02                	je     1cf5 <_ZN4talc4talc13Talc$LT$O$GT$6malloc17hfb0da288b1d6f9eaE+0x325>
    1cf3:	89 28                	mov    %ebp,(%eax)
    1cf5:	46                   	inc    %esi
    1cf6:	89 75 00             	mov    %esi,0x0(%ebp)
    1cf9:	e9 94 00 00 00       	jmp    1d92 <_ZN4talc4talc13Talc$LT$O$GT$6malloc17hfb0da288b1d6f9eaE+0x3c2>
    1cfe:	89 5c 24 14          	mov    %ebx,0x14(%esp)
    1d02:	0f bd da             	bsr    %edx,%ebx
    1d05:	83 f3 1f             	xor    $0x1f,%ebx
    1d08:	b1 1e                	mov    $0x1e,%cl
    1d0a:	28 d9                	sub    %bl,%cl
    1d0c:	89 d0                	mov    %edx,%eax
    1d0e:	d3 e8                	shr    %cl,%eax
    1d10:	01 db                	add    %ebx,%ebx
    1d12:	29 d8                	sub    %ebx,%eax
    1d14:	83 c0 43             	add    $0x43,%eax
    1d17:	83 f8 3f             	cmp    $0x3f,%eax
    1d1a:	72 05                	jb     1d21 <_ZN4talc4talc13Talc$LT$O$GT$6malloc17hfb0da288b1d6f9eaE+0x351>
    1d1c:	b8 3f 00 00 00       	mov    $0x3f,%eax
    1d21:	8b 5c 24 14          	mov    0x14(%esp),%ebx
    1d25:	89 d9                	mov    %ebx,%ecx
    1d27:	8d 1c 83             	lea    (%ebx,%eax,4),%ebx
    1d2a:	8b 0c 81             	mov    (%ecx,%eax,4),%ecx
    1d2d:	85 c9                	test   %ecx,%ecx
    1d2f:	74 11                	je     1d42 <_ZN4talc4talc13Talc$LT$O$GT$6malloc17hfb0da288b1d6f9eaE+0x372>
    1d31:	89 4e 04             	mov    %ecx,0x4(%esi)
    1d34:	89 5e 08             	mov    %ebx,0x8(%esi)
    1d37:	8b 44 24 0c          	mov    0xc(%esp),%eax
    1d3b:	89 03                	mov    %eax,(%ebx)
    1d3d:	89 41 04             	mov    %eax,0x4(%ecx)
    1d40:	eb 45                	jmp    1d87 <_ZN4talc4talc13Talc$LT$O$GT$6malloc17hfb0da288b1d6f9eaE+0x3b7>
    1d42:	31 c9                	xor    %ecx,%ecx
    1d44:	83 f8 20             	cmp    $0x20,%eax
    1d47:	0f 93 c1             	setae  %cl
    1d4a:	89 4c 24 28          	mov    %ecx,0x28(%esp)
    1d4e:	c7 44 24 14 01 00 00 	movl   $0x1,0x14(%esp)
    1d55:	00 
    1d56:	89 c1                	mov    %eax,%ecx
    1d58:	d3 64 24 14          	shll   %cl,0x14(%esp)
    1d5c:	8b 44 24 10          	mov    0x10(%esp),%eax
    1d60:	8b 4c 24 28          	mov    0x28(%esp),%ecx
    1d64:	89 5c 24 24          	mov    %ebx,0x24(%esp)
    1d68:	8b 5c 24 14          	mov    0x14(%esp),%ebx
    1d6c:	31 9c 88 18 00 00 00 	xor    %ebx,0x18(%eax,%ecx,4)
    1d73:	c7 46 04 00 00 00 00 	movl   $0x0,0x4(%esi)
    1d7a:	8b 4c 24 24          	mov    0x24(%esp),%ecx
    1d7e:	89 4e 08             	mov    %ecx,0x8(%esi)
    1d81:	8b 44 24 0c          	mov    0xc(%esp),%eax
    1d85:	89 01                	mov    %eax,(%ecx)
    1d87:	0f b6 4c 24 0b       	movzbl 0xb(%esp),%ecx
    1d8c:	89 56 0c             	mov    %edx,0xc(%esi)
    1d8f:	89 55 fc             	mov    %edx,-0x4(%ebp)
    1d92:	8b 54 24 1c          	mov    0x1c(%esp),%edx
    1d96:	8b 6c 24 10          	mov    0x10(%esp),%ebp
    1d9a:	c7 85 10 00 00 00 00 	movl   $0x0,0x10(%ebp)
    1da1:	00 00 00 
    1da4:	c7 85 14 00 00 00 00 	movl   $0x0,0x14(%ebp)
    1dab:	00 00 00 
    1dae:	84 c9                	test   %cl,%cl
    1db0:	0f 84 ea fc ff ff    	je     1aa0 <_ZN4talc4talc13Talc$LT$O$GT$6malloc17hfb0da288b1d6f9eaE+0xd0>
    1db6:	e9 aa fc ff ff       	jmp    1a65 <_ZN4talc4talc13Talc$LT$O$GT$6malloc17hfb0da288b1d6f9eaE+0x95>
    1dbb:	81 fa 80 00 00 00    	cmp    $0x80,%edx
    1dc1:	73 2c                	jae    1def <_ZN4talc4talc13Talc$LT$O$GT$6malloc17hfb0da288b1d6f9eaE+0x41f>
    1dc3:	89 d0                	mov    %edx,%eax
    1dc5:	c1 e8 03             	shr    $0x3,%eax
    1dc8:	83 c0 05             	add    $0x5,%eax
    1dcb:	8d 1c 81             	lea    (%ecx,%eax,4),%ebx
    1dce:	8b 0c 81             	mov    (%ecx,%eax,4),%ecx
    1dd1:	85 c9                	test   %ecx,%ecx
    1dd3:	74 47                	je     1e1c <_ZN4talc4talc13Talc$LT$O$GT$6malloc17hfb0da288b1d6f9eaE+0x44c>
    1dd5:	89 8e 08 01 00 00    	mov    %ecx,0x108(%esi)
    1ddb:	89 9e 0c 01 00 00    	mov    %ebx,0x10c(%esi)
    1de1:	8b 44 24 14          	mov    0x14(%esp),%eax
    1de5:	89 03                	mov    %eax,(%ebx)
    1de7:	89 41 04             	mov    %eax,0x4(%ecx)
    1dea:	e9 82 00 00 00       	jmp    1e71 <_ZN4talc4talc13Talc$LT$O$GT$6malloc17hfb0da288b1d6f9eaE+0x4a1>
    1def:	0f bd da             	bsr    %edx,%ebx
    1df2:	83 f3 1f             	xor    $0x1f,%ebx
    1df5:	b1 1e                	mov    $0x1e,%cl
    1df7:	28 d9                	sub    %bl,%cl
    1df9:	89 d0                	mov    %edx,%eax
    1dfb:	d3 e8                	shr    %cl,%eax
    1dfd:	01 db                	add    %ebx,%ebx
    1dff:	29 d8                	sub    %ebx,%eax
    1e01:	83 c0 43             	add    $0x43,%eax
    1e04:	83 f8 3f             	cmp    $0x3f,%eax
    1e07:	72 05                	jb     1e0e <_ZN4talc4talc13Talc$LT$O$GT$6malloc17hfb0da288b1d6f9eaE+0x43e>
    1e09:	b8 3f 00 00 00       	mov    $0x3f,%eax
    1e0e:	8b 4c 24 0c          	mov    0xc(%esp),%ecx
    1e12:	8d 1c 81             	lea    (%ecx,%eax,4),%ebx
    1e15:	8b 0c 81             	mov    (%ecx,%eax,4),%ecx
    1e18:	85 c9                	test   %ecx,%ecx
    1e1a:	75 b9                	jne    1dd5 <_ZN4talc4talc13Talc$LT$O$GT$6malloc17hfb0da288b1d6f9eaE+0x405>
    1e1c:	31 c9                	xor    %ecx,%ecx
    1e1e:	83 f8 20             	cmp    $0x20,%eax
    1e21:	0f 93 c1             	setae  %cl
    1e24:	89 4c 24 28          	mov    %ecx,0x28(%esp)
    1e28:	c7 44 24 0c 01 00 00 	movl   $0x1,0xc(%esp)
    1e2f:	00 
    1e30:	89 c1                	mov    %eax,%ecx
    1e32:	d3 64 24 0c          	shll   %cl,0xc(%esp)
    1e36:	8b 4c 24 10          	mov    0x10(%esp),%ecx
    1e3a:	89 5c 24 2c          	mov    %ebx,0x2c(%esp)
    1e3e:	8b 5c 24 28          	mov    0x28(%esp),%ebx
    1e42:	89 44 24 24          	mov    %eax,0x24(%esp)
    1e46:	8b 44 24 0c          	mov    0xc(%esp),%eax
    1e4a:	31 84 99 18 00 00 00 	xor    %eax,0x18(%ecx,%ebx,4)
    1e51:	c7 86 08 01 00 00 00 	movl   $0x0,0x108(%esi)
    1e58:	00 00 00 
    1e5b:	8b 44 24 2c          	mov    0x2c(%esp),%eax
    1e5f:	89 86 0c 01 00 00    	mov    %eax,0x10c(%esi)
    1e65:	8b 4c 24 14          	mov    0x14(%esp),%ecx
    1e69:	8b 44 24 24          	mov    0x24(%esp),%eax
    1e6d:	89 4c 86 04          	mov    %ecx,0x4(%esi,%eax,4)
    1e71:	89 96 10 01 00 00    	mov    %edx,0x110(%esi)
    1e77:	89 55 fc             	mov    %edx,-0x4(%ebp)
    1e7a:	8d 46 03             	lea    0x3(%esi),%eax
    1e7d:	89 86 04 01 00 00    	mov    %eax,0x104(%esi)
    1e83:	8b 54 24 1c          	mov    0x1c(%esp),%edx
    1e87:	0f b6 4c 24 0b       	movzbl 0xb(%esp),%ecx
    1e8c:	e9 05 ff ff ff       	jmp    1d96 <_ZN4talc4talc13Talc$LT$O$GT$6malloc17hfb0da288b1d6f9eaE+0x3c6>
    1e91:	8b 10                	mov    (%eax),%edx
    1e93:	8b 78 04             	mov    0x4(%eax),%edi
    1e96:	89 17                	mov    %edx,(%edi)
    1e98:	85 d2                	test   %edx,%edx
    1e9a:	74 03                	je     1e9f <_ZN4talc4talc13Talc$LT$O$GT$6malloc17hfb0da288b1d6f9eaE+0x4cf>
    1e9c:	89 7a 04             	mov    %edi,0x4(%edx)
    1e9f:	83 7d 00 00          	cmpl   $0x0,0x0(%ebp)
    1ea3:	8b 6c 24 10          	mov    0x10(%esp),%ebp
    1ea7:	74 24                	je     1ecd <_ZN4talc4talc13Talc$LT$O$GT$6malloc17hfb0da288b1d6f9eaE+0x4fd>
    1ea9:	8d 0c 30             	lea    (%eax,%esi,1),%ecx
    1eac:	83 c1 f4             	add    $0xfffffff4,%ecx
    1eaf:	39 c1                	cmp    %eax,%ecx
    1eb1:	73 3a                	jae    1eed <_ZN4talc4talc13Talc$LT$O$GT$6malloc17hfb0da288b1d6f9eaE+0x51d>
    1eb3:	89 cf                	mov    %ecx,%edi
    1eb5:	29 c7                	sub    %eax,%edi
    1eb7:	83 ff 0b             	cmp    $0xb,%edi
    1eba:	76 3c                	jbe    1ef8 <_ZN4talc4talc13Talc$LT$O$GT$6malloc17hfb0da288b1d6f9eaE+0x528>
    1ebc:	83 ff 40             	cmp    $0x40,%edi
    1ebf:	89 4c 24 1c          	mov    %ecx,0x1c(%esp)
    1ec3:	73 3e                	jae    1f03 <_ZN4talc4talc13Talc$LT$O$GT$6malloc17hfb0da288b1d6f9eaE+0x533>
    1ec5:	8d 57 f4             	lea    -0xc(%edi),%edx
    1ec8:	c1 ea 02             	shr    $0x2,%edx
    1ecb:	eb 67                	jmp    1f34 <_ZN4talc4talc13Talc$LT$O$GT$6malloc17hfb0da288b1d6f9eaE+0x564>
    1ecd:	31 d2                	xor    %edx,%edx
    1ecf:	83 f9 20             	cmp    $0x20,%ecx
    1ed2:	0f 93 c2             	setae  %dl
    1ed5:	bf 01 00 00 00       	mov    $0x1,%edi
    1eda:	d3 e7                	shl    %cl,%edi
    1edc:	31 bc 95 18 00 00 00 	xor    %edi,0x18(%ebp,%edx,4)
    1ee3:	8d 0c 30             	lea    (%eax,%esi,1),%ecx
    1ee6:	83 c1 f4             	add    $0xfffffff4,%ecx
    1ee9:	39 c1                	cmp    %eax,%ecx
    1eeb:	72 c6                	jb     1eb3 <_ZN4talc4talc13Talc$LT$O$GT$6malloc17hfb0da288b1d6f9eaE+0x4e3>
    1eed:	89 c1                	mov    %eax,%ecx
    1eef:	89 cf                	mov    %ecx,%edi
    1ef1:	29 c7                	sub    %eax,%edi
    1ef3:	83 ff 0b             	cmp    $0xb,%edi
    1ef6:	77 c4                	ja     1ebc <_ZN4talc4talc13Talc$LT$O$GT$6malloc17hfb0da288b1d6f9eaE+0x4ec>
    1ef8:	83 40 fc fe          	addl   $0xfffffffe,-0x4(%eax)
    1efc:	89 c3                	mov    %eax,%ebx
    1efe:	e9 86 00 00 00       	jmp    1f89 <_ZN4talc4talc13Talc$LT$O$GT$6malloc17hfb0da288b1d6f9eaE+0x5b9>
    1f03:	81 ff 80 00 00 00    	cmp    $0x80,%edi
    1f09:	73 0a                	jae    1f15 <_ZN4talc4talc13Talc$LT$O$GT$6malloc17hfb0da288b1d6f9eaE+0x545>
    1f0b:	89 fa                	mov    %edi,%edx
    1f0d:	c1 ea 03             	shr    $0x3,%edx
    1f10:	83 c2 05             	add    $0x5,%edx
    1f13:	eb 1f                	jmp    1f34 <_ZN4talc4talc13Talc$LT$O$GT$6malloc17hfb0da288b1d6f9eaE+0x564>
    1f15:	0f bd df             	bsr    %edi,%ebx
    1f18:	83 f3 1f             	xor    $0x1f,%ebx
    1f1b:	b1 1e                	mov    $0x1e,%cl
    1f1d:	28 d9                	sub    %bl,%cl
    1f1f:	89 fa                	mov    %edi,%edx
    1f21:	d3 ea                	shr    %cl,%edx
    1f23:	01 db                	add    %ebx,%ebx
    1f25:	29 da                	sub    %ebx,%edx
    1f27:	83 c2 43             	add    $0x43,%edx
    1f2a:	83 fa 3f             	cmp    $0x3f,%edx
    1f2d:	72 05                	jb     1f34 <_ZN4talc4talc13Talc$LT$O$GT$6malloc17hfb0da288b1d6f9eaE+0x564>
    1f2f:	ba 3f 00 00 00       	mov    $0x3f,%edx
    1f34:	8b 8d 20 00 00 00    	mov    0x20(%ebp),%ecx
    1f3a:	8d 1c 91             	lea    (%ecx,%edx,4),%ebx
    1f3d:	8b 0c 91             	mov    (%ecx,%edx,4),%ecx
    1f40:	85 c9                	test   %ecx,%ecx
    1f42:	74 0c                	je     1f50 <_ZN4talc4talc13Talc$LT$O$GT$6malloc17hfb0da288b1d6f9eaE+0x580>
    1f44:	89 08                	mov    %ecx,(%eax)
    1f46:	89 58 04             	mov    %ebx,0x4(%eax)
    1f49:	89 03                	mov    %eax,(%ebx)
    1f4b:	89 41 04             	mov    %eax,0x4(%ecx)
    1f4e:	eb 2f                	jmp    1f7f <_ZN4talc4talc13Talc$LT$O$GT$6malloc17hfb0da288b1d6f9eaE+0x5af>
    1f50:	31 c9                	xor    %ecx,%ecx
    1f52:	83 fa 20             	cmp    $0x20,%edx
    1f55:	0f 93 c1             	setae  %cl
    1f58:	89 4c 24 18          	mov    %ecx,0x18(%esp)
    1f5c:	bd 01 00 00 00       	mov    $0x1,%ebp
    1f61:	89 d1                	mov    %edx,%ecx
    1f63:	d3 e5                	shl    %cl,%ebp
    1f65:	8b 4c 24 18          	mov    0x18(%esp),%ecx
    1f69:	8b 54 24 10          	mov    0x10(%esp),%edx
    1f6d:	31 ac 8a 18 00 00 00 	xor    %ebp,0x18(%edx,%ecx,4)
    1f74:	c7 00 00 00 00 00    	movl   $0x0,(%eax)
    1f7a:	89 58 04             	mov    %ebx,0x4(%eax)
    1f7d:	89 03                	mov    %eax,(%ebx)
    1f7f:	89 78 08             	mov    %edi,0x8(%eax)
    1f82:	8b 5c 24 1c          	mov    0x1c(%esp),%ebx
    1f86:	89 7b fc             	mov    %edi,-0x4(%ebx)
    1f89:	01 c6                	add    %eax,%esi
    1f8b:	8b 4c 24 20          	mov    0x20(%esp),%ecx
    1f8f:	8d 3c 08             	lea    (%eax,%ecx,1),%edi
    1f92:	83 c7 03             	add    $0x3,%edi
    1f95:	83 e7 fc             	and    $0xfffffffc,%edi
    1f98:	8d 6b 08             	lea    0x8(%ebx),%ebp
    1f9b:	39 ef                	cmp    %ebp,%edi
    1f9d:	72 02                	jb     1fa1 <_ZN4talc4talc13Talc$LT$O$GT$6malloc17hfb0da288b1d6f9eaE+0x5d1>
    1f9f:	89 fd                	mov    %edi,%ebp
    1fa1:	8d 4d 04             	lea    0x4(%ebp),%ecx
    1fa4:	89 f2                	mov    %esi,%edx
    1fa6:	29 ca                	sub    %ecx,%edx
    1fa8:	83 fa 0b             	cmp    $0xb,%edx
    1fab:	76 19                	jbe    1fc6 <_ZN4talc4talc13Talc$LT$O$GT$6malloc17hfb0da288b1d6f9eaE+0x5f6>
    1fad:	83 fa 40             	cmp    $0x40,%edx
    1fb0:	89 5c 24 1c          	mov    %ebx,0x1c(%esp)
    1fb4:	89 4c 24 20          	mov    %ecx,0x20(%esp)
    1fb8:	89 7c 24 0c          	mov    %edi,0xc(%esp)
    1fbc:	73 1e                	jae    1fdc <_ZN4talc4talc13Talc$LT$O$GT$6malloc17hfb0da288b1d6f9eaE+0x60c>
    1fbe:	8d 5a f4             	lea    -0xc(%edx),%ebx
    1fc1:	c1 eb 02             	shr    $0x2,%ebx
    1fc4:	eb 4f                	jmp    2015 <_ZN4talc4talc13Talc$LT$O$GT$6malloc17hfb0da288b1d6f9eaE+0x645>
    1fc6:	43                   	inc    %ebx
    1fc7:	89 5e fc             	mov    %ebx,-0x4(%esi)
    1fca:	83 c6 fc             	add    $0xfffffffc,%esi
    1fcd:	89 f5                	mov    %esi,%ebp
    1fcf:	39 fd                	cmp    %edi,%ebp
    1fd1:	0f 85 b5 00 00 00    	jne    208c <_ZN4talc4talc13Talc$LT$O$GT$6malloc17hfb0da288b1d6f9eaE+0x6bc>
    1fd7:	e9 b2 00 00 00       	jmp    208e <_ZN4talc4talc13Talc$LT$O$GT$6malloc17hfb0da288b1d6f9eaE+0x6be>
    1fdc:	81 fa 80 00 00 00    	cmp    $0x80,%edx
    1fe2:	73 0a                	jae    1fee <_ZN4talc4talc13Talc$LT$O$GT$6malloc17hfb0da288b1d6f9eaE+0x61e>
    1fe4:	89 d3                	mov    %edx,%ebx
    1fe6:	c1 eb 03             	shr    $0x3,%ebx
    1fe9:	83 c3 05             	add    $0x5,%ebx
    1fec:	eb 27                	jmp    2015 <_ZN4talc4talc13Talc$LT$O$GT$6malloc17hfb0da288b1d6f9eaE+0x645>
    1fee:	0f bd da             	bsr    %edx,%ebx
    1ff1:	83 f3 1f             	xor    $0x1f,%ebx
    1ff4:	89 5c 24 18          	mov    %ebx,0x18(%esp)
    1ff8:	b1 1e                	mov    $0x1e,%cl
    1ffa:	28 d9                	sub    %bl,%cl
    1ffc:	89 d3                	mov    %edx,%ebx
    1ffe:	d3 eb                	shr    %cl,%ebx
    2000:	8b 4c 24 18          	mov    0x18(%esp),%ecx
    2004:	01 c9                	add    %ecx,%ecx
    2006:	29 cb                	sub    %ecx,%ebx
    2008:	83 c3 43             	add    $0x43,%ebx
    200b:	83 fb 3f             	cmp    $0x3f,%ebx
    200e:	72 05                	jb     2015 <_ZN4talc4talc13Talc$LT$O$GT$6malloc17hfb0da288b1d6f9eaE+0x645>
    2010:	bb 3f 00 00 00       	mov    $0x3f,%ebx
    2015:	8b 4c 24 10          	mov    0x10(%esp),%ecx
    2019:	8b 89 20 00 00 00    	mov    0x20(%ecx),%ecx
    201f:	8d 3c 99             	lea    (%ecx,%ebx,4),%edi
    2022:	89 7c 24 18          	mov    %edi,0x18(%esp)
    2026:	8b 0c 99             	mov    (%ecx,%ebx,4),%ecx
    2029:	85 c9                	test   %ecx,%ecx
    202b:	74 15                	je     2042 <_ZN4talc4talc13Talc$LT$O$GT$6malloc17hfb0da288b1d6f9eaE+0x672>
    202d:	89 4d 04             	mov    %ecx,0x4(%ebp)
    2030:	8b 7c 24 18          	mov    0x18(%esp),%edi
    2034:	89 7d 08             	mov    %edi,0x8(%ebp)
    2037:	8b 5c 24 20          	mov    0x20(%esp),%ebx
    203b:	89 1f                	mov    %ebx,(%edi)
    203d:	89 59 04             	mov    %ebx,0x4(%ecx)
    2040:	eb 32                	jmp    2074 <_ZN4talc4talc13Talc$LT$O$GT$6malloc17hfb0da288b1d6f9eaE+0x6a4>
    2042:	31 c9                	xor    %ecx,%ecx
    2044:	83 fb 20             	cmp    $0x20,%ebx
    2047:	0f 93 c1             	setae  %cl
    204a:	89 cf                	mov    %ecx,%edi
    204c:	89 d9                	mov    %ebx,%ecx
    204e:	bb 01 00 00 00       	mov    $0x1,%ebx
    2053:	d3 e3                	shl    %cl,%ebx
    2055:	8b 4c 24 10          	mov    0x10(%esp),%ecx
    2059:	31 9c b9 18 00 00 00 	xor    %ebx,0x18(%ecx,%edi,4)
    2060:	c7 45 04 00 00 00 00 	movl   $0x0,0x4(%ebp)
    2067:	8b 7c 24 18          	mov    0x18(%esp),%edi
    206b:	89 7d 08             	mov    %edi,0x8(%ebp)
    206e:	8b 4c 24 20          	mov    0x20(%esp),%ecx
    2072:	89 0f                	mov    %ecx,(%edi)
    2074:	89 55 0c             	mov    %edx,0xc(%ebp)
    2077:	89 56 fc             	mov    %edx,-0x4(%esi)
    207a:	8b 4c 24 1c          	mov    0x1c(%esp),%ecx
    207e:	83 c1 03             	add    $0x3,%ecx
    2081:	89 4d 00             	mov    %ecx,0x0(%ebp)
    2084:	8b 7c 24 0c          	mov    0xc(%esp),%edi
    2088:	39 fd                	cmp    %edi,%ebp
    208a:	74 02                	je     208e <_ZN4talc4talc13Talc$LT$O$GT$6malloc17hfb0da288b1d6f9eaE+0x6be>
    208c:	89 2f                	mov    %ebp,(%edi)
    208e:	83 c4 4c             	add    $0x4c,%esp
    2091:	5e                   	pop    %esi
    2092:	5f                   	pop    %edi
    2093:	5b                   	pop    %ebx
    2094:	5d                   	pop    %ebp
    2095:	c3                   	ret
    2096:	8b 5c 24 10          	mov    0x10(%esp),%ebx
    209a:	8d 83 60 ff ff ff    	lea    -0xa0(%ebx),%eax
    20a0:	89 44 24 34          	mov    %eax,0x34(%esp)
    20a4:	c7 44 24 38 01 00 00 	movl   $0x1,0x38(%esp)
    20ab:	00 
    20ac:	c7 44 24 44 00 00 00 	movl   $0x0,0x44(%esp)
    20b3:	00 
    20b4:	c7 44 24 3c 04 00 00 	movl   $0x4,0x3c(%esp)
    20bb:	00 
    20bc:	c7 44 24 40 00 00 00 	movl   $0x0,0x40(%esp)
    20c3:	00 
    20c4:	8d 93 68 ff ff ff    	lea    -0x98(%ebx),%edx
    20ca:	8d 4c 24 34          	lea    0x34(%esp),%ecx
    20ce:	e8 5d f0 ff ff       	call   1130 <_ZN4core9panicking9panic_fmt17he08b1796856e5d1aE>
    20d3:	66 90                	xchg   %ax,%ax
    20d5:	66 90                	xchg   %ax,%ax
    20d7:	66 90                	xchg   %ax,%ax
    20d9:	66 90                	xchg   %ax,%ax
    20db:	66 90                	xchg   %ax,%ax
    20dd:	66 90                	xchg   %ax,%ax
    20df:	90                   	nop

000020e0 <_ZN70_$LT$core..result..Result$LT$T$C$E$GT$$u20$as$u20$core..fmt..Debug$GT$3fmt17h8f48c425ad924408E>:
    20e0:	55                   	push   %ebp
    20e1:	53                   	push   %ebx
    20e2:	57                   	push   %edi
    20e3:	56                   	push   %esi
    20e4:	83 ec 2c             	sub    $0x2c,%esp
    20e7:	e8 00 00 00 00       	call   20ec <_ZN70_$LT$core..result..Result$LT$T$C$E$GT$$u20$as$u20$core..fmt..Debug$GT$3fmt17h8f48c425ad924408E+0xc>
    20ec:	5b                   	pop    %ebx
    20ed:	81 c3 08 5f 00 00    	add    $0x5f08,%ebx
    20f3:	8b 74 24 44          	mov    0x44(%esp),%esi
    20f7:	8b 44 24 40          	mov    0x40(%esp),%eax
    20fb:	80 38 01             	cmpb   $0x1,(%eax)
    20fe:	75 71                	jne    2171 <_ZN70_$LT$core..result..Result$LT$T$C$E$GT$$u20$as$u20$core..fmt..Debug$GT$3fmt17h8f48c425ad924408E+0x91>
    2100:	8b 3e                	mov    (%esi),%edi
    2102:	8b 6e 04             	mov    0x4(%esi),%ebp
    2105:	8b 4d 0c             	mov    0xc(%ebp),%ecx
    2108:	83 ec 04             	sub    $0x4,%esp
    210b:	8d 83 30 e6 ff ff    	lea    -0x19d0(%ebx),%eax
    2111:	6a 03                	push   $0x3
    2113:	50                   	push   %eax
    2114:	57                   	push   %edi
    2115:	89 4c 24 18          	mov    %ecx,0x18(%esp)
    2119:	ff d1                	call   *%ecx
    211b:	83 c4 10             	add    $0x10,%esp
    211e:	b1 01                	mov    $0x1,%cl
    2120:	84 c0                	test   %al,%al
    2122:	0f 85 e1 01 00 00    	jne    2309 <_ZN70_$LT$core..result..Result$LT$T$C$E$GT$$u20$as$u20$core..fmt..Debug$GT$3fmt17h8f48c425ad924408E+0x229>
    2128:	f6 46 0a 80          	testb  $0x80,0xa(%esi)
    212c:	0f 85 b1 00 00 00    	jne    21e3 <_ZN70_$LT$core..result..Result$LT$T$C$E$GT$$u20$as$u20$core..fmt..Debug$GT$3fmt17h8f48c425ad924408E+0x103>
    2132:	83 ec 04             	sub    $0x4,%esp
    2135:	8d 83 ee eb ff ff    	lea    -0x1412(%ebx),%eax
    213b:	6a 01                	push   $0x1
    213d:	50                   	push   %eax
    213e:	57                   	push   %edi
    213f:	8b 74 24 18          	mov    0x18(%esp),%esi
    2143:	ff d6                	call   *%esi
    2145:	83 c4 10             	add    $0x10,%esp
    2148:	84 c0                	test   %al,%al
    214a:	0f 85 84 01 00 00    	jne    22d4 <_ZN70_$LT$core..result..Result$LT$T$C$E$GT$$u20$as$u20$core..fmt..Debug$GT$3fmt17h8f48c425ad924408E+0x1f4>
    2150:	83 ec 04             	sub    $0x4,%esp
    2153:	8d 83 78 ed ff ff    	lea    -0x1288(%ebx),%eax
    2159:	6a 0c                	push   $0xc
    215b:	50                   	push   %eax
    215c:	57                   	push   %edi
    215d:	ff d6                	call   *%esi
    215f:	83 c4 10             	add    $0x10,%esp
    2162:	84 c0                	test   %al,%al
    2164:	b1 01                	mov    $0x1,%cl
    2166:	0f 85 9d 01 00 00    	jne    2309 <_ZN70_$LT$core..result..Result$LT$T$C$E$GT$$u20$as$u20$core..fmt..Debug$GT$3fmt17h8f48c425ad924408E+0x229>
    216c:	e9 e7 00 00 00       	jmp    2258 <_ZN70_$LT$core..result..Result$LT$T$C$E$GT$$u20$as$u20$core..fmt..Debug$GT$3fmt17h8f48c425ad924408E+0x178>
    2171:	8b 3e                	mov    (%esi),%edi
    2173:	8b 6e 04             	mov    0x4(%esi),%ebp
    2176:	8b 4d 0c             	mov    0xc(%ebp),%ecx
    2179:	83 ec 04             	sub    $0x4,%esp
    217c:	8d 83 2e e6 ff ff    	lea    -0x19d2(%ebx),%eax
    2182:	6a 02                	push   $0x2
    2184:	50                   	push   %eax
    2185:	57                   	push   %edi
    2186:	89 4c 24 18          	mov    %ecx,0x18(%esp)
    218a:	ff d1                	call   *%ecx
    218c:	83 c4 10             	add    $0x10,%esp
    218f:	b1 01                	mov    $0x1,%cl
    2191:	84 c0                	test   %al,%al
    2193:	0f 85 70 01 00 00    	jne    2309 <_ZN70_$LT$core..result..Result$LT$T$C$E$GT$$u20$as$u20$core..fmt..Debug$GT$3fmt17h8f48c425ad924408E+0x229>
    2199:	f6 46 0a 80          	testb  $0x80,0xa(%esi)
    219d:	0f 85 c9 00 00 00    	jne    226c <_ZN70_$LT$core..result..Result$LT$T$C$E$GT$$u20$as$u20$core..fmt..Debug$GT$3fmt17h8f48c425ad924408E+0x18c>
    21a3:	83 ec 04             	sub    $0x4,%esp
    21a6:	8d 83 ee eb ff ff    	lea    -0x1412(%ebx),%eax
    21ac:	6a 01                	push   $0x1
    21ae:	50                   	push   %eax
    21af:	57                   	push   %edi
    21b0:	ff 54 24 18          	call   *0x18(%esp)
    21b4:	83 c4 10             	add    $0x10,%esp
    21b7:	84 c0                	test   %al,%al
    21b9:	0f 85 15 01 00 00    	jne    22d4 <_ZN70_$LT$core..result..Result$LT$T$C$E$GT$$u20$as$u20$core..fmt..Debug$GT$3fmt17h8f48c425ad924408E+0x1f4>
    21bf:	83 ec 0c             	sub    $0xc,%esp
    21c2:	8d 93 f5 ea ff ff    	lea    -0x150b(%ebx),%edx
    21c8:	89 f1                	mov    %esi,%ecx
    21ca:	6a 02                	push   $0x2
    21cc:	e8 9f 26 00 00       	call   4870 <_ZN4core3fmt9Formatter3pad17hca3954b393b06d6eE>
    21d1:	83 c4 10             	add    $0x10,%esp
    21d4:	84 c0                	test   %al,%al
    21d6:	b1 01                	mov    $0x1,%cl
    21d8:	0f 84 15 01 00 00    	je     22f3 <_ZN70_$LT$core..result..Result$LT$T$C$E$GT$$u20$as$u20$core..fmt..Debug$GT$3fmt17h8f48c425ad924408E+0x213>
    21de:	e9 26 01 00 00       	jmp    2309 <_ZN70_$LT$core..result..Result$LT$T$C$E$GT$$u20$as$u20$core..fmt..Debug$GT$3fmt17h8f48c425ad924408E+0x229>
    21e3:	83 ec 04             	sub    $0x4,%esp
    21e6:	8d 83 ef eb ff ff    	lea    -0x1411(%ebx),%eax
    21ec:	6a 02                	push   $0x2
    21ee:	50                   	push   %eax
    21ef:	57                   	push   %edi
    21f0:	ff 54 24 18          	call   *0x18(%esp)
    21f4:	83 c4 10             	add    $0x10,%esp
    21f7:	84 c0                	test   %al,%al
    21f9:	0f 85 d5 00 00 00    	jne    22d4 <_ZN70_$LT$core..result..Result$LT$T$C$E$GT$$u20$as$u20$core..fmt..Debug$GT$3fmt17h8f48c425ad924408E+0x1f4>
    21ff:	c6 44 24 20 01       	movb   $0x1,0x20(%esp)
    2204:	89 7c 24 10          	mov    %edi,0x10(%esp)
    2208:	89 6c 24 14          	mov    %ebp,0x14(%esp)
    220c:	8d 44 24 20          	lea    0x20(%esp),%eax
    2210:	89 44 24 18          	mov    %eax,0x18(%esp)
    2214:	83 ec 04             	sub    $0x4,%esp
    2217:	8d 83 78 ed ff ff    	lea    -0x1288(%ebx),%eax
    221d:	8d 74 24 14          	lea    0x14(%esp),%esi
    2221:	6a 0c                	push   $0xc
    2223:	50                   	push   %eax
    2224:	56                   	push   %esi
    2225:	e8 16 31 00 00       	call   5340 <_ZN68_$LT$core..fmt..builders..PadAdapter$u20$as$u20$core..fmt..Write$GT$9write_str17h24b9d0f154c11ae5E>
    222a:	83 c4 10             	add    $0x10,%esp
    222d:	84 c0                	test   %al,%al
    222f:	0f 85 9f 00 00 00    	jne    22d4 <_ZN70_$LT$core..result..Result$LT$T$C$E$GT$$u20$as$u20$core..fmt..Debug$GT$3fmt17h8f48c425ad924408E+0x1f4>
    2235:	83 ec 04             	sub    $0x4,%esp
    2238:	8d 83 e9 eb ff ff    	lea    -0x1417(%ebx),%eax
    223e:	6a 02                	push   $0x2
    2240:	50                   	push   %eax
    2241:	56                   	push   %esi
    2242:	e8 f9 30 00 00       	call   5340 <_ZN68_$LT$core..fmt..builders..PadAdapter$u20$as$u20$core..fmt..Write$GT$9write_str17h24b9d0f154c11ae5E>
    2247:	83 c4 10             	add    $0x10,%esp
    224a:	84 c0                	test   %al,%al
    224c:	b1 01                	mov    $0x1,%cl
    224e:	8b 74 24 08          	mov    0x8(%esp),%esi
    2252:	0f 85 b1 00 00 00    	jne    2309 <_ZN70_$LT$core..result..Result$LT$T$C$E$GT$$u20$as$u20$core..fmt..Debug$GT$3fmt17h8f48c425ad924408E+0x229>
    2258:	83 ec 04             	sub    $0x4,%esp
    225b:	8d 83 91 eb ff ff    	lea    -0x146f(%ebx),%eax
    2261:	6a 01                	push   $0x1
    2263:	50                   	push   %eax
    2264:	57                   	push   %edi
    2265:	ff d6                	call   *%esi
    2267:	e9 98 00 00 00       	jmp    2304 <_ZN70_$LT$core..result..Result$LT$T$C$E$GT$$u20$as$u20$core..fmt..Debug$GT$3fmt17h8f48c425ad924408E+0x224>
    226c:	83 ec 04             	sub    $0x4,%esp
    226f:	8d 83 ef eb ff ff    	lea    -0x1411(%ebx),%eax
    2275:	6a 02                	push   $0x2
    2277:	50                   	push   %eax
    2278:	57                   	push   %edi
    2279:	ff 54 24 18          	call   *0x18(%esp)
    227d:	83 c4 10             	add    $0x10,%esp
    2280:	84 c0                	test   %al,%al
    2282:	75 50                	jne    22d4 <_ZN70_$LT$core..result..Result$LT$T$C$E$GT$$u20$as$u20$core..fmt..Debug$GT$3fmt17h8f48c425ad924408E+0x1f4>
    2284:	c6 44 24 0f 01       	movb   $0x1,0xf(%esp)
    2289:	89 7c 24 20          	mov    %edi,0x20(%esp)
    228d:	89 6c 24 24          	mov    %ebp,0x24(%esp)
    2291:	8d 44 24 0f          	lea    0xf(%esp),%eax
    2295:	89 44 24 28          	mov    %eax,0x28(%esp)
    2299:	8b 46 08             	mov    0x8(%esi),%eax
    229c:	8b 4e 0c             	mov    0xc(%esi),%ecx
    229f:	89 4c 24 1c          	mov    %ecx,0x1c(%esp)
    22a3:	89 44 24 18          	mov    %eax,0x18(%esp)
    22a7:	8d 74 24 20          	lea    0x20(%esp),%esi
    22ab:	89 74 24 10          	mov    %esi,0x10(%esp)
    22af:	8d 83 f0 fe ff ff    	lea    -0x110(%ebx),%eax
    22b5:	89 44 24 14          	mov    %eax,0x14(%esp)
    22b9:	83 ec 0c             	sub    $0xc,%esp
    22bc:	8d 93 f5 ea ff ff    	lea    -0x150b(%ebx),%edx
    22c2:	8d 4c 24 1c          	lea    0x1c(%esp),%ecx
    22c6:	6a 02                	push   $0x2
    22c8:	e8 a3 25 00 00       	call   4870 <_ZN4core3fmt9Formatter3pad17hca3954b393b06d6eE>
    22cd:	83 c4 10             	add    $0x10,%esp
    22d0:	84 c0                	test   %al,%al
    22d2:	74 04                	je     22d8 <_ZN70_$LT$core..result..Result$LT$T$C$E$GT$$u20$as$u20$core..fmt..Debug$GT$3fmt17h8f48c425ad924408E+0x1f8>
    22d4:	b1 01                	mov    $0x1,%cl
    22d6:	eb 31                	jmp    2309 <_ZN70_$LT$core..result..Result$LT$T$C$E$GT$$u20$as$u20$core..fmt..Debug$GT$3fmt17h8f48c425ad924408E+0x229>
    22d8:	83 ec 04             	sub    $0x4,%esp
    22db:	8d 83 e9 eb ff ff    	lea    -0x1417(%ebx),%eax
    22e1:	6a 02                	push   $0x2
    22e3:	50                   	push   %eax
    22e4:	56                   	push   %esi
    22e5:	e8 56 30 00 00       	call   5340 <_ZN68_$LT$core..fmt..builders..PadAdapter$u20$as$u20$core..fmt..Write$GT$9write_str17h24b9d0f154c11ae5E>
    22ea:	83 c4 10             	add    $0x10,%esp
    22ed:	84 c0                	test   %al,%al
    22ef:	b1 01                	mov    $0x1,%cl
    22f1:	75 16                	jne    2309 <_ZN70_$LT$core..result..Result$LT$T$C$E$GT$$u20$as$u20$core..fmt..Debug$GT$3fmt17h8f48c425ad924408E+0x229>
    22f3:	83 ec 04             	sub    $0x4,%esp
    22f6:	8d 83 91 eb ff ff    	lea    -0x146f(%ebx),%eax
    22fc:	6a 01                	push   $0x1
    22fe:	50                   	push   %eax
    22ff:	57                   	push   %edi
    2300:	ff 54 24 18          	call   *0x18(%esp)
    2304:	83 c4 10             	add    $0x10,%esp
    2307:	89 c1                	mov    %eax,%ecx
    2309:	89 c8                	mov    %ecx,%eax
    230b:	83 c4 2c             	add    $0x2c,%esp
    230e:	5e                   	pop    %esi
    230f:	5f                   	pop    %edi
    2310:	5b                   	pop    %ebx
    2311:	5d                   	pop    %ebp
    2312:	c3                   	ret
    2313:	66 90                	xchg   %ax,%ax
    2315:	66 90                	xchg   %ax,%ax
    2317:	66 90                	xchg   %ax,%ax
    2319:	66 90                	xchg   %ax,%ax
    231b:	66 90                	xchg   %ax,%ax
    231d:	66 90                	xchg   %ax,%ax
    231f:	90                   	nop

00002320 <_ZN72_$LT$kernel_types..syscall..SyscallError$u20$as$u20$core..fmt..Debug$GT$3fmt17h51423209a3f15815E>:
    2320:	53                   	push   %ebx
    2321:	56                   	push   %esi
    2322:	50                   	push   %eax
    2323:	e8 00 00 00 00       	call   2328 <_ZN72_$LT$kernel_types..syscall..SyscallError$u20$as$u20$core..fmt..Debug$GT$3fmt17h51423209a3f15815E+0x8>
    2328:	5b                   	pop    %ebx
    2329:	81 c3 cc 5c 00 00    	add    $0x5ccc,%ebx
    232f:	8b 44 24 10          	mov    0x10(%esp),%eax
    2333:	8b 10                	mov    (%eax),%edx
    2335:	8d 83 78 ed ff ff    	lea    -0x1288(%ebx),%eax
    233b:	b9 0c 00 00 00       	mov    $0xc,%ecx
    2340:	4a                   	dec    %edx
    2341:	8b 94 93 54 e2 ff ff 	mov    -0x1dac(%ebx,%edx,4),%edx
    2348:	01 da                	add    %ebx,%edx
    234a:	ff e2                	jmp    *%edx
    234c:	8d 83 84 ed ff ff    	lea    -0x127c(%ebx),%eax
    2352:	b9 0b 00 00 00       	mov    $0xb,%ecx
    2357:	eb 69                	jmp    23c2 <_ZN72_$LT$kernel_types..syscall..SyscallError$u20$as$u20$core..fmt..Debug$GT$3fmt17h51423209a3f15815E+0xa2>
    2359:	8d 83 f5 e9 ff ff    	lea    -0x160b(%ebx),%eax
    235f:	b9 08 00 00 00       	mov    $0x8,%ecx
    2364:	eb 5c                	jmp    23c2 <_ZN72_$LT$kernel_types..syscall..SyscallError$u20$as$u20$core..fmt..Debug$GT$3fmt17h51423209a3f15815E+0xa2>
    2366:	8d 83 e9 ed ff ff    	lea    -0x1217(%ebx),%eax
    236c:	b9 0f 00 00 00       	mov    $0xf,%ecx
    2371:	eb 4f                	jmp    23c2 <_ZN72_$LT$kernel_types..syscall..SyscallError$u20$as$u20$core..fmt..Debug$GT$3fmt17h51423209a3f15815E+0xa2>
    2373:	8d 83 8f ed ff ff    	lea    -0x1271(%ebx),%eax
    2379:	b9 0f 00 00 00       	mov    $0xf,%ecx
    237e:	eb 42                	jmp    23c2 <_ZN72_$LT$kernel_types..syscall..SyscallError$u20$as$u20$core..fmt..Debug$GT$3fmt17h51423209a3f15815E+0xa2>
    2380:	8d 83 9e ed ff ff    	lea    -0x1262(%ebx),%eax
    2386:	eb 3a                	jmp    23c2 <_ZN72_$LT$kernel_types..syscall..SyscallError$u20$as$u20$core..fmt..Debug$GT$3fmt17h51423209a3f15815E+0xa2>
    2388:	8d 83 ba ed ff ff    	lea    -0x1246(%ebx),%eax
    238e:	b9 10 00 00 00       	mov    $0x10,%ecx
    2393:	eb 2d                	jmp    23c2 <_ZN72_$LT$kernel_types..syscall..SyscallError$u20$as$u20$core..fmt..Debug$GT$3fmt17h51423209a3f15815E+0xa2>
    2395:	8d 83 f8 ed ff ff    	lea    -0x1208(%ebx),%eax
    239b:	b9 06 00 00 00       	mov    $0x6,%ecx
    23a0:	eb 20                	jmp    23c2 <_ZN72_$LT$kernel_types..syscall..SyscallError$u20$as$u20$core..fmt..Debug$GT$3fmt17h51423209a3f15815E+0xa2>
    23a2:	8d 83 aa ed ff ff    	lea    -0x1256(%ebx),%eax
    23a8:	b9 10 00 00 00       	mov    $0x10,%ecx
    23ad:	eb 13                	jmp    23c2 <_ZN72_$LT$kernel_types..syscall..SyscallError$u20$as$u20$core..fmt..Debug$GT$3fmt17h51423209a3f15815E+0xa2>
    23af:	8d 83 ca ed ff ff    	lea    -0x1236(%ebx),%eax
    23b5:	eb 0b                	jmp    23c2 <_ZN72_$LT$kernel_types..syscall..SyscallError$u20$as$u20$core..fmt..Debug$GT$3fmt17h51423209a3f15815E+0xa2>
    23b7:	8d 83 d6 ed ff ff    	lea    -0x122a(%ebx),%eax
    23bd:	b9 13 00 00 00       	mov    $0x13,%ecx
    23c2:	8b 54 24 14          	mov    0x14(%esp),%edx
    23c6:	8b 72 04             	mov    0x4(%edx),%esi
    23c9:	83 ec 04             	sub    $0x4,%esp
    23cc:	51                   	push   %ecx
    23cd:	50                   	push   %eax
    23ce:	ff 32                	push   (%edx)
    23d0:	ff 56 0c             	call   *0xc(%esi)
    23d3:	83 c4 14             	add    $0x14,%esp
    23d6:	5e                   	pop    %esi
    23d7:	5b                   	pop    %ebx
    23d8:	c3                   	ret
    23d9:	0f 0b                	ud2
    23db:	66 90                	xchg   %ax,%ax
    23dd:	66 90                	xchg   %ax,%ax
    23df:	90                   	nop

000023e0 <_ZN64_$LT$kernel_lib..logging..BufferedLogger$u20$as$u20$log..Log$GT$7enabled17h50b3bf6b8eccac4aE>:
    23e0:	b0 01                	mov    $0x1,%al
    23e2:	c3                   	ret
    23e3:	66 90                	xchg   %ax,%ax
    23e5:	66 90                	xchg   %ax,%ax
    23e7:	66 90                	xchg   %ax,%ax
    23e9:	66 90                	xchg   %ax,%ax
    23eb:	66 90                	xchg   %ax,%ax
    23ed:	66 90                	xchg   %ax,%ax
    23ef:	90                   	nop

000023f0 <_ZN64_$LT$kernel_lib..logging..BufferedLogger$u20$as$u20$log..Log$GT$3log17h291c1b72f6b70707E>:
    23f0:	53                   	push   %ebx
    23f1:	81 ec 48 01 00 00    	sub    $0x148,%esp
    23f7:	e8 00 00 00 00       	call   23fc <_ZN64_$LT$kernel_lib..logging..BufferedLogger$u20$as$u20$log..Log$GT$3log17h291c1b72f6b70707E+0xc>
    23fc:	5b                   	pop    %ebx
    23fd:	81 c3 f8 5b 00 00    	add    $0x5bf8,%ebx
    2403:	8b 84 24 54 01 00 00 	mov    0x154(%esp),%eax
    240a:	c7 44 24 44 00 00 00 	movl   $0x0,0x44(%esp)
    2411:	00 
    2412:	8b 48 20             	mov    0x20(%eax),%ecx
    2415:	89 4c 24 04          	mov    %ecx,0x4(%esp)
    2419:	8b 48 24             	mov    0x24(%eax),%ecx
    241c:	8b 50 28             	mov    0x28(%eax),%edx
    241f:	89 4c 24 24          	mov    %ecx,0x24(%esp)
    2423:	89 54 24 28          	mov    %edx,0x28(%esp)
    2427:	83 c0 2c             	add    $0x2c,%eax
    242a:	89 44 24 08          	mov    %eax,0x8(%esp)
    242e:	8d 44 24 04          	lea    0x4(%esp),%eax
    2432:	89 44 24 0c          	mov    %eax,0xc(%esp)
    2436:	8d 83 0c da ff ff    	lea    -0x25f4(%ebx),%eax
    243c:	89 44 24 10          	mov    %eax,0x10(%esp)
    2440:	8d 44 24 24          	lea    0x24(%esp),%eax
    2444:	89 44 24 14          	mov    %eax,0x14(%esp)
    2448:	8d 83 fc cd ff ff    	lea    -0x3204(%ebx),%eax
    244e:	89 44 24 18          	mov    %eax,0x18(%esp)
    2452:	8d 44 24 08          	lea    0x8(%esp),%eax
    2456:	89 44 24 1c          	mov    %eax,0x1c(%esp)
    245a:	8d 83 4c 97 ff ff    	lea    -0x68b4(%ebx),%eax
    2460:	89 44 24 20          	mov    %eax,0x20(%esp)
    2464:	8d 83 70 fd ff ff    	lea    -0x290(%ebx),%eax
    246a:	89 44 24 2c          	mov    %eax,0x2c(%esp)
    246e:	c7 44 24 30 04 00 00 	movl   $0x4,0x30(%esp)
    2475:	00 
    2476:	c7 44 24 3c 00 00 00 	movl   $0x0,0x3c(%esp)
    247d:	00 
    247e:	8d 44 24 0c          	lea    0xc(%esp),%eax
    2482:	89 44 24 34          	mov    %eax,0x34(%esp)
    2486:	c7 44 24 38 03 00 00 	movl   $0x3,0x38(%esp)
    248d:	00 
    248e:	8d 44 24 2c          	lea    0x2c(%esp),%eax
    2492:	89 04 24             	mov    %eax,(%esp)
    2495:	8d 93 30 fd ff ff    	lea    -0x2d0(%ebx),%edx
    249b:	8d 4c 24 44          	lea    0x44(%esp),%ecx
    249f:	e8 ac 29 00 00       	call   4e50 <_ZN4core3fmt5write17h60dc8996c7a95b44E>
    24a4:	8d 44 24 48          	lea    0x48(%esp),%eax
    24a8:	8b 4c 24 44          	mov    0x44(%esp),%ecx
    24ac:	89 4c 24 0c          	mov    %ecx,0xc(%esp)
    24b0:	89 4c 24 10          	mov    %ecx,0x10(%esp)
    24b4:	89 44 24 14          	mov    %eax,0x14(%esp)
    24b8:	8d 54 24 0c          	lea    0xc(%esp),%edx
    24bc:	b8 02 00 00 00       	mov    $0x2,%eax
    24c1:	cd 80                	int    $0x80
    24c3:	81 c4 48 01 00 00    	add    $0x148,%esp
    24c9:	5b                   	pop    %ebx
    24ca:	c3                   	ret
    24cb:	66 90                	xchg   %ax,%ax
    24cd:	66 90                	xchg   %ax,%ax
    24cf:	90                   	nop

000024d0 <_ZN72_$LT$kernel_lib..logging..BufferedLogger$u20$as$u20$core..fmt..Write$GT$9write_str17h56f3b3d99b2eed83E>:
    24d0:	53                   	push   %ebx
    24d1:	57                   	push   %edi
    24d2:	56                   	push   %esi
    24d3:	e8 00 00 00 00       	call   24d8 <_ZN72_$LT$kernel_lib..logging..BufferedLogger$u20$as$u20$core..fmt..Write$GT$9write_str17h56f3b3d99b2eed83E+0x8>
    24d8:	5b                   	pop    %ebx
    24d9:	81 c3 1c 5b 00 00    	add    $0x5b1c,%ebx
    24df:	8b 44 24 18          	mov    0x18(%esp),%eax
    24e3:	8b 7c 24 10          	mov    0x10(%esp),%edi
    24e7:	8b 0f                	mov    (%edi),%ecx
    24e9:	8d 34 01             	lea    (%ecx,%eax,1),%esi
    24ec:	81 fe 00 01 00 00    	cmp    $0x100,%esi
    24f2:	0f 93 c2             	setae  %dl
    24f5:	85 c0                	test   %eax,%eax
    24f7:	0f 94 c6             	sete   %dh
    24fa:	08 d6                	or     %dl,%dh
    24fc:	75 18                	jne    2516 <_ZN72_$LT$kernel_lib..logging..BufferedLogger$u20$as$u20$core..fmt..Write$GT$9write_str17h56f3b3d99b2eed83E+0x46>
    24fe:	01 f9                	add    %edi,%ecx
    2500:	83 c1 04             	add    $0x4,%ecx
    2503:	83 ec 04             	sub    $0x4,%esp
    2506:	50                   	push   %eax
    2507:	ff 74 24 1c          	push   0x1c(%esp)
    250b:	51                   	push   %ecx
    250c:	e8 5f 35 00 00       	call   5a70 <memcpy>
    2511:	83 c4 10             	add    $0x10,%esp
    2514:	89 37                	mov    %esi,(%edi)
    2516:	81 fe 00 01 00 00    	cmp    $0x100,%esi
    251c:	0f 93 c0             	setae  %al
    251f:	5e                   	pop    %esi
    2520:	5f                   	pop    %edi
    2521:	5b                   	pop    %ebx
    2522:	c3                   	ret
    2523:	66 90                	xchg   %ax,%ax
    2525:	66 90                	xchg   %ax,%ax
    2527:	66 90                	xchg   %ax,%ax
    2529:	66 90                	xchg   %ax,%ax
    252b:	66 90                	xchg   %ax,%ax
    252d:	66 90                	xchg   %ax,%ax
    252f:	90                   	nop

00002530 <_ZN10kernel_lib7process4exit17h539a92ab3ef90dd1E>:
    2530:	53                   	push   %ebx
    2531:	83 ec 58             	sub    $0x58,%esp
    2534:	e8 00 00 00 00       	call   2539 <_ZN10kernel_lib7process4exit17h539a92ab3ef90dd1E+0x9>
    2539:	5b                   	pop    %ebx
    253a:	81 c3 bb 5a 00 00    	add    $0x5abb,%ebx
    2540:	89 4c 24 08          	mov    %ecx,0x8(%esp)
    2544:	8b 83 14 50 00 00    	mov    0x5014(%ebx),%eax
    254a:	83 f8 02             	cmp    $0x2,%eax
    254d:	0f 86 d0 00 00 00    	jbe    2623 <_ZN10kernel_lib7process4exit17h539a92ab3ef90dd1E+0xf3>
    2553:	8d 44 24 08          	lea    0x8(%esp),%eax
    2557:	89 44 24 0c          	mov    %eax,0xc(%esp)
    255b:	8d 83 ec d6 ff ff    	lea    -0x2914(%ebx),%eax
    2561:	89 44 24 10          	mov    %eax,0x10(%esp)
    2565:	c7 44 24 34 03 00 00 	movl   $0x3,0x34(%esp)
    256c:	00 
    256d:	8d 83 a2 e8 ff ff    	lea    -0x175e(%ebx),%eax
    2573:	89 44 24 38          	mov    %eax,0x38(%esp)
    2577:	c7 44 24 3c 13 00 00 	movl   $0x13,0x3c(%esp)
    257e:	00 
    257f:	8d 8b b0 fd ff ff    	lea    -0x250(%ebx),%ecx
    2585:	89 4c 24 40          	mov    %ecx,0x40(%esp)
    2589:	c7 44 24 44 01 00 00 	movl   $0x1,0x44(%esp)
    2590:	00 
    2591:	8d 4c 24 0c          	lea    0xc(%esp),%ecx
    2595:	89 4c 24 48          	mov    %ecx,0x48(%esp)
    2599:	c7 44 24 4c 01 00 00 	movl   $0x1,0x4c(%esp)
    25a0:	00 
    25a1:	c7 44 24 50 00 00 00 	movl   $0x0,0x50(%esp)
    25a8:	00 
    25a9:	c7 44 24 1c 00 00 00 	movl   $0x0,0x1c(%esp)
    25b0:	00 
    25b1:	89 44 24 20          	mov    %eax,0x20(%esp)
    25b5:	c7 44 24 24 13 00 00 	movl   $0x13,0x24(%esp)
    25bc:	00 
    25bd:	c7 44 24 28 00 00 00 	movl   $0x0,0x28(%esp)
    25c4:	00 
    25c5:	8d 83 5b e8 ff ff    	lea    -0x17a5(%ebx),%eax
    25cb:	89 44 24 2c          	mov    %eax,0x2c(%esp)
    25cf:	c7 44 24 30 47 00 00 	movl   $0x47,0x30(%esp)
    25d6:	00 
    25d7:	c7 44 24 14 01 00 00 	movl   $0x1,0x14(%esp)
    25de:	00 
    25df:	c7 44 24 18 04 00 00 	movl   $0x4,0x18(%esp)
    25e6:	00 
    25e7:	8b 83 10 50 00 00    	mov    0x5010(%ebx),%eax
    25ed:	83 f8 02             	cmp    $0x2,%eax
    25f0:	74 10                	je     2602 <_ZN10kernel_lib7process4exit17h539a92ab3ef90dd1E+0xd2>
    25f2:	8d 83 18 ff ff ff    	lea    -0xe8(%ebx),%eax
    25f8:	75 10                	jne    260a <_ZN10kernel_lib7process4exit17h539a92ab3ef90dd1E+0xda>
    25fa:	8b 8b 24 00 00 00    	mov    0x24(%ebx),%ecx
    2600:	eb 0e                	jmp    2610 <_ZN10kernel_lib7process4exit17h539a92ab3ef90dd1E+0xe0>
    2602:	8b 83 28 00 00 00    	mov    0x28(%ebx),%eax
    2608:	74 f0                	je     25fa <_ZN10kernel_lib7process4exit17h539a92ab3ef90dd1E+0xca>
    260a:	8d 8b 10 ee ff ff    	lea    -0x11f0(%ebx),%ecx
    2610:	83 ec 08             	sub    $0x8,%esp
    2613:	8d 54 24 1c          	lea    0x1c(%esp),%edx
    2617:	52                   	push   %edx
    2618:	51                   	push   %ecx
    2619:	ff 50 10             	call   *0x10(%eax)
    261c:	83 c4 10             	add    $0x10,%esp
    261f:	8b 4c 24 08          	mov    0x8(%esp),%ecx
    2623:	b8 89 00 00 00       	mov    $0x89,%eax
    2628:	89 ca                	mov    %ecx,%edx
    262a:	cd 50                	int    $0x50
    262c:	0f 0b                	ud2
    262e:	66 90                	xchg   %ax,%ax

00002630 <_ZN10kernel_lib2rt11module_task17h654dfcef85848845E>:
    2630:	55                   	push   %ebp
    2631:	53                   	push   %ebx
    2632:	57                   	push   %edi
    2633:	56                   	push   %esi
    2634:	81 ec 9c 00 00 00    	sub    $0x9c,%esp
    263a:	89 d6                	mov    %edx,%esi
    263c:	89 cd                	mov    %ecx,%ebp
    263e:	e8 00 00 00 00       	call   2643 <_ZN10kernel_lib2rt11module_task17h654dfcef85848845E+0x13>
    2643:	5b                   	pop    %ebx
    2644:	81 c3 b1 59 00 00    	add    $0x59b1,%ebx
    264a:	8d 54 24 0c          	lea    0xc(%esp),%edx
    264e:	b8 87 00 00 00       	mov    $0x87,%eax
    2653:	cd 80                	int    $0x80
    2655:	8d 48 ff             	lea    -0x1(%eax),%ecx
    2658:	83 f9 0a             	cmp    $0xa,%ecx
    265b:	0f 83 f0 00 00 00    	jae    2751 <_ZN10kernel_lib2rt11module_task17h654dfcef85848845E+0x121>
    2661:	89 c1                	mov    %eax,%ecx
    2663:	89 4c 24 68          	mov    %ecx,0x68(%esp)
    2667:	8b 83 14 50 00 00    	mov    0x5014(%ebx),%eax
    266d:	85 c0                	test   %eax,%eax
    266f:	75 0a                	jne    267b <_ZN10kernel_lib2rt11module_task17h654dfcef85848845E+0x4b>
    2671:	b9 20 00 00 00       	mov    $0x20,%ecx
    2676:	e8 b5 fe ff ff       	call   2530 <_ZN10kernel_lib7process4exit17h539a92ab3ef90dd1E>
    267b:	8d 44 24 68          	lea    0x68(%esp),%eax
    267f:	89 44 24 54          	mov    %eax,0x54(%esp)
    2683:	8d 83 2c a3 ff ff    	lea    -0x5cd4(%ebx),%eax
    2689:	89 44 24 58          	mov    %eax,0x58(%esp)
    268d:	c7 44 24 2c 01 00 00 	movl   $0x1,0x2c(%esp)
    2694:	00 
    2695:	8d 83 15 e9 ff ff    	lea    -0x16eb(%ebx),%eax
    269b:	89 44 24 30          	mov    %eax,0x30(%esp)
    269f:	c7 44 24 34 0e 00 00 	movl   $0xe,0x34(%esp)
    26a6:	00 
    26a7:	8d 8b b8 fd ff ff    	lea    -0x248(%ebx),%ecx
    26ad:	89 4c 24 38          	mov    %ecx,0x38(%esp)
    26b1:	c7 44 24 3c 01 00 00 	movl   $0x1,0x3c(%esp)
    26b8:	00 
    26b9:	8d 4c 24 54          	lea    0x54(%esp),%ecx
    26bd:	89 4c 24 40          	mov    %ecx,0x40(%esp)
    26c1:	c7 44 24 44 01 00 00 	movl   $0x1,0x44(%esp)
    26c8:	00 
    26c9:	c7 44 24 48 00 00 00 	movl   $0x0,0x48(%esp)
    26d0:	00 
    26d1:	c7 44 24 14 00 00 00 	movl   $0x0,0x14(%esp)
    26d8:	00 
    26d9:	89 44 24 18          	mov    %eax,0x18(%esp)
    26dd:	c7 44 24 1c 0e 00 00 	movl   $0xe,0x1c(%esp)
    26e4:	00 
    26e5:	c7 44 24 20 00 00 00 	movl   $0x0,0x20(%esp)
    26ec:	00 
    26ed:	8d 83 d3 e8 ff ff    	lea    -0x172d(%ebx),%eax
    26f3:	89 44 24 24          	mov    %eax,0x24(%esp)
    26f7:	c7 44 24 28 42 00 00 	movl   $0x42,0x28(%esp)
    26fe:	00 
    26ff:	c7 44 24 0c 01 00 00 	movl   $0x1,0xc(%esp)
    2706:	00 
    2707:	c7 44 24 10 38 00 00 	movl   $0x38,0x10(%esp)
    270e:	00 
    270f:	8b 83 10 50 00 00    	mov    0x5010(%ebx),%eax
    2715:	83 f8 02             	cmp    $0x2,%eax
    2718:	74 10                	je     272a <_ZN10kernel_lib2rt11module_task17h654dfcef85848845E+0xfa>
    271a:	8d 83 18 ff ff ff    	lea    -0xe8(%ebx),%eax
    2720:	75 10                	jne    2732 <_ZN10kernel_lib2rt11module_task17h654dfcef85848845E+0x102>
    2722:	8b 8b 24 00 00 00    	mov    0x24(%ebx),%ecx
    2728:	eb 0e                	jmp    2738 <_ZN10kernel_lib2rt11module_task17h654dfcef85848845E+0x108>
    272a:	8b 83 28 00 00 00    	mov    0x28(%ebx),%eax
    2730:	74 f0                	je     2722 <_ZN10kernel_lib2rt11module_task17h654dfcef85848845E+0xf2>
    2732:	8d 8b 10 ee ff ff    	lea    -0x11f0(%ebx),%ecx
    2738:	83 ec 08             	sub    $0x8,%esp
    273b:	8d 54 24 14          	lea    0x14(%esp),%edx
    273f:	52                   	push   %edx
    2740:	51                   	push   %ecx
    2741:	ff 50 10             	call   *0x10(%eax)
    2744:	83 c4 10             	add    $0x10,%esp
    2747:	b9 20 00 00 00       	mov    $0x20,%ecx
    274c:	e8 df fd ff ff       	call   2530 <_ZN10kernel_lib7process4exit17h539a92ab3ef90dd1E>
    2751:	b9 42 00 00 00       	mov    $0x42,%ecx
    2756:	85 c0                	test   %eax,%eax
    2758:	0f 85 05 ff ff ff    	jne    2663 <_ZN10kernel_lib2rt11module_task17h654dfcef85848845E+0x33>
    275e:	8b 4c 24 0c          	mov    0xc(%esp),%ecx
    2762:	8b 44 24 10          	mov    0x10(%esp),%eax
    2766:	8b 54 24 14          	mov    0x14(%esp),%edx
    276a:	89 94 24 88 00 00 00 	mov    %edx,0x88(%esp)
    2771:	8b 84 83 5c e3 ff ff 	mov    -0x1ca4(%ebx,%eax,4),%eax
    2778:	01 d8                	add    %ebx,%eax
    277a:	ff e0                	jmp    *%eax
    277c:	83 fd 01             	cmp    $0x1,%ebp
    277f:	0f 85 0e 08 00 00    	jne    2f93 <_ZN10kernel_lib2rt11module_task17h654dfcef85848845E+0x963>
    2785:	8d 83 1c 94 ff ff    	lea    -0x6be4(%ebx),%eax
    278b:	89 44 24 64          	mov    %eax,0x64(%esp)
    278f:	8d ab 13 e6 ff ff    	lea    -0x19ed(%ebx),%ebp
    2795:	8d 83 18 fd ff ff    	lea    -0x2e8(%ebx),%eax
    279b:	89 44 24 78          	mov    %eax,0x78(%esp)
    279f:	8d b3 ac e5 ff ff    	lea    -0x1a54(%ebx),%esi
    27a5:	8d 83 18 ff ff ff    	lea    -0xe8(%ebx),%eax
    27ab:	89 84 24 80 00 00 00 	mov    %eax,0x80(%esp)
    27b2:	8d 83 10 ee ff ff    	lea    -0x11f0(%ebx),%eax
    27b8:	89 44 24 7c          	mov    %eax,0x7c(%esp)
    27bc:	8d 83 5c d6 ff ff    	lea    -0x29a4(%ebx),%eax
    27c2:	89 84 24 90 00 00 00 	mov    %eax,0x90(%esp)
    27c9:	8d bb 3b ed ff ff    	lea    -0x12c5(%ebx),%edi
    27cf:	8d 83 08 ff ff ff    	lea    -0xf8(%ebx),%eax
    27d5:	89 84 24 8c 00 00 00 	mov    %eax,0x8c(%esp)
    27dc:	8d 83 d3 ec ff ff    	lea    -0x132d(%ebx),%eax
    27e2:	89 84 24 84 00 00 00 	mov    %eax,0x84(%esp)
    27e9:	8d 83 3c d9 ff ff    	lea    -0x26c4(%ebx),%eax
    27ef:	89 84 24 94 00 00 00 	mov    %eax,0x94(%esp)
    27f6:	eb 15                	jmp    280d <_ZN10kernel_lib2rt11module_task17h654dfcef85848845E+0x1dd>
    27f8:	8d 8b 10 ee ff ff    	lea    -0x11f0(%ebx),%ecx
    27fe:	83 ec 08             	sub    $0x8,%esp
    2801:	8d 54 24 14          	lea    0x14(%esp),%edx
    2805:	52                   	push   %edx
    2806:	51                   	push   %ecx
    2807:	ff 50 10             	call   *0x10(%eax)
    280a:	83 c4 10             	add    $0x10,%esp
    280d:	8b 8c 24 88 00 00 00 	mov    0x88(%esp),%ecx
    2814:	8d 54 24 68          	lea    0x68(%esp),%edx
    2818:	b8 8e 00 00 00       	mov    $0x8e,%eax
    281d:	cd 80                	int    $0x80
    281f:	8d 48 ff             	lea    -0x1(%eax),%ecx
    2822:	83 f9 0a             	cmp    $0xa,%ecx
    2825:	0f 83 c2 01 00 00    	jae    29ed <_ZN10kernel_lib2rt11module_task17h654dfcef85848845E+0x3bd>
    282b:	89 c1                	mov    %eax,%ecx
    282d:	89 4c 24 08          	mov    %ecx,0x8(%esp)
    2831:	8d 44 24 08          	lea    0x8(%esp),%eax
    2835:	89 44 24 50          	mov    %eax,0x50(%esp)
    2839:	8b 83 14 50 00 00    	mov    0x5014(%ebx),%eax
    283f:	85 c0                	test   %eax,%eax
    2841:	0f 84 9b 0d 00 00    	je     35e2 <_ZN10kernel_lib2rt11module_task17h654dfcef85848845E+0xfb2>
    2847:	8d 44 24 50          	lea    0x50(%esp),%eax
    284b:	89 44 24 54          	mov    %eax,0x54(%esp)
    284f:	8b 44 24 64          	mov    0x64(%esp),%eax
    2853:	89 44 24 58          	mov    %eax,0x58(%esp)
    2857:	c7 44 24 2c 01 00 00 	movl   $0x1,0x2c(%esp)
    285e:	00 
    285f:	89 6c 24 30          	mov    %ebp,0x30(%esp)
    2863:	c7 44 24 34 1b 00 00 	movl   $0x1b,0x34(%esp)
    286a:	00 
    286b:	8b 44 24 78          	mov    0x78(%esp),%eax
    286f:	89 44 24 38          	mov    %eax,0x38(%esp)
    2873:	c7 44 24 3c 01 00 00 	movl   $0x1,0x3c(%esp)
    287a:	00 
    287b:	8d 44 24 54          	lea    0x54(%esp),%eax
    287f:	89 44 24 40          	mov    %eax,0x40(%esp)
    2883:	c7 44 24 44 01 00 00 	movl   $0x1,0x44(%esp)
    288a:	00 
    288b:	c7 44 24 48 00 00 00 	movl   $0x0,0x48(%esp)
    2892:	00 
    2893:	c7 44 24 14 00 00 00 	movl   $0x0,0x14(%esp)
    289a:	00 
    289b:	89 6c 24 18          	mov    %ebp,0x18(%esp)
    289f:	c7 44 24 1c 1b 00 00 	movl   $0x1b,0x1c(%esp)
    28a6:	00 
    28a7:	c7 44 24 20 00 00 00 	movl   $0x0,0x20(%esp)
    28ae:	00 
    28af:	89 74 24 24          	mov    %esi,0x24(%esp)
    28b3:	c7 44 24 28 4a 00 00 	movl   $0x4a,0x28(%esp)
    28ba:	00 
    28bb:	c7 44 24 0c 01 00 00 	movl   $0x1,0xc(%esp)
    28c2:	00 
    28c3:	c7 44 24 10 23 00 00 	movl   $0x23,0x10(%esp)
    28ca:	00 
    28cb:	8b 83 10 50 00 00    	mov    0x5010(%ebx),%eax
    28d1:	83 f8 02             	cmp    $0x2,%eax
    28d4:	74 1a                	je     28f0 <_ZN10kernel_lib2rt11module_task17h654dfcef85848845E+0x2c0>
    28d6:	8b 84 24 80 00 00 00 	mov    0x80(%esp),%eax
    28dd:	75 19                	jne    28f8 <_ZN10kernel_lib2rt11module_task17h654dfcef85848845E+0x2c8>
    28df:	8b 8b 24 00 00 00    	mov    0x24(%ebx),%ecx
    28e5:	eb 15                	jmp    28fc <_ZN10kernel_lib2rt11module_task17h654dfcef85848845E+0x2cc>
    28e7:	90                   	nop
    28e8:	90                   	nop
    28e9:	90                   	nop
    28ea:	90                   	nop
    28eb:	90                   	nop
    28ec:	90                   	nop
    28ed:	90                   	nop
    28ee:	90                   	nop
    28ef:	90                   	nop
    28f0:	8b 83 28 00 00 00    	mov    0x28(%ebx),%eax
    28f6:	74 e7                	je     28df <_ZN10kernel_lib2rt11module_task17h654dfcef85848845E+0x2af>
    28f8:	8b 4c 24 7c          	mov    0x7c(%esp),%ecx
    28fc:	83 ec 08             	sub    $0x8,%esp
    28ff:	8d 54 24 14          	lea    0x14(%esp),%edx
    2903:	52                   	push   %edx
    2904:	51                   	push   %ecx
    2905:	ff 50 10             	call   *0x10(%eax)
    2908:	83 c4 10             	add    $0x10,%esp
    290b:	83 7c 24 08 00       	cmpl   $0x0,0x8(%esp)
    2910:	0f 85 cc 0c 00 00    	jne    35e2 <_ZN10kernel_lib2rt11module_task17h654dfcef85848845E+0xfb2>
    2916:	83 7c 24 68 03       	cmpl   $0x3,0x68(%esp)
    291b:	0f 84 c1 0c 00 00    	je     35e2 <_ZN10kernel_lib2rt11module_task17h654dfcef85848845E+0xfb2>
    2921:	8b 54 24 6c          	mov    0x6c(%esp),%edx
    2925:	89 54 24 08          	mov    %edx,0x8(%esp)
    2929:	85 d2                	test   %edx,%edx
    292b:	0f 84 dc fe ff ff    	je     280d <_ZN10kernel_lib2rt11module_task17h654dfcef85848845E+0x1dd>
    2931:	8b 83 14 50 00 00    	mov    0x5014(%ebx),%eax
    2937:	83 f8 03             	cmp    $0x3,%eax
    293a:	0f 86 de 00 00 00    	jbe    2a1e <_ZN10kernel_lib2rt11module_task17h654dfcef85848845E+0x3ee>
    2940:	8d 44 24 08          	lea    0x8(%esp),%eax
    2944:	89 44 24 54          	mov    %eax,0x54(%esp)
    2948:	8b 84 24 90 00 00 00 	mov    0x90(%esp),%eax
    294f:	89 44 24 58          	mov    %eax,0x58(%esp)
    2953:	c7 44 24 2c 04 00 00 	movl   $0x4,0x2c(%esp)
    295a:	00 
    295b:	89 7c 24 30          	mov    %edi,0x30(%esp)
    295f:	c7 44 24 34 1c 00 00 	movl   $0x1c,0x34(%esp)
    2966:	00 
    2967:	8b 84 24 8c 00 00 00 	mov    0x8c(%esp),%eax
    296e:	89 44 24 38          	mov    %eax,0x38(%esp)
    2972:	c7 44 24 3c 01 00 00 	movl   $0x1,0x3c(%esp)
    2979:	00 
    297a:	8d 44 24 54          	lea    0x54(%esp),%eax
    297e:	89 44 24 40          	mov    %eax,0x40(%esp)
    2982:	c7 44 24 44 01 00 00 	movl   $0x1,0x44(%esp)
    2989:	00 
    298a:	c7 44 24 48 00 00 00 	movl   $0x0,0x48(%esp)
    2991:	00 
    2992:	c7 44 24 14 00 00 00 	movl   $0x0,0x14(%esp)
    2999:	00 
    299a:	89 7c 24 18          	mov    %edi,0x18(%esp)
    299e:	c7 44 24 1c 1c 00 00 	movl   $0x1c,0x1c(%esp)
    29a5:	00 
    29a6:	c7 44 24 20 00 00 00 	movl   $0x0,0x20(%esp)
    29ad:	00 
    29ae:	8b 84 24 84 00 00 00 	mov    0x84(%esp),%eax
    29b5:	89 44 24 24          	mov    %eax,0x24(%esp)
    29b9:	c7 44 24 28 4b 00 00 	movl   $0x4b,0x28(%esp)
    29c0:	00 
    29c1:	c7 44 24 0c 01 00 00 	movl   $0x1,0xc(%esp)
    29c8:	00 
    29c9:	c7 44 24 10 51 00 00 	movl   $0x51,0x10(%esp)
    29d0:	00 
    29d1:	8b 83 10 50 00 00    	mov    0x5010(%ebx),%eax
    29d7:	83 f8 02             	cmp    $0x2,%eax
    29da:	74 23                	je     29ff <_ZN10kernel_lib2rt11module_task17h654dfcef85848845E+0x3cf>
    29dc:	8b 84 24 80 00 00 00 	mov    0x80(%esp),%eax
    29e3:	75 22                	jne    2a07 <_ZN10kernel_lib2rt11module_task17h654dfcef85848845E+0x3d7>
    29e5:	8b 8b 24 00 00 00    	mov    0x24(%ebx),%ecx
    29eb:	eb 1e                	jmp    2a0b <_ZN10kernel_lib2rt11module_task17h654dfcef85848845E+0x3db>
    29ed:	b9 42 00 00 00       	mov    $0x42,%ecx
    29f2:	85 c0                	test   %eax,%eax
    29f4:	0f 84 1c ff ff ff    	je     2916 <_ZN10kernel_lib2rt11module_task17h654dfcef85848845E+0x2e6>
    29fa:	e9 2e fe ff ff       	jmp    282d <_ZN10kernel_lib2rt11module_task17h654dfcef85848845E+0x1fd>
    29ff:	8b 83 28 00 00 00    	mov    0x28(%ebx),%eax
    2a05:	74 de                	je     29e5 <_ZN10kernel_lib2rt11module_task17h654dfcef85848845E+0x3b5>
    2a07:	8b 4c 24 7c          	mov    0x7c(%esp),%ecx
    2a0b:	83 ec 08             	sub    $0x8,%esp
    2a0e:	8d 54 24 14          	lea    0x14(%esp),%edx
    2a12:	52                   	push   %edx
    2a13:	51                   	push   %ecx
    2a14:	ff 50 10             	call   *0x10(%eax)
    2a17:	83 c4 10             	add    $0x10,%esp
    2a1a:	8b 54 24 08          	mov    0x8(%esp),%edx
    2a1e:	b8 8d 00 00 00       	mov    $0x8d,%eax
    2a23:	cd 80                	int    $0x80
    2a25:	8d 48 ff             	lea    -0x1(%eax),%ecx
    2a28:	83 f9 0a             	cmp    $0xa,%ecx
    2a2b:	0f 83 da 00 00 00    	jae    2b0b <_ZN10kernel_lib2rt11module_task17h654dfcef85848845E+0x4db>
    2a31:	89 44 24 50          	mov    %eax,0x50(%esp)
    2a35:	8d 44 24 50          	lea    0x50(%esp),%eax
    2a39:	89 44 24 68          	mov    %eax,0x68(%esp)
    2a3d:	8b 83 14 50 00 00    	mov    0x5014(%ebx),%eax
    2a43:	85 c0                	test   %eax,%eax
    2a45:	0f 84 c2 fd ff ff    	je     280d <_ZN10kernel_lib2rt11module_task17h654dfcef85848845E+0x1dd>
    2a4b:	8d 44 24 68          	lea    0x68(%esp),%eax
    2a4f:	89 44 24 54          	mov    %eax,0x54(%esp)
    2a53:	8b 84 24 94 00 00 00 	mov    0x94(%esp),%eax
    2a5a:	89 44 24 58          	mov    %eax,0x58(%esp)
    2a5e:	c7 44 24 2c 01 00 00 	movl   $0x1,0x2c(%esp)
    2a65:	00 
    2a66:	89 7c 24 30          	mov    %edi,0x30(%esp)
    2a6a:	c7 44 24 34 1c 00 00 	movl   $0x1c,0x34(%esp)
    2a71:	00 
    2a72:	8d 83 10 ff ff ff    	lea    -0xf0(%ebx),%eax
    2a78:	89 44 24 38          	mov    %eax,0x38(%esp)
    2a7c:	c7 44 24 3c 01 00 00 	movl   $0x1,0x3c(%esp)
    2a83:	00 
    2a84:	8d 44 24 54          	lea    0x54(%esp),%eax
    2a88:	89 44 24 40          	mov    %eax,0x40(%esp)
    2a8c:	c7 44 24 44 01 00 00 	movl   $0x1,0x44(%esp)
    2a93:	00 
    2a94:	c7 44 24 48 00 00 00 	movl   $0x0,0x48(%esp)
    2a9b:	00 
    2a9c:	c7 44 24 14 00 00 00 	movl   $0x0,0x14(%esp)
    2aa3:	00 
    2aa4:	89 7c 24 18          	mov    %edi,0x18(%esp)
    2aa8:	c7 44 24 1c 1c 00 00 	movl   $0x1c,0x1c(%esp)
    2aaf:	00 
    2ab0:	c7 44 24 20 00 00 00 	movl   $0x0,0x20(%esp)
    2ab7:	00 
    2ab8:	8b 84 24 84 00 00 00 	mov    0x84(%esp),%eax
    2abf:	89 44 24 24          	mov    %eax,0x24(%esp)
    2ac3:	c7 44 24 28 4b 00 00 	movl   $0x4b,0x28(%esp)
    2aca:	00 
    2acb:	c7 44 24 0c 01 00 00 	movl   $0x1,0xc(%esp)
    2ad2:	00 
    2ad3:	c7 44 24 10 59 00 00 	movl   $0x59,0x10(%esp)
    2ada:	00 
    2adb:	8b 83 10 50 00 00    	mov    0x5010(%ebx),%eax
    2ae1:	83 f8 02             	cmp    $0x2,%eax
    2ae4:	74 0e                	je     2af4 <_ZN10kernel_lib2rt11module_task17h654dfcef85848845E+0x4c4>
    2ae6:	8d 83 18 ff ff ff    	lea    -0xe8(%ebx),%eax
    2aec:	0f 85 06 fd ff ff    	jne    27f8 <_ZN10kernel_lib2rt11module_task17h654dfcef85848845E+0x1c8>
    2af2:	eb 0c                	jmp    2b00 <_ZN10kernel_lib2rt11module_task17h654dfcef85848845E+0x4d0>
    2af4:	8b 83 28 00 00 00    	mov    0x28(%ebx),%eax
    2afa:	0f 85 f8 fc ff ff    	jne    27f8 <_ZN10kernel_lib2rt11module_task17h654dfcef85848845E+0x1c8>
    2b00:	8b 8b 24 00 00 00    	mov    0x24(%ebx),%ecx
    2b06:	e9 f3 fc ff ff       	jmp    27fe <_ZN10kernel_lib2rt11module_task17h654dfcef85848845E+0x1ce>
    2b0b:	85 c0                	test   %eax,%eax
    2b0d:	b8 42 00 00 00       	mov    $0x42,%eax
    2b12:	0f 84 f5 fc ff ff    	je     280d <_ZN10kernel_lib2rt11module_task17h654dfcef85848845E+0x1dd>
    2b18:	e9 14 ff ff ff       	jmp    2a31 <_ZN10kernel_lib2rt11module_task17h654dfcef85848845E+0x401>
    2b1d:	83 fd 02             	cmp    $0x2,%ebp
    2b20:	0f 85 6d 04 00 00    	jne    2f93 <_ZN10kernel_lib2rt11module_task17h654dfcef85848845E+0x963>
    2b26:	89 74 24 78          	mov    %esi,0x78(%esp)
    2b2a:	8b 83 14 50 00 00    	mov    0x5014(%ebx),%eax
    2b30:	8d 8b 15 e9 ff ff    	lea    -0x16eb(%ebx),%ecx
    2b36:	89 4c 24 64          	mov    %ecx,0x64(%esp)
    2b3a:	83 f8 03             	cmp    $0x3,%eax
    2b3d:	0f 86 9d 04 00 00    	jbe    2fe0 <_ZN10kernel_lib2rt11module_task17h654dfcef85848845E+0x9b0>
    2b43:	c7 44 24 2c 04 00 00 	movl   $0x4,0x2c(%esp)
    2b4a:	00 
    2b4b:	8b 4c 24 64          	mov    0x64(%esp),%ecx
    2b4f:	89 4c 24 30          	mov    %ecx,0x30(%esp)
    2b53:	c7 44 24 34 0e 00 00 	movl   $0xe,0x34(%esp)
    2b5a:	00 
    2b5b:	8d 83 c0 fd ff ff    	lea    -0x240(%ebx),%eax
    2b61:	89 44 24 38          	mov    %eax,0x38(%esp)
    2b65:	c7 44 24 3c 01 00 00 	movl   $0x1,0x3c(%esp)
    2b6c:	00 
    2b6d:	c7 44 24 40 04 00 00 	movl   $0x4,0x40(%esp)
    2b74:	00 
    2b75:	c7 44 24 44 00 00 00 	movl   $0x0,0x44(%esp)
    2b7c:	00 
    2b7d:	c7 44 24 48 00 00 00 	movl   $0x0,0x48(%esp)
    2b84:	00 
    2b85:	c7 44 24 14 00 00 00 	movl   $0x0,0x14(%esp)
    2b8c:	00 
    2b8d:	89 4c 24 18          	mov    %ecx,0x18(%esp)
    2b91:	c7 44 24 1c 0e 00 00 	movl   $0xe,0x1c(%esp)
    2b98:	00 
    2b99:	c7 44 24 20 00 00 00 	movl   $0x0,0x20(%esp)
    2ba0:	00 
    2ba1:	8d 83 d3 e8 ff ff    	lea    -0x172d(%ebx),%eax
    2ba7:	89 44 24 24          	mov    %eax,0x24(%esp)
    2bab:	c7 44 24 28 42 00 00 	movl   $0x42,0x28(%esp)
    2bb2:	00 
    2bb3:	c7 44 24 0c 01 00 00 	movl   $0x1,0xc(%esp)
    2bba:	00 
    2bbb:	c7 44 24 10 61 00 00 	movl   $0x61,0x10(%esp)
    2bc2:	00 
    2bc3:	8b 83 10 50 00 00    	mov    0x5010(%ebx),%eax
    2bc9:	83 f8 02             	cmp    $0x2,%eax
    2bcc:	0f 84 cb 03 00 00    	je     2f9d <_ZN10kernel_lib2rt11module_task17h654dfcef85848845E+0x96d>
    2bd2:	8d 83 18 ff ff ff    	lea    -0xe8(%ebx),%eax
    2bd8:	e9 c6 03 00 00       	jmp    2fa3 <_ZN10kernel_lib2rt11module_task17h654dfcef85848845E+0x973>
    2bdd:	85 ed                	test   %ebp,%ebp
    2bdf:	0f 85 ae 03 00 00    	jne    2f93 <_ZN10kernel_lib2rt11module_task17h654dfcef85848845E+0x963>
    2be5:	8d 83 1c 94 ff ff    	lea    -0x6be4(%ebx),%eax
    2beb:	89 44 24 64          	mov    %eax,0x64(%esp)
    2bef:	8d bb 13 e6 ff ff    	lea    -0x19ed(%ebx),%edi
    2bf5:	8d ab 18 fd ff ff    	lea    -0x2e8(%ebx),%ebp
    2bfb:	8d b3 ac e5 ff ff    	lea    -0x1a54(%ebx),%esi
    2c01:	8d 83 18 ff ff ff    	lea    -0xe8(%ebx),%eax
    2c07:	89 44 24 78          	mov    %eax,0x78(%esp)
    2c0b:	8d 83 10 ee ff ff    	lea    -0x11f0(%ebx),%eax
    2c11:	89 84 24 84 00 00 00 	mov    %eax,0x84(%esp)
    2c18:	8d 83 5c d6 ff ff    	lea    -0x29a4(%ebx),%eax
    2c1e:	89 84 24 90 00 00 00 	mov    %eax,0x90(%esp)
    2c25:	8d 83 3b ed ff ff    	lea    -0x12c5(%ebx),%eax
    2c2b:	89 84 24 80 00 00 00 	mov    %eax,0x80(%esp)
    2c32:	8d 83 08 ff ff ff    	lea    -0xf8(%ebx),%eax
    2c38:	89 84 24 8c 00 00 00 	mov    %eax,0x8c(%esp)
    2c3f:	8d 83 d3 ec ff ff    	lea    -0x132d(%ebx),%eax
    2c45:	89 44 24 7c          	mov    %eax,0x7c(%esp)
    2c49:	8d 83 3c d9 ff ff    	lea    -0x26c4(%ebx),%eax
    2c4f:	89 84 24 94 00 00 00 	mov    %eax,0x94(%esp)
    2c56:	eb 18                	jmp    2c70 <_ZN10kernel_lib2rt11module_task17h654dfcef85848845E+0x640>
    2c58:	8d 8b 10 ee ff ff    	lea    -0x11f0(%ebx),%ecx
    2c5e:	83 ec 08             	sub    $0x8,%esp
    2c61:	8d 54 24 14          	lea    0x14(%esp),%edx
    2c65:	52                   	push   %edx
    2c66:	51                   	push   %ecx
    2c67:	ff 50 10             	call   *0x10(%eax)
    2c6a:	83 c4 10             	add    $0x10,%esp
    2c6d:	90                   	nop
    2c6e:	90                   	nop
    2c6f:	90                   	nop
    2c70:	8b 8c 24 88 00 00 00 	mov    0x88(%esp),%ecx
    2c77:	8d 54 24 54          	lea    0x54(%esp),%edx
    2c7b:	b8 8e 00 00 00       	mov    $0x8e,%eax
    2c80:	cd 80                	int    $0x80
    2c82:	8d 48 ff             	lea    -0x1(%eax),%ecx
    2c85:	83 f9 0a             	cmp    $0xa,%ecx
    2c88:	0f 83 ce 01 00 00    	jae    2e5c <_ZN10kernel_lib2rt11module_task17h654dfcef85848845E+0x82c>
    2c8e:	89 c1                	mov    %eax,%ecx
    2c90:	89 4c 24 08          	mov    %ecx,0x8(%esp)
    2c94:	8d 44 24 08          	lea    0x8(%esp),%eax
    2c98:	89 44 24 50          	mov    %eax,0x50(%esp)
    2c9c:	8b 83 14 50 00 00    	mov    0x5014(%ebx),%eax
    2ca2:	85 c0                	test   %eax,%eax
    2ca4:	0f 84 38 09 00 00    	je     35e2 <_ZN10kernel_lib2rt11module_task17h654dfcef85848845E+0xfb2>
    2caa:	8d 44 24 50          	lea    0x50(%esp),%eax
    2cae:	89 44 24 68          	mov    %eax,0x68(%esp)
    2cb2:	8b 44 24 64          	mov    0x64(%esp),%eax
    2cb6:	89 44 24 6c          	mov    %eax,0x6c(%esp)
    2cba:	c7 44 24 2c 01 00 00 	movl   $0x1,0x2c(%esp)
    2cc1:	00 
    2cc2:	89 7c 24 30          	mov    %edi,0x30(%esp)
    2cc6:	c7 44 24 34 1b 00 00 	movl   $0x1b,0x34(%esp)
    2ccd:	00 
    2cce:	89 6c 24 38          	mov    %ebp,0x38(%esp)
    2cd2:	c7 44 24 3c 01 00 00 	movl   $0x1,0x3c(%esp)
    2cd9:	00 
    2cda:	8d 44 24 68          	lea    0x68(%esp),%eax
    2cde:	89 44 24 40          	mov    %eax,0x40(%esp)
    2ce2:	c7 44 24 44 01 00 00 	movl   $0x1,0x44(%esp)
    2ce9:	00 
    2cea:	c7 44 24 48 00 00 00 	movl   $0x0,0x48(%esp)
    2cf1:	00 
    2cf2:	c7 44 24 14 00 00 00 	movl   $0x0,0x14(%esp)
    2cf9:	00 
    2cfa:	89 7c 24 18          	mov    %edi,0x18(%esp)
    2cfe:	c7 44 24 1c 1b 00 00 	movl   $0x1b,0x1c(%esp)
    2d05:	00 
    2d06:	c7 44 24 20 00 00 00 	movl   $0x0,0x20(%esp)
    2d0d:	00 
    2d0e:	89 74 24 24          	mov    %esi,0x24(%esp)
    2d12:	c7 44 24 28 4a 00 00 	movl   $0x4a,0x28(%esp)
    2d19:	00 
    2d1a:	c7 44 24 0c 01 00 00 	movl   $0x1,0xc(%esp)
    2d21:	00 
    2d22:	c7 44 24 10 23 00 00 	movl   $0x23,0x10(%esp)
    2d29:	00 
    2d2a:	8b 83 10 50 00 00    	mov    0x5010(%ebx),%eax
    2d30:	83 f8 02             	cmp    $0x2,%eax
    2d33:	74 1b                	je     2d50 <_ZN10kernel_lib2rt11module_task17h654dfcef85848845E+0x720>
    2d35:	8b 44 24 78          	mov    0x78(%esp),%eax
    2d39:	75 1d                	jne    2d58 <_ZN10kernel_lib2rt11module_task17h654dfcef85848845E+0x728>
    2d3b:	8b 8b 24 00 00 00    	mov    0x24(%ebx),%ecx
    2d41:	eb 1c                	jmp    2d5f <_ZN10kernel_lib2rt11module_task17h654dfcef85848845E+0x72f>
    2d43:	90                   	nop
    2d44:	90                   	nop
    2d45:	90                   	nop
    2d46:	90                   	nop
    2d47:	90                   	nop
    2d48:	90                   	nop
    2d49:	90                   	nop
    2d4a:	90                   	nop
    2d4b:	90                   	nop
    2d4c:	90                   	nop
    2d4d:	90                   	nop
    2d4e:	90                   	nop
    2d4f:	90                   	nop
    2d50:	8b 83 28 00 00 00    	mov    0x28(%ebx),%eax
    2d56:	74 e3                	je     2d3b <_ZN10kernel_lib2rt11module_task17h654dfcef85848845E+0x70b>
    2d58:	8b 8c 24 84 00 00 00 	mov    0x84(%esp),%ecx
    2d5f:	83 ec 08             	sub    $0x8,%esp
    2d62:	8d 54 24 14          	lea    0x14(%esp),%edx
    2d66:	52                   	push   %edx
    2d67:	51                   	push   %ecx
    2d68:	ff 50 10             	call   *0x10(%eax)
    2d6b:	83 c4 10             	add    $0x10,%esp
    2d6e:	83 7c 24 08 00       	cmpl   $0x0,0x8(%esp)
    2d73:	0f 85 69 08 00 00    	jne    35e2 <_ZN10kernel_lib2rt11module_task17h654dfcef85848845E+0xfb2>
    2d79:	8b 44 24 54          	mov    0x54(%esp),%eax
    2d7d:	83 f8 03             	cmp    $0x3,%eax
    2d80:	0f 84 5c 08 00 00    	je     35e2 <_ZN10kernel_lib2rt11module_task17h654dfcef85848845E+0xfb2>
    2d86:	83 f8 01             	cmp    $0x1,%eax
    2d89:	0f 87 e1 fe ff ff    	ja     2c70 <_ZN10kernel_lib2rt11module_task17h654dfcef85848845E+0x640>
    2d8f:	8b 54 24 5c          	mov    0x5c(%esp),%edx
    2d93:	89 54 24 08          	mov    %edx,0x8(%esp)
    2d97:	85 d2                	test   %edx,%edx
    2d99:	0f 84 d1 fe ff ff    	je     2c70 <_ZN10kernel_lib2rt11module_task17h654dfcef85848845E+0x640>
    2d9f:	8b 83 14 50 00 00    	mov    0x5014(%ebx),%eax
    2da5:	83 f8 03             	cmp    $0x3,%eax
    2da8:	0f 86 e2 00 00 00    	jbe    2e90 <_ZN10kernel_lib2rt11module_task17h654dfcef85848845E+0x860>
    2dae:	8d 44 24 08          	lea    0x8(%esp),%eax
    2db2:	89 44 24 54          	mov    %eax,0x54(%esp)
    2db6:	8b 84 24 90 00 00 00 	mov    0x90(%esp),%eax
    2dbd:	89 44 24 58          	mov    %eax,0x58(%esp)
    2dc1:	c7 44 24 2c 04 00 00 	movl   $0x4,0x2c(%esp)
    2dc8:	00 
    2dc9:	8b 8c 24 80 00 00 00 	mov    0x80(%esp),%ecx
    2dd0:	89 4c 24 30          	mov    %ecx,0x30(%esp)
    2dd4:	c7 44 24 34 1c 00 00 	movl   $0x1c,0x34(%esp)
    2ddb:	00 
    2ddc:	8b 84 24 8c 00 00 00 	mov    0x8c(%esp),%eax
    2de3:	89 44 24 38          	mov    %eax,0x38(%esp)
    2de7:	c7 44 24 3c 01 00 00 	movl   $0x1,0x3c(%esp)
    2dee:	00 
    2def:	8d 44 24 54          	lea    0x54(%esp),%eax
    2df3:	89 44 24 40          	mov    %eax,0x40(%esp)
    2df7:	c7 44 24 44 01 00 00 	movl   $0x1,0x44(%esp)
    2dfe:	00 
    2dff:	c7 44 24 48 00 00 00 	movl   $0x0,0x48(%esp)
    2e06:	00 
    2e07:	c7 44 24 14 00 00 00 	movl   $0x0,0x14(%esp)
    2e0e:	00 
    2e0f:	89 4c 24 18          	mov    %ecx,0x18(%esp)
    2e13:	c7 44 24 1c 1c 00 00 	movl   $0x1c,0x1c(%esp)
    2e1a:	00 
    2e1b:	c7 44 24 20 00 00 00 	movl   $0x0,0x20(%esp)
    2e22:	00 
    2e23:	8b 44 24 7c          	mov    0x7c(%esp),%eax
    2e27:	89 44 24 24          	mov    %eax,0x24(%esp)
    2e2b:	c7 44 24 28 4b 00 00 	movl   $0x4b,0x28(%esp)
    2e32:	00 
    2e33:	c7 44 24 0c 01 00 00 	movl   $0x1,0xc(%esp)
    2e3a:	00 
    2e3b:	c7 44 24 10 51 00 00 	movl   $0x51,0x10(%esp)
    2e42:	00 
    2e43:	8b 83 10 50 00 00    	mov    0x5010(%ebx),%eax
    2e49:	83 f8 02             	cmp    $0x2,%eax
    2e4c:	74 20                	je     2e6e <_ZN10kernel_lib2rt11module_task17h654dfcef85848845E+0x83e>
    2e4e:	8b 44 24 78          	mov    0x78(%esp),%eax
    2e52:	75 22                	jne    2e76 <_ZN10kernel_lib2rt11module_task17h654dfcef85848845E+0x846>
    2e54:	8b 8b 24 00 00 00    	mov    0x24(%ebx),%ecx
    2e5a:	eb 21                	jmp    2e7d <_ZN10kernel_lib2rt11module_task17h654dfcef85848845E+0x84d>
    2e5c:	b9 42 00 00 00       	mov    $0x42,%ecx
    2e61:	85 c0                	test   %eax,%eax
    2e63:	0f 84 10 ff ff ff    	je     2d79 <_ZN10kernel_lib2rt11module_task17h654dfcef85848845E+0x749>
    2e69:	e9 22 fe ff ff       	jmp    2c90 <_ZN10kernel_lib2rt11module_task17h654dfcef85848845E+0x660>
    2e6e:	8b 83 28 00 00 00    	mov    0x28(%ebx),%eax
    2e74:	74 de                	je     2e54 <_ZN10kernel_lib2rt11module_task17h654dfcef85848845E+0x824>
    2e76:	8b 8c 24 84 00 00 00 	mov    0x84(%esp),%ecx
    2e7d:	83 ec 08             	sub    $0x8,%esp
    2e80:	8d 54 24 14          	lea    0x14(%esp),%edx
    2e84:	52                   	push   %edx
    2e85:	51                   	push   %ecx
    2e86:	ff 50 10             	call   *0x10(%eax)
    2e89:	83 c4 10             	add    $0x10,%esp
    2e8c:	8b 54 24 08          	mov    0x8(%esp),%edx
    2e90:	b8 8d 00 00 00       	mov    $0x8d,%eax
    2e95:	cd 80                	int    $0x80
    2e97:	8d 48 ff             	lea    -0x1(%eax),%ecx
    2e9a:	83 f9 0a             	cmp    $0xa,%ecx
    2e9d:	0f 83 de 00 00 00    	jae    2f81 <_ZN10kernel_lib2rt11module_task17h654dfcef85848845E+0x951>
    2ea3:	89 44 24 50          	mov    %eax,0x50(%esp)
    2ea7:	8d 44 24 50          	lea    0x50(%esp),%eax
    2eab:	89 44 24 68          	mov    %eax,0x68(%esp)
    2eaf:	8b 83 14 50 00 00    	mov    0x5014(%ebx),%eax
    2eb5:	85 c0                	test   %eax,%eax
    2eb7:	0f 84 b3 fd ff ff    	je     2c70 <_ZN10kernel_lib2rt11module_task17h654dfcef85848845E+0x640>
    2ebd:	8d 44 24 68          	lea    0x68(%esp),%eax
    2ec1:	89 44 24 54          	mov    %eax,0x54(%esp)
    2ec5:	8b 84 24 94 00 00 00 	mov    0x94(%esp),%eax
    2ecc:	89 44 24 58          	mov    %eax,0x58(%esp)
    2ed0:	c7 44 24 2c 01 00 00 	movl   $0x1,0x2c(%esp)
    2ed7:	00 
    2ed8:	8b 8c 24 80 00 00 00 	mov    0x80(%esp),%ecx
    2edf:	89 4c 24 30          	mov    %ecx,0x30(%esp)
    2ee3:	c7 44 24 34 1c 00 00 	movl   $0x1c,0x34(%esp)
    2eea:	00 
    2eeb:	8d 83 10 ff ff ff    	lea    -0xf0(%ebx),%eax
    2ef1:	89 44 24 38          	mov    %eax,0x38(%esp)
    2ef5:	c7 44 24 3c 01 00 00 	movl   $0x1,0x3c(%esp)
    2efc:	00 
    2efd:	8d 44 24 54          	lea    0x54(%esp),%eax
    2f01:	89 44 24 40          	mov    %eax,0x40(%esp)
    2f05:	c7 44 24 44 01 00 00 	movl   $0x1,0x44(%esp)
    2f0c:	00 
    2f0d:	c7 44 24 48 00 00 00 	movl   $0x0,0x48(%esp)
    2f14:	00 
    2f15:	c7 44 24 14 00 00 00 	movl   $0x0,0x14(%esp)
    2f1c:	00 
    2f1d:	89 4c 24 18          	mov    %ecx,0x18(%esp)
    2f21:	c7 44 24 1c 1c 00 00 	movl   $0x1c,0x1c(%esp)
    2f28:	00 
    2f29:	c7 44 24 20 00 00 00 	movl   $0x0,0x20(%esp)
    2f30:	00 
    2f31:	8b 44 24 7c          	mov    0x7c(%esp),%eax
    2f35:	89 44 24 24          	mov    %eax,0x24(%esp)
    2f39:	c7 44 24 28 4b 00 00 	movl   $0x4b,0x28(%esp)
    2f40:	00 
    2f41:	c7 44 24 0c 01 00 00 	movl   $0x1,0xc(%esp)
    2f48:	00 
    2f49:	c7 44 24 10 59 00 00 	movl   $0x59,0x10(%esp)
    2f50:	00 
    2f51:	8b 83 10 50 00 00    	mov    0x5010(%ebx),%eax
    2f57:	83 f8 02             	cmp    $0x2,%eax
    2f5a:	74 0e                	je     2f6a <_ZN10kernel_lib2rt11module_task17h654dfcef85848845E+0x93a>
    2f5c:	8d 83 18 ff ff ff    	lea    -0xe8(%ebx),%eax
    2f62:	0f 85 f0 fc ff ff    	jne    2c58 <_ZN10kernel_lib2rt11module_task17h654dfcef85848845E+0x628>
    2f68:	eb 0c                	jmp    2f76 <_ZN10kernel_lib2rt11module_task17h654dfcef85848845E+0x946>
    2f6a:	8b 83 28 00 00 00    	mov    0x28(%ebx),%eax
    2f70:	0f 85 e2 fc ff ff    	jne    2c58 <_ZN10kernel_lib2rt11module_task17h654dfcef85848845E+0x628>
    2f76:	8b 8b 24 00 00 00    	mov    0x24(%ebx),%ecx
    2f7c:	e9 dd fc ff ff       	jmp    2c5e <_ZN10kernel_lib2rt11module_task17h654dfcef85848845E+0x62e>
    2f81:	85 c0                	test   %eax,%eax
    2f83:	b8 42 00 00 00       	mov    $0x42,%eax
    2f88:	0f 84 e2 fc ff ff    	je     2c70 <_ZN10kernel_lib2rt11module_task17h654dfcef85848845E+0x640>
    2f8e:	e9 10 ff ff ff       	jmp    2ea3 <_ZN10kernel_lib2rt11module_task17h654dfcef85848845E+0x873>
    2f93:	b9 22 00 00 00       	mov    $0x22,%ecx
    2f98:	e8 93 f5 ff ff       	call   2530 <_ZN10kernel_lib7process4exit17h539a92ab3ef90dd1E>
    2f9d:	8b 83 28 00 00 00    	mov    0x28(%ebx),%eax
    2fa3:	74 08                	je     2fad <_ZN10kernel_lib2rt11module_task17h654dfcef85848845E+0x97d>
    2fa5:	8d 8b 10 ee ff ff    	lea    -0x11f0(%ebx),%ecx
    2fab:	eb 06                	jmp    2fb3 <_ZN10kernel_lib2rt11module_task17h654dfcef85848845E+0x983>
    2fad:	8b 8b 24 00 00 00    	mov    0x24(%ebx),%ecx
    2fb3:	83 ec 08             	sub    $0x8,%esp
    2fb6:	8d 54 24 14          	lea    0x14(%esp),%edx
    2fba:	52                   	push   %edx
    2fbb:	51                   	push   %ecx
    2fbc:	ff 50 10             	call   *0x10(%eax)
    2fbf:	83 c4 10             	add    $0x10,%esp
    2fc2:	eb 1c                	jmp    2fe0 <_ZN10kernel_lib2rt11module_task17h654dfcef85848845E+0x9b0>
    2fc4:	85 c0                	test   %eax,%eax
    2fc6:	b8 42 00 00 00       	mov    $0x42,%eax
    2fcb:	0f 85 31 05 00 00    	jne    3502 <_ZN10kernel_lib2rt11module_task17h654dfcef85848845E+0xed2>
    2fd1:	90                   	nop
    2fd2:	90                   	nop
    2fd3:	90                   	nop
    2fd4:	90                   	nop
    2fd5:	90                   	nop
    2fd6:	90                   	nop
    2fd7:	90                   	nop
    2fd8:	90                   	nop
    2fd9:	90                   	nop
    2fda:	90                   	nop
    2fdb:	90                   	nop
    2fdc:	90                   	nop
    2fdd:	90                   	nop
    2fde:	90                   	nop
    2fdf:	90                   	nop
    2fe0:	8d 54 24 54          	lea    0x54(%esp),%edx
    2fe4:	8b 8c 24 88 00 00 00 	mov    0x88(%esp),%ecx
    2feb:	b8 8e 00 00 00       	mov    $0x8e,%eax
    2ff0:	cd 80                	int    $0x80
    2ff2:	8d 48 ff             	lea    -0x1(%eax),%ecx
    2ff5:	83 f9 0a             	cmp    $0xa,%ecx
    2ff8:	0f 83 bf 04 00 00    	jae    34bd <_ZN10kernel_lib2rt11module_task17h654dfcef85848845E+0xe8d>
    2ffe:	89 c1                	mov    %eax,%ecx
    3000:	89 4c 24 08          	mov    %ecx,0x8(%esp)
    3004:	8d 44 24 08          	lea    0x8(%esp),%eax
    3008:	89 44 24 50          	mov    %eax,0x50(%esp)
    300c:	8b 83 14 50 00 00    	mov    0x5014(%ebx),%eax
    3012:	85 c0                	test   %eax,%eax
    3014:	0f 84 c8 05 00 00    	je     35e2 <_ZN10kernel_lib2rt11module_task17h654dfcef85848845E+0xfb2>
    301a:	8d 44 24 50          	lea    0x50(%esp),%eax
    301e:	89 44 24 68          	mov    %eax,0x68(%esp)
    3022:	8d 83 1c 94 ff ff    	lea    -0x6be4(%ebx),%eax
    3028:	89 44 24 6c          	mov    %eax,0x6c(%esp)
    302c:	c7 44 24 2c 01 00 00 	movl   $0x1,0x2c(%esp)
    3033:	00 
    3034:	8d 83 13 e6 ff ff    	lea    -0x19ed(%ebx),%eax
    303a:	89 44 24 30          	mov    %eax,0x30(%esp)
    303e:	c7 44 24 34 1b 00 00 	movl   $0x1b,0x34(%esp)
    3045:	00 
    3046:	8d 8b 18 fd ff ff    	lea    -0x2e8(%ebx),%ecx
    304c:	89 4c 24 38          	mov    %ecx,0x38(%esp)
    3050:	c7 44 24 3c 01 00 00 	movl   $0x1,0x3c(%esp)
    3057:	00 
    3058:	8d 4c 24 68          	lea    0x68(%esp),%ecx
    305c:	89 4c 24 40          	mov    %ecx,0x40(%esp)
    3060:	c7 44 24 44 01 00 00 	movl   $0x1,0x44(%esp)
    3067:	00 
    3068:	c7 44 24 48 00 00 00 	movl   $0x0,0x48(%esp)
    306f:	00 
    3070:	c7 44 24 14 00 00 00 	movl   $0x0,0x14(%esp)
    3077:	00 
    3078:	89 44 24 18          	mov    %eax,0x18(%esp)
    307c:	c7 44 24 1c 1b 00 00 	movl   $0x1b,0x1c(%esp)
    3083:	00 
    3084:	c7 44 24 20 00 00 00 	movl   $0x0,0x20(%esp)
    308b:	00 
    308c:	8d 83 ac e5 ff ff    	lea    -0x1a54(%ebx),%eax
    3092:	89 44 24 24          	mov    %eax,0x24(%esp)
    3096:	c7 44 24 28 4a 00 00 	movl   $0x4a,0x28(%esp)
    309d:	00 
    309e:	c7 44 24 0c 01 00 00 	movl   $0x1,0xc(%esp)
    30a5:	00 
    30a6:	c7 44 24 10 23 00 00 	movl   $0x23,0x10(%esp)
    30ad:	00 
    30ae:	8b 83 10 50 00 00    	mov    0x5010(%ebx),%eax
    30b4:	83 f8 02             	cmp    $0x2,%eax
    30b7:	74 17                	je     30d0 <_ZN10kernel_lib2rt11module_task17h654dfcef85848845E+0xaa0>
    30b9:	8d 83 18 ff ff ff    	lea    -0xe8(%ebx),%eax
    30bf:	75 17                	jne    30d8 <_ZN10kernel_lib2rt11module_task17h654dfcef85848845E+0xaa8>
    30c1:	8b 8b 24 00 00 00    	mov    0x24(%ebx),%ecx
    30c7:	eb 15                	jmp    30de <_ZN10kernel_lib2rt11module_task17h654dfcef85848845E+0xaae>
    30c9:	90                   	nop
    30ca:	90                   	nop
    30cb:	90                   	nop
    30cc:	90                   	nop
    30cd:	90                   	nop
    30ce:	90                   	nop
    30cf:	90                   	nop
    30d0:	8b 83 28 00 00 00    	mov    0x28(%ebx),%eax
    30d6:	74 e9                	je     30c1 <_ZN10kernel_lib2rt11module_task17h654dfcef85848845E+0xa91>
    30d8:	8d 8b 10 ee ff ff    	lea    -0x11f0(%ebx),%ecx
    30de:	83 ec 08             	sub    $0x8,%esp
    30e1:	8d 54 24 14          	lea    0x14(%esp),%edx
    30e5:	52                   	push   %edx
    30e6:	51                   	push   %ecx
    30e7:	ff 50 10             	call   *0x10(%eax)
    30ea:	83 c4 10             	add    $0x10,%esp
    30ed:	83 7c 24 08 00       	cmpl   $0x0,0x8(%esp)
    30f2:	0f 85 ea 04 00 00    	jne    35e2 <_ZN10kernel_lib2rt11module_task17h654dfcef85848845E+0xfb2>
    30f8:	8b 44 24 54          	mov    0x54(%esp),%eax
    30fc:	83 f8 03             	cmp    $0x3,%eax
    30ff:	0f 84 dd 04 00 00    	je     35e2 <_ZN10kernel_lib2rt11module_task17h654dfcef85848845E+0xfb2>
    3105:	83 f8 02             	cmp    $0x2,%eax
    3108:	0f 85 ea 04 00 00    	jne    35f8 <_ZN10kernel_lib2rt11module_task17h654dfcef85848845E+0xfc8>
    310e:	8b 74 24 58          	mov    0x58(%esp),%esi
    3112:	8b 6c 24 5c          	mov    0x5c(%esp),%ebp
    3116:	8d 4c 24 0c          	lea    0xc(%esp),%ecx
    311a:	89 ea                	mov    %ebp,%edx
    311c:	b8 88 00 00 00       	mov    $0x88,%eax
    3121:	cd 80                	int    $0x80
    3123:	85 c0                	test   %eax,%eax
    3125:	0f 85 e7 04 00 00    	jne    3612 <_ZN10kernel_lib2rt11module_task17h654dfcef85848845E+0xfe2>
    312b:	8b 7c 24 10          	mov    0x10(%esp),%edi
    312f:	8b 44 24 14          	mov    0x14(%esp),%eax
    3133:	89 7c 24 68          	mov    %edi,0x68(%esp)
    3137:	89 44 24 6c          	mov    %eax,0x6c(%esp)
    313b:	89 6c 24 70          	mov    %ebp,0x70(%esp)
    313f:	8b 83 14 50 00 00    	mov    0x5014(%ebx),%eax
    3145:	83 f8 03             	cmp    $0x3,%eax
    3148:	0f 86 d3 00 00 00    	jbe    3221 <_ZN10kernel_lib2rt11module_task17h654dfcef85848845E+0xbf1>
    314e:	8d 44 24 68          	lea    0x68(%esp),%eax
    3152:	89 44 24 54          	mov    %eax,0x54(%esp)
    3156:	8d 83 cc b7 ff ff    	lea    -0x4834(%ebx),%eax
    315c:	89 44 24 58          	mov    %eax,0x58(%esp)
    3160:	c7 44 24 2c 04 00 00 	movl   $0x4,0x2c(%esp)
    3167:	00 
    3168:	8b 4c 24 64          	mov    0x64(%esp),%ecx
    316c:	89 4c 24 30          	mov    %ecx,0x30(%esp)
    3170:	c7 44 24 34 0e 00 00 	movl   $0xe,0x34(%esp)
    3177:	00 
    3178:	8d 83 e8 fd ff ff    	lea    -0x218(%ebx),%eax
    317e:	89 44 24 38          	mov    %eax,0x38(%esp)
    3182:	c7 44 24 3c 01 00 00 	movl   $0x1,0x3c(%esp)
    3189:	00 
    318a:	8d 44 24 54          	lea    0x54(%esp),%eax
    318e:	89 44 24 40          	mov    %eax,0x40(%esp)
    3192:	c7 44 24 44 01 00 00 	movl   $0x1,0x44(%esp)
    3199:	00 
    319a:	c7 44 24 48 00 00 00 	movl   $0x0,0x48(%esp)
    31a1:	00 
    31a2:	c7 44 24 14 00 00 00 	movl   $0x0,0x14(%esp)
    31a9:	00 
    31aa:	89 4c 24 18          	mov    %ecx,0x18(%esp)
    31ae:	c7 44 24 1c 0e 00 00 	movl   $0xe,0x1c(%esp)
    31b5:	00 
    31b6:	c7 44 24 20 00 00 00 	movl   $0x0,0x20(%esp)
    31bd:	00 
    31be:	8d 83 d3 e8 ff ff    	lea    -0x172d(%ebx),%eax
    31c4:	89 44 24 24          	mov    %eax,0x24(%esp)
    31c8:	c7 44 24 28 42 00 00 	movl   $0x42,0x28(%esp)
    31cf:	00 
    31d0:	c7 44 24 0c 01 00 00 	movl   $0x1,0xc(%esp)
    31d7:	00 
    31d8:	c7 44 24 10 6e 00 00 	movl   $0x6e,0x10(%esp)
    31df:	00 
    31e0:	8b 83 10 50 00 00    	mov    0x5010(%ebx),%eax
    31e6:	83 f8 02             	cmp    $0x2,%eax
    31e9:	74 15                	je     3200 <_ZN10kernel_lib2rt11module_task17h654dfcef85848845E+0xbd0>
    31eb:	8d 83 18 ff ff ff    	lea    -0xe8(%ebx),%eax
    31f1:	8d 54 24 0c          	lea    0xc(%esp),%edx
    31f5:	75 15                	jne    320c <_ZN10kernel_lib2rt11module_task17h654dfcef85848845E+0xbdc>
    31f7:	8b 8b 24 00 00 00    	mov    0x24(%ebx),%ecx
    31fd:	eb 13                	jmp    3212 <_ZN10kernel_lib2rt11module_task17h654dfcef85848845E+0xbe2>
    31ff:	90                   	nop
    3200:	8b 83 28 00 00 00    	mov    0x28(%ebx),%eax
    3206:	8d 54 24 0c          	lea    0xc(%esp),%edx
    320a:	74 eb                	je     31f7 <_ZN10kernel_lib2rt11module_task17h654dfcef85848845E+0xbc7>
    320c:	8d 8b 10 ee ff ff    	lea    -0x11f0(%ebx),%ecx
    3212:	83 ec 08             	sub    $0x8,%esp
    3215:	52                   	push   %edx
    3216:	51                   	push   %ecx
    3217:	ff 50 10             	call   *0x10(%eax)
    321a:	83 c4 10             	add    $0x10,%esp
    321d:	8b 7c 24 68          	mov    0x68(%esp),%edi
    3221:	85 ff                	test   %edi,%edi
    3223:	0f 88 61 04 00 00    	js     368a <_ZN10kernel_lib2rt11module_task17h654dfcef85848845E+0x105a>
    3229:	74 65                	je     3290 <_ZN10kernel_lib2rt11module_task17h654dfcef85848845E+0xc60>
    322b:	0f b6 83 0c 50 00 00 	movzbl 0x500c(%ebx),%eax
    3232:	90                   	nop
    3233:	90                   	nop
    3234:	90                   	nop
    3235:	90                   	nop
    3236:	90                   	nop
    3237:	90                   	nop
    3238:	90                   	nop
    3239:	90                   	nop
    323a:	90                   	nop
    323b:	90                   	nop
    323c:	90                   	nop
    323d:	90                   	nop
    323e:	90                   	nop
    323f:	90                   	nop
    3240:	b1 01                	mov    $0x1,%cl
    3242:	31 c0                	xor    %eax,%eax
    3244:	f0 0f b0 8b 0c 00 00 	lock cmpxchg %cl,0xc(%ebx)
    324b:	00 
    324c:	74 22                	je     3270 <_ZN10kernel_lib2rt11module_task17h654dfcef85848845E+0xc40>
    324e:	90                   	nop
    324f:	90                   	nop
    3250:	0f b6 83 0c 00 00 00 	movzbl 0xc(%ebx),%eax
    3257:	84 c0                	test   %al,%al
    3259:	74 e5                	je     3240 <_ZN10kernel_lib2rt11module_task17h654dfcef85848845E+0xc10>
    325b:	f3 90                	pause
    325d:	0f b6 83 0c 00 00 00 	movzbl 0xc(%ebx),%eax
    3264:	84 c0                	test   %al,%al
    3266:	75 f3                	jne    325b <_ZN10kernel_lib2rt11module_task17h654dfcef85848845E+0xc2b>
    3268:	eb d6                	jmp    3240 <_ZN10kernel_lib2rt11module_task17h654dfcef85848845E+0xc10>
    326a:	90                   	nop
    326b:	90                   	nop
    326c:	90                   	nop
    326d:	90                   	nop
    326e:	90                   	nop
    326f:	90                   	nop
    3270:	b9 01 00 00 00       	mov    $0x1,%ecx
    3275:	89 fa                	mov    %edi,%edx
    3277:	e8 54 e7 ff ff       	call   19d0 <_ZN4talc4talc13Talc$LT$O$GT$6malloc17hfb0da288b1d6f9eaE>
    327c:	c6 83 0c 00 00 00 00 	movb   $0x0,0xc(%ebx)
    3283:	85 c0                	test   %eax,%eax
    3285:	0f 84 04 04 00 00    	je     368f <_ZN10kernel_lib2rt11module_task17h654dfcef85848845E+0x105f>
    328b:	89 c5                	mov    %eax,%ebp
    328d:	eb 06                	jmp    3295 <_ZN10kernel_lib2rt11module_task17h654dfcef85848845E+0xc65>
    328f:	90                   	nop
    3290:	bd 01 00 00 00       	mov    $0x1,%ebp
    3295:	89 6c 24 0c          	mov    %ebp,0xc(%esp)
    3299:	89 7c 24 10          	mov    %edi,0x10(%esp)
    329d:	89 7c 24 14          	mov    %edi,0x14(%esp)
    32a1:	8b 54 24 70          	mov    0x70(%esp),%edx
    32a5:	8d 4c 24 0c          	lea    0xc(%esp),%ecx
    32a9:	b8 85 00 00 00       	mov    $0x85,%eax
    32ae:	cd 80                	int    $0x80
    32b0:	85 c0                	test   %eax,%eax
    32b2:	0f 85 70 03 00 00    	jne    3628 <_ZN10kernel_lib2rt11module_task17h654dfcef85848845E+0xff8>
    32b8:	8d 4c 24 0c          	lea    0xc(%esp),%ecx
    32bc:	89 f2                	mov    %esi,%edx
    32be:	b8 88 00 00 00       	mov    $0x88,%eax
    32c3:	cd 80                	int    $0x80
    32c5:	85 c0                	test   %eax,%eax
    32c7:	0f 85 8c 03 00 00    	jne    3659 <_ZN10kernel_lib2rt11module_task17h654dfcef85848845E+0x1029>
    32cd:	8b 44 24 0c          	mov    0xc(%esp),%eax
    32d1:	8b 4c 24 10          	mov    0x10(%esp),%ecx
    32d5:	89 74 24 54          	mov    %esi,0x54(%esp)
    32d9:	89 44 24 58          	mov    %eax,0x58(%esp)
    32dd:	89 4c 24 5c          	mov    %ecx,0x5c(%esp)
    32e1:	89 7c 24 0c          	mov    %edi,0xc(%esp)
    32e5:	89 6c 24 10          	mov    %ebp,0x10(%esp)
    32e9:	89 7c 24 14          	mov    %edi,0x14(%esp)
    32ed:	83 ec 08             	sub    $0x8,%esp
    32f0:	8d 7c 24 14          	lea    0x14(%esp),%edi
    32f4:	57                   	push   %edi
    32f5:	8d 44 24 60          	lea    0x60(%esp),%eax
    32f9:	50                   	push   %eax
    32fa:	ff 94 24 88 00 00 00 	call   *0x88(%esp)
    3301:	83 c4 10             	add    $0x10,%esp
    3304:	88 44 24 50          	mov    %al,0x50(%esp)
    3308:	8b 83 14 50 00 00    	mov    0x5014(%ebx),%eax
    330e:	83 f8 03             	cmp    $0x3,%eax
    3311:	0f 86 d2 00 00 00    	jbe    33e9 <_ZN10kernel_lib2rt11module_task17h654dfcef85848845E+0xdb9>
    3317:	8d 44 24 50          	lea    0x50(%esp),%eax
    331b:	89 44 24 54          	mov    %eax,0x54(%esp)
    331f:	8d 83 ec a0 ff ff    	lea    -0x5f14(%ebx),%eax
    3325:	89 44 24 58          	mov    %eax,0x58(%esp)
    3329:	c7 44 24 2c 04 00 00 	movl   $0x4,0x2c(%esp)
    3330:	00 
    3331:	8b 4c 24 64          	mov    0x64(%esp),%ecx
    3335:	89 4c 24 30          	mov    %ecx,0x30(%esp)
    3339:	c7 44 24 34 0e 00 00 	movl   $0xe,0x34(%esp)
    3340:	00 
    3341:	8d 83 00 fe ff ff    	lea    -0x200(%ebx),%eax
    3347:	89 44 24 38          	mov    %eax,0x38(%esp)
    334b:	c7 44 24 3c 01 00 00 	movl   $0x1,0x3c(%esp)
    3352:	00 
    3353:	8d 44 24 54          	lea    0x54(%esp),%eax
    3357:	89 44 24 40          	mov    %eax,0x40(%esp)
    335b:	c7 44 24 44 01 00 00 	movl   $0x1,0x44(%esp)
    3362:	00 
    3363:	c7 44 24 48 00 00 00 	movl   $0x0,0x48(%esp)
    336a:	00 
    336b:	c7 44 24 14 00 00 00 	movl   $0x0,0x14(%esp)
    3372:	00 
    3373:	89 4c 24 18          	mov    %ecx,0x18(%esp)
    3377:	c7 44 24 1c 0e 00 00 	movl   $0xe,0x1c(%esp)
    337e:	00 
    337f:	c7 44 24 20 00 00 00 	movl   $0x0,0x20(%esp)
    3386:	00 
    3387:	8d 83 d3 e8 ff ff    	lea    -0x172d(%ebx),%eax
    338d:	89 44 24 24          	mov    %eax,0x24(%esp)
    3391:	c7 44 24 28 42 00 00 	movl   $0x42,0x28(%esp)
    3398:	00 
    3399:	c7 44 24 0c 01 00 00 	movl   $0x1,0xc(%esp)
    33a0:	00 
    33a1:	c7 44 24 10 75 00 00 	movl   $0x75,0x10(%esp)
    33a8:	00 
    33a9:	8b 83 10 50 00 00    	mov    0x5010(%ebx),%eax
    33af:	83 f8 02             	cmp    $0x2,%eax
    33b2:	74 1c                	je     33d0 <_ZN10kernel_lib2rt11module_task17h654dfcef85848845E+0xda0>
    33b4:	8d 83 18 ff ff ff    	lea    -0xe8(%ebx),%eax
    33ba:	75 1c                	jne    33d8 <_ZN10kernel_lib2rt11module_task17h654dfcef85848845E+0xda8>
    33bc:	8b 8b 24 00 00 00    	mov    0x24(%ebx),%ecx
    33c2:	eb 1a                	jmp    33de <_ZN10kernel_lib2rt11module_task17h654dfcef85848845E+0xdae>
    33c4:	90                   	nop
    33c5:	90                   	nop
    33c6:	90                   	nop
    33c7:	90                   	nop
    33c8:	90                   	nop
    33c9:	90                   	nop
    33ca:	90                   	nop
    33cb:	90                   	nop
    33cc:	90                   	nop
    33cd:	90                   	nop
    33ce:	90                   	nop
    33cf:	90                   	nop
    33d0:	8b 83 28 00 00 00    	mov    0x28(%ebx),%eax
    33d6:	74 e4                	je     33bc <_ZN10kernel_lib2rt11module_task17h654dfcef85848845E+0xd8c>
    33d8:	8d 8b 10 ee ff ff    	lea    -0x11f0(%ebx),%ecx
    33de:	83 ec 08             	sub    $0x8,%esp
    33e1:	57                   	push   %edi
    33e2:	51                   	push   %ecx
    33e3:	ff 50 10             	call   *0x10(%eax)
    33e6:	83 c4 10             	add    $0x10,%esp
    33e9:	8b 54 24 70          	mov    0x70(%esp),%edx
    33ed:	89 94 24 98 00 00 00 	mov    %edx,0x98(%esp)
    33f4:	85 d2                	test   %edx,%edx
    33f6:	0f 84 e4 fb ff ff    	je     2fe0 <_ZN10kernel_lib2rt11module_task17h654dfcef85848845E+0x9b0>
    33fc:	8b 83 14 50 00 00    	mov    0x5014(%ebx),%eax
    3402:	83 f8 03             	cmp    $0x3,%eax
    3405:	0f 86 e4 00 00 00    	jbe    34ef <_ZN10kernel_lib2rt11module_task17h654dfcef85848845E+0xebf>
    340b:	8d 84 24 98 00 00 00 	lea    0x98(%esp),%eax
    3412:	89 44 24 54          	mov    %eax,0x54(%esp)
    3416:	8d 83 5c d6 ff ff    	lea    -0x29a4(%ebx),%eax
    341c:	89 44 24 58          	mov    %eax,0x58(%esp)
    3420:	c7 44 24 2c 04 00 00 	movl   $0x4,0x2c(%esp)
    3427:	00 
    3428:	8d 83 3b ed ff ff    	lea    -0x12c5(%ebx),%eax
    342e:	89 44 24 30          	mov    %eax,0x30(%esp)
    3432:	c7 44 24 34 1c 00 00 	movl   $0x1c,0x34(%esp)
    3439:	00 
    343a:	8d 8b 08 ff ff ff    	lea    -0xf8(%ebx),%ecx
    3440:	89 4c 24 38          	mov    %ecx,0x38(%esp)
    3444:	c7 44 24 3c 01 00 00 	movl   $0x1,0x3c(%esp)
    344b:	00 
    344c:	8d 4c 24 54          	lea    0x54(%esp),%ecx
    3450:	89 4c 24 40          	mov    %ecx,0x40(%esp)
    3454:	c7 44 24 44 01 00 00 	movl   $0x1,0x44(%esp)
    345b:	00 
    345c:	c7 44 24 48 00 00 00 	movl   $0x0,0x48(%esp)
    3463:	00 
    3464:	c7 44 24 14 00 00 00 	movl   $0x0,0x14(%esp)
    346b:	00 
    346c:	89 44 24 18          	mov    %eax,0x18(%esp)
    3470:	c7 44 24 1c 1c 00 00 	movl   $0x1c,0x1c(%esp)
    3477:	00 
    3478:	c7 44 24 20 00 00 00 	movl   $0x0,0x20(%esp)
    347f:	00 
    3480:	8d 83 d3 ec ff ff    	lea    -0x132d(%ebx),%eax
    3486:	89 44 24 24          	mov    %eax,0x24(%esp)
    348a:	c7 44 24 28 4b 00 00 	movl   $0x4b,0x28(%esp)
    3491:	00 
    3492:	c7 44 24 0c 01 00 00 	movl   $0x1,0xc(%esp)
    3499:	00 
    349a:	c7 44 24 10 51 00 00 	movl   $0x51,0x10(%esp)
    34a1:	00 
    34a2:	8b 83 10 50 00 00    	mov    0x5010(%ebx),%eax
    34a8:	83 f8 02             	cmp    $0x2,%eax
    34ab:	74 22                	je     34cf <_ZN10kernel_lib2rt11module_task17h654dfcef85848845E+0xe9f>
    34ad:	8d 83 18 ff ff ff    	lea    -0xe8(%ebx),%eax
    34b3:	75 22                	jne    34d7 <_ZN10kernel_lib2rt11module_task17h654dfcef85848845E+0xea7>
    34b5:	8b 8b 24 00 00 00    	mov    0x24(%ebx),%ecx
    34bb:	eb 20                	jmp    34dd <_ZN10kernel_lib2rt11module_task17h654dfcef85848845E+0xead>
    34bd:	b9 42 00 00 00       	mov    $0x42,%ecx
    34c2:	85 c0                	test   %eax,%eax
    34c4:	0f 84 2e fc ff ff    	je     30f8 <_ZN10kernel_lib2rt11module_task17h654dfcef85848845E+0xac8>
    34ca:	e9 31 fb ff ff       	jmp    3000 <_ZN10kernel_lib2rt11module_task17h654dfcef85848845E+0x9d0>
    34cf:	8b 83 28 00 00 00    	mov    0x28(%ebx),%eax
    34d5:	74 de                	je     34b5 <_ZN10kernel_lib2rt11module_task17h654dfcef85848845E+0xe85>
    34d7:	8d 8b 10 ee ff ff    	lea    -0x11f0(%ebx),%ecx
    34dd:	83 ec 08             	sub    $0x8,%esp
    34e0:	57                   	push   %edi
    34e1:	51                   	push   %ecx
    34e2:	ff 50 10             	call   *0x10(%eax)
    34e5:	83 c4 10             	add    $0x10,%esp
    34e8:	8b 94 24 98 00 00 00 	mov    0x98(%esp),%edx
    34ef:	b8 8d 00 00 00       	mov    $0x8d,%eax
    34f4:	cd 80                	int    $0x80
    34f6:	8d 48 ff             	lea    -0x1(%eax),%ecx
    34f9:	83 f9 0a             	cmp    $0xa,%ecx
    34fc:	0f 83 c2 fa ff ff    	jae    2fc4 <_ZN10kernel_lib2rt11module_task17h654dfcef85848845E+0x994>
    3502:	89 44 24 08          	mov    %eax,0x8(%esp)
    3506:	8d 44 24 08          	lea    0x8(%esp),%eax
    350a:	89 44 24 50          	mov    %eax,0x50(%esp)
    350e:	8b 83 14 50 00 00    	mov    0x5014(%ebx),%eax
    3514:	85 c0                	test   %eax,%eax
    3516:	0f 84 c4 fa ff ff    	je     2fe0 <_ZN10kernel_lib2rt11module_task17h654dfcef85848845E+0x9b0>
    351c:	8d 44 24 50          	lea    0x50(%esp),%eax
    3520:	89 44 24 54          	mov    %eax,0x54(%esp)
    3524:	8d 83 3c d9 ff ff    	lea    -0x26c4(%ebx),%eax
    352a:	89 44 24 58          	mov    %eax,0x58(%esp)
    352e:	c7 44 24 2c 01 00 00 	movl   $0x1,0x2c(%esp)
    3535:	00 
    3536:	8d 83 3b ed ff ff    	lea    -0x12c5(%ebx),%eax
    353c:	89 44 24 30          	mov    %eax,0x30(%esp)
    3540:	c7 44 24 34 1c 00 00 	movl   $0x1c,0x34(%esp)
    3547:	00 
    3548:	8d 8b 10 ff ff ff    	lea    -0xf0(%ebx),%ecx
    354e:	89 4c 24 38          	mov    %ecx,0x38(%esp)
    3552:	c7 44 24 3c 01 00 00 	movl   $0x1,0x3c(%esp)
    3559:	00 
    355a:	8d 4c 24 54          	lea    0x54(%esp),%ecx
    355e:	89 4c 24 40          	mov    %ecx,0x40(%esp)
    3562:	c7 44 24 44 01 00 00 	movl   $0x1,0x44(%esp)
    3569:	00 
    356a:	c7 44 24 48 00 00 00 	movl   $0x0,0x48(%esp)
    3571:	00 
    3572:	c7 44 24 14 00 00 00 	movl   $0x0,0x14(%esp)
    3579:	00 
    357a:	89 44 24 18          	mov    %eax,0x18(%esp)
    357e:	c7 44 24 1c 1c 00 00 	movl   $0x1c,0x1c(%esp)
    3585:	00 
    3586:	c7 44 24 20 00 00 00 	movl   $0x0,0x20(%esp)
    358d:	00 
    358e:	8d 83 d3 ec ff ff    	lea    -0x132d(%ebx),%eax
    3594:	89 44 24 24          	mov    %eax,0x24(%esp)
    3598:	c7 44 24 28 4b 00 00 	movl   $0x4b,0x28(%esp)
    359f:	00 
    35a0:	c7 44 24 0c 01 00 00 	movl   $0x1,0xc(%esp)
    35a7:	00 
    35a8:	c7 44 24 10 59 00 00 	movl   $0x59,0x10(%esp)
    35af:	00 
    35b0:	8b 83 10 50 00 00    	mov    0x5010(%ebx),%eax
    35b6:	83 f8 02             	cmp    $0x2,%eax
    35b9:	74 10                	je     35cb <_ZN10kernel_lib2rt11module_task17h654dfcef85848845E+0xf9b>
    35bb:	8d 83 18 ff ff ff    	lea    -0xe8(%ebx),%eax
    35c1:	75 10                	jne    35d3 <_ZN10kernel_lib2rt11module_task17h654dfcef85848845E+0xfa3>
    35c3:	8b 8b 24 00 00 00    	mov    0x24(%ebx),%ecx
    35c9:	eb 0e                	jmp    35d9 <_ZN10kernel_lib2rt11module_task17h654dfcef85848845E+0xfa9>
    35cb:	8b 83 28 00 00 00    	mov    0x28(%ebx),%eax
    35d1:	74 f0                	je     35c3 <_ZN10kernel_lib2rt11module_task17h654dfcef85848845E+0xf93>
    35d3:	8d 8b 10 ee ff ff    	lea    -0x11f0(%ebx),%ecx
    35d9:	83 ec 08             	sub    $0x8,%esp
    35dc:	57                   	push   %edi
    35dd:	e9 d9 f9 ff ff       	jmp    2fbb <_ZN10kernel_lib2rt11module_task17h654dfcef85848845E+0x98b>
    35e2:	8b 8c 24 88 00 00 00 	mov    0x88(%esp),%ecx
    35e9:	e8 32 21 00 00       	call   5720 <_ZN81_$LT$kernel_types..object..handle..RawHandle$u20$as$u20$core..ops..drop..Drop$GT$4drop17h3ae0020523155c57E>
    35ee:	b9 21 00 00 00       	mov    $0x21,%ecx
    35f3:	e8 38 ef ff ff       	call   2530 <_ZN10kernel_lib7process4exit17h539a92ab3ef90dd1E>
    35f8:	85 c0                	test   %eax,%eax
    35fa:	75 0b                	jne    3607 <_ZN10kernel_lib2rt11module_task17h654dfcef85848845E+0xfd7>
    35fc:	8d 8b c8 fd ff ff    	lea    -0x238(%ebx),%ecx
    3602:	e8 59 db ff ff       	call   1160 <_ZN4core9panicking5panic17hdc0bb452f89252d5E>
    3607:	8d 8b d8 fd ff ff    	lea    -0x228(%ebx),%ecx
    360d:	e8 4e db ff ff       	call   1160 <_ZN4core9panicking5panic17hdc0bb452f89252d5E>
    3612:	89 c1                	mov    %eax,%ecx
    3614:	e8 d7 23 00 00       	call   59f0 <_ZN79_$LT$kernel_types..syscall..SyscallError$u20$as$u20$num_enum..FromPrimitive$GT$14from_primitive17h002ef1ea9aba70d5E>
    3619:	89 44 24 54          	mov    %eax,0x54(%esp)
    361d:	83 ec 04             	sub    $0x4,%esp
    3620:	8d 83 90 fd ff ff    	lea    -0x270(%ebx),%eax
    3626:	eb 45                	jmp    366d <_ZN10kernel_lib2rt11module_task17h654dfcef85848845E+0x103d>
    3628:	89 c1                	mov    %eax,%ecx
    362a:	e8 c1 23 00 00       	call   59f0 <_ZN79_$LT$kernel_types..syscall..SyscallError$u20$as$u20$num_enum..FromPrimitive$GT$14from_primitive17h002ef1ea9aba70d5E>
    362f:	89 44 24 0c          	mov    %eax,0xc(%esp)
    3633:	83 ec 04             	sub    $0x4,%esp
    3636:	8d 83 f0 fd ff ff    	lea    -0x210(%ebx),%eax
    363c:	8d b3 20 fd ff ff    	lea    -0x2e0(%ebx),%esi
    3642:	8d 8b f7 ea ff ff    	lea    -0x1509(%ebx),%ecx
    3648:	ba 2b 00 00 00       	mov    $0x2b,%edx
    364d:	50                   	push   %eax
    364e:	56                   	push   %esi
    364f:	8d 44 24 18          	lea    0x18(%esp),%eax
    3653:	50                   	push   %eax
    3654:	e8 67 db ff ff       	call   11c0 <_ZN4core6result13unwrap_failed17he01453759a0dabd3E>
    3659:	89 c1                	mov    %eax,%ecx
    365b:	e8 90 23 00 00       	call   59f0 <_ZN79_$LT$kernel_types..syscall..SyscallError$u20$as$u20$num_enum..FromPrimitive$GT$14from_primitive17h002ef1ea9aba70d5E>
    3660:	89 44 24 54          	mov    %eax,0x54(%esp)
    3664:	83 ec 04             	sub    $0x4,%esp
    3667:	8d 83 48 fd ff ff    	lea    -0x2b8(%ebx),%eax
    366d:	8d bb 20 fd ff ff    	lea    -0x2e0(%ebx),%edi
    3673:	8d 8b f7 ea ff ff    	lea    -0x1509(%ebx),%ecx
    3679:	ba 2b 00 00 00       	mov    $0x2b,%edx
    367e:	50                   	push   %eax
    367f:	57                   	push   %edi
    3680:	8d 44 24 60          	lea    0x60(%esp),%eax
    3684:	50                   	push   %eax
    3685:	e8 36 db ff ff       	call   11c0 <_ZN4core6result13unwrap_failed17he01453759a0dabd3E>
    368a:	e8 91 d9 ff ff       	call   1020 <_ZN5alloc7raw_vec17capacity_overflow17hf4854d1cf84712dcE>
    368f:	89 f9                	mov    %edi,%ecx
    3691:	e8 6a d9 ff ff       	call   1000 <_ZN5alloc5alloc18handle_alloc_error17h692534c446c02bcdE>
    3696:	66 90                	xchg   %ax,%ax
    3698:	66 90                	xchg   %ax,%ax
    369a:	66 90                	xchg   %ax,%ax
    369c:	66 90                	xchg   %ax,%ax
    369e:	66 90                	xchg   %ax,%ax

000036a0 <_RNvCs9xNfxAkRhBx_7___rustc17rust_begin_unwind>:
    36a0:	53                   	push   %ebx
    36a1:	83 ec 58             	sub    $0x58,%esp
    36a4:	e8 00 00 00 00       	call   36a9 <_RNvCs9xNfxAkRhBx_7___rustc17rust_begin_unwind+0x9>
    36a9:	5b                   	pop    %ebx
    36aa:	81 c3 4b 49 00 00    	add    $0x494b,%ebx
    36b0:	89 4c 24 08          	mov    %ecx,0x8(%esp)
    36b4:	8b 83 14 50 00 00    	mov    0x5014(%ebx),%eax
    36ba:	85 c0                	test   %eax,%eax
    36bc:	0f 84 ce 00 00 00    	je     3790 <_RNvCs9xNfxAkRhBx_7___rustc17rust_begin_unwind+0xf0>
    36c2:	8d 44 24 08          	lea    0x8(%esp),%eax
    36c6:	89 44 24 0c          	mov    %eax,0xc(%esp)
    36ca:	8d 83 2c 95 ff ff    	lea    -0x6ad4(%ebx),%eax
    36d0:	89 44 24 10          	mov    %eax,0x10(%esp)
    36d4:	c7 44 24 34 01 00 00 	movl   $0x1,0x34(%esp)
    36db:	00 
    36dc:	8d 83 a0 e9 ff ff    	lea    -0x1660(%ebx),%eax
    36e2:	89 44 24 38          	mov    %eax,0x38(%esp)
    36e6:	c7 44 24 3c 0a 00 00 	movl   $0xa,0x3c(%esp)
    36ed:	00 
    36ee:	8d 8b 08 fe ff ff    	lea    -0x1f8(%ebx),%ecx
    36f4:	89 4c 24 40          	mov    %ecx,0x40(%esp)
    36f8:	c7 44 24 44 01 00 00 	movl   $0x1,0x44(%esp)
    36ff:	00 
    3700:	8d 4c 24 0c          	lea    0xc(%esp),%ecx
    3704:	89 4c 24 48          	mov    %ecx,0x48(%esp)
    3708:	c7 44 24 4c 01 00 00 	movl   $0x1,0x4c(%esp)
    370f:	00 
    3710:	c7 44 24 50 00 00 00 	movl   $0x0,0x50(%esp)
    3717:	00 
    3718:	c7 44 24 1c 00 00 00 	movl   $0x0,0x1c(%esp)
    371f:	00 
    3720:	89 44 24 20          	mov    %eax,0x20(%esp)
    3724:	c7 44 24 24 0a 00 00 	movl   $0xa,0x24(%esp)
    372b:	00 
    372c:	c7 44 24 28 00 00 00 	movl   $0x0,0x28(%esp)
    3733:	00 
    3734:	8d 83 61 e9 ff ff    	lea    -0x169f(%ebx),%eax
    373a:	89 44 24 2c          	mov    %eax,0x2c(%esp)
    373e:	c7 44 24 30 3f 00 00 	movl   $0x3f,0x30(%esp)
    3745:	00 
    3746:	c7 44 24 14 01 00 00 	movl   $0x1,0x14(%esp)
    374d:	00 
    374e:	c7 44 24 18 1d 00 00 	movl   $0x1d,0x18(%esp)
    3755:	00 
    3756:	8b 83 10 50 00 00    	mov    0x5010(%ebx),%eax
    375c:	83 f8 02             	cmp    $0x2,%eax
    375f:	74 10                	je     3771 <_RNvCs9xNfxAkRhBx_7___rustc17rust_begin_unwind+0xd1>
    3761:	8d 83 18 ff ff ff    	lea    -0xe8(%ebx),%eax
    3767:	75 10                	jne    3779 <_RNvCs9xNfxAkRhBx_7___rustc17rust_begin_unwind+0xd9>
    3769:	8b 8b 24 00 00 00    	mov    0x24(%ebx),%ecx
    376f:	eb 0e                	jmp    377f <_RNvCs9xNfxAkRhBx_7___rustc17rust_begin_unwind+0xdf>
    3771:	8b 83 28 00 00 00    	mov    0x28(%ebx),%eax
    3777:	74 f0                	je     3769 <_RNvCs9xNfxAkRhBx_7___rustc17rust_begin_unwind+0xc9>
    3779:	8d 8b 10 ee ff ff    	lea    -0x11f0(%ebx),%ecx
    377f:	83 ec 08             	sub    $0x8,%esp
    3782:	8d 54 24 1c          	lea    0x1c(%esp),%edx
    3786:	52                   	push   %edx
    3787:	51                   	push   %ecx
    3788:	ff 50 10             	call   *0x10(%eax)
    378b:	83 c4 10             	add    $0x10,%esp
    378e:	90                   	nop
    378f:	90                   	nop
    3790:	eb fe                	jmp    3790 <_RNvCs9xNfxAkRhBx_7___rustc17rust_begin_unwind+0xf0>
    3792:	66 90                	xchg   %ax,%ax
    3794:	66 90                	xchg   %ax,%ax
    3796:	66 90                	xchg   %ax,%ax
    3798:	66 90                	xchg   %ax,%ax
    379a:	66 90                	xchg   %ax,%ax
    379c:	66 90                	xchg   %ax,%ax
    379e:	66 90                	xchg   %ax,%ax

000037a0 <_ZN10kernel_lib8complete17hbeb237b8ef5fd0e2E>:
    37a0:	53                   	push   %ebx
    37a1:	83 ec 08             	sub    $0x8,%esp
    37a4:	e8 00 00 00 00       	call   37a9 <_ZN10kernel_lib8complete17hbeb237b8ef5fd0e2E+0x9>
    37a9:	5b                   	pop    %ebx
    37aa:	81 c3 4b 48 00 00    	add    $0x484b,%ebx
    37b0:	e8 7b ee ff ff       	call   2630 <_ZN10kernel_lib2rt11module_task17h654dfcef85848845E>
    37b5:	66 90                	xchg   %ax,%ax
    37b7:	66 90                	xchg   %ax,%ax
    37b9:	66 90                	xchg   %ax,%ax
    37bb:	66 90                	xchg   %ax,%ax
    37bd:	66 90                	xchg   %ax,%ax
    37bf:	90                   	nop

000037c0 <_ZN86_$LT$kernel_lib..object..kernel_buf..kernel..KernelBuf$u20$as$u20$core..fmt..Debug$GT$3fmt17h94632679a7b244b7E>:
    37c0:	55                   	push   %ebp
    37c1:	53                   	push   %ebx
    37c2:	57                   	push   %edi
    37c3:	56                   	push   %esi
    37c4:	83 ec 1c             	sub    $0x1c,%esp
    37c7:	e8 00 00 00 00       	call   37cc <_ZN86_$LT$kernel_lib..object..kernel_buf..kernel..KernelBuf$u20$as$u20$core..fmt..Debug$GT$3fmt17h94632679a7b244b7E+0xc>
    37cc:	5b                   	pop    %ebx
    37cd:	81 c3 28 48 00 00    	add    $0x4828,%ebx
    37d3:	8b 74 24 34          	mov    0x34(%esp),%esi
    37d7:	8b 6c 24 30          	mov    0x30(%esp),%ebp
    37db:	8d 45 04             	lea    0x4(%ebp),%eax
    37de:	89 44 24 14          	mov    %eax,0x14(%esp)
    37e2:	8d 45 08             	lea    0x8(%ebp),%eax
    37e5:	89 44 24 18          	mov    %eax,0x18(%esp)
    37e9:	8b 46 04             	mov    0x4(%esi),%eax
    37ec:	83 ec 04             	sub    $0x4,%esp
    37ef:	8d 8b e1 e9 ff ff    	lea    -0x161f(%ebx),%ecx
    37f5:	6a 09                	push   $0x9
    37f7:	51                   	push   %ecx
    37f8:	ff 36                	push   (%esi)
    37fa:	ff 50 0c             	call   *0xc(%eax)
    37fd:	83 c4 10             	add    $0x10,%esp
    3800:	89 74 24 0c          	mov    %esi,0xc(%esp)
    3804:	88 44 24 10          	mov    %al,0x10(%esp)
    3808:	c6 44 24 11 00       	movb   $0x0,0x11(%esp)
    380d:	83 ec 04             	sub    $0x4,%esp
    3810:	8d bb 7c 97 ff ff    	lea    -0x6884(%ebx),%edi
    3816:	8d 93 ea e9 ff ff    	lea    -0x1616(%ebx),%edx
    381c:	8d 74 24 10          	lea    0x10(%esp),%esi
    3820:	89 f1                	mov    %esi,%ecx
    3822:	57                   	push   %edi
    3823:	55                   	push   %ebp
    3824:	6a 03                	push   $0x3
    3826:	e8 85 19 00 00       	call   51b0 <_ZN4core3fmt8builders11DebugStruct5field17h3453ce3955d2bfaeE>
    382b:	83 c4 0c             	add    $0xc,%esp
    382e:	8d 93 ed e9 ff ff    	lea    -0x1613(%ebx),%edx
    3834:	89 f1                	mov    %esi,%ecx
    3836:	57                   	push   %edi
    3837:	ff 74 24 1c          	push   0x1c(%esp)
    383b:	6a 08                	push   $0x8
    383d:	e8 6e 19 00 00       	call   51b0 <_ZN4core3fmt8builders11DebugStruct5field17h3453ce3955d2bfaeE>
    3842:	83 c4 0c             	add    $0xc,%esp
    3845:	8d 83 dc 92 ff ff    	lea    -0x6d24(%ebx),%eax
    384b:	8d 7c 24 1c          	lea    0x1c(%esp),%edi
    384f:	8d 93 fd e9 ff ff    	lea    -0x1603(%ebx),%edx
    3855:	89 f1                	mov    %esi,%ecx
    3857:	50                   	push   %eax
    3858:	57                   	push   %edi
    3859:	6a 06                	push   $0x6
    385b:	e8 50 19 00 00       	call   51b0 <_ZN4core3fmt8builders11DebugStruct5field17h3453ce3955d2bfaeE>
    3860:	83 c4 10             	add    $0x10,%esp
    3863:	0f b6 4c 24 10       	movzbl 0x10(%esp),%ecx
    3868:	0f b6 44 24 11       	movzbl 0x11(%esp),%eax
    386d:	89 c2                	mov    %eax,%edx
    386f:	f6 d2                	not    %dl
    3871:	08 ca                	or     %cl,%dl
    3873:	f6 c2 01             	test   $0x1,%dl
    3876:	74 04                	je     387c <_ZN86_$LT$kernel_lib..object..kernel_buf..kernel..KernelBuf$u20$as$u20$core..fmt..Debug$GT$3fmt17h94632679a7b244b7E+0xbc>
    3878:	08 c8                	or     %cl,%al
    387a:	eb 31                	jmp    38ad <_ZN86_$LT$kernel_lib..object..kernel_buf..kernel..KernelBuf$u20$as$u20$core..fmt..Debug$GT$3fmt17h94632679a7b244b7E+0xed>
    387c:	8b 44 24 0c          	mov    0xc(%esp),%eax
    3880:	f6 40 0a 80          	testb  $0x80,0xa(%eax)
    3884:	75 10                	jne    3896 <_ZN86_$LT$kernel_lib..object..kernel_buf..kernel..KernelBuf$u20$as$u20$core..fmt..Debug$GT$3fmt17h94632679a7b244b7E+0xd6>
    3886:	8b 48 04             	mov    0x4(%eax),%ecx
    3889:	83 ec 04             	sub    $0x4,%esp
    388c:	8d 93 ec eb ff ff    	lea    -0x1414(%ebx),%edx
    3892:	6a 02                	push   $0x2
    3894:	eb 0e                	jmp    38a4 <_ZN86_$LT$kernel_lib..object..kernel_buf..kernel..KernelBuf$u20$as$u20$core..fmt..Debug$GT$3fmt17h94632679a7b244b7E+0xe4>
    3896:	8b 48 04             	mov    0x4(%eax),%ecx
    3899:	83 ec 04             	sub    $0x4,%esp
    389c:	8d 93 eb eb ff ff    	lea    -0x1415(%ebx),%edx
    38a2:	6a 01                	push   $0x1
    38a4:	52                   	push   %edx
    38a5:	ff 30                	push   (%eax)
    38a7:	ff 51 0c             	call   *0xc(%ecx)
    38aa:	83 c4 10             	add    $0x10,%esp
    38ad:	24 01                	and    $0x1,%al
    38af:	83 c4 1c             	add    $0x1c,%esp
    38b2:	5e                   	pop    %esi
    38b3:	5f                   	pop    %edi
    38b4:	5b                   	pop    %ebx
    38b5:	5d                   	pop    %ebp
    38b6:	c3                   	ret
    38b7:	66 90                	xchg   %ax,%ax
    38b9:	66 90                	xchg   %ax,%ax
    38bb:	66 90                	xchg   %ax,%ax
    38bd:	66 90                	xchg   %ax,%ax
    38bf:	90                   	nop

000038c0 <_ZN62_$LT$kernel_lib..ModuleError$u20$as$u20$core..fmt..Display$GT$3fmt17ha8664c7d15920444E>:
    38c0:	53                   	push   %ebx
    38c1:	83 ec 38             	sub    $0x38,%esp
    38c4:	e8 00 00 00 00       	call   38c9 <_ZN62_$LT$kernel_lib..ModuleError$u20$as$u20$core..fmt..Display$GT$3fmt17ha8664c7d15920444E+0x9>
    38c9:	5b                   	pop    %ebx
    38ca:	81 c3 2b 47 00 00    	add    $0x472b,%ebx
    38d0:	8b 44 24 44          	mov    0x44(%esp),%eax
    38d4:	8b 4c 24 40          	mov    0x40(%esp),%ecx
    38d8:	8b 11                	mov    (%ecx),%edx
    38da:	83 c1 04             	add    $0x4,%ecx
    38dd:	8b 94 93 6c e3 ff ff 	mov    -0x1c94(%ebx,%edx,4),%edx
    38e4:	01 da                	add    %ebx,%edx
    38e6:	ff e2                	jmp    *%edx
    38e8:	89 4c 24 14          	mov    %ecx,0x14(%esp)
    38ec:	8d 4c 24 14          	lea    0x14(%esp),%ecx
    38f0:	89 4c 24 18          	mov    %ecx,0x18(%esp)
    38f4:	8d 8b bc 96 ff ff    	lea    -0x6944(%ebx),%ecx
    38fa:	89 4c 24 1c          	mov    %ecx,0x1c(%esp)
    38fe:	8d 8b 18 fe ff ff    	lea    -0x1e8(%ebx),%ecx
    3904:	eb 5c                	jmp    3962 <_ZN62_$LT$kernel_lib..ModuleError$u20$as$u20$core..fmt..Display$GT$3fmt17ha8664c7d15920444E+0xa2>
    3906:	8b 08                	mov    (%eax),%ecx
    3908:	8b 40 04             	mov    0x4(%eax),%eax
    390b:	8d 93 1f ea ff ff    	lea    -0x15e1(%ebx),%edx
    3911:	89 54 24 04          	mov    %edx,0x4(%esp)
    3915:	89 0c 24             	mov    %ecx,(%esp)
    3918:	c7 44 24 08 11 00 00 	movl   $0x11,0x8(%esp)
    391f:	00 
    3920:	ff 50 0c             	call   *0xc(%eax)
    3923:	83 c4 38             	add    $0x38,%esp
    3926:	5b                   	pop    %ebx
    3927:	c3                   	ret
    3928:	89 4c 24 14          	mov    %ecx,0x14(%esp)
    392c:	8d 4c 24 14          	lea    0x14(%esp),%ecx
    3930:	89 4c 24 18          	mov    %ecx,0x18(%esp)
    3934:	8d 8b 8c 96 ff ff    	lea    -0x6974(%ebx),%ecx
    393a:	89 4c 24 1c          	mov    %ecx,0x1c(%esp)
    393e:	8d 8b 28 fe ff ff    	lea    -0x1d8(%ebx),%ecx
    3944:	eb 1c                	jmp    3962 <_ZN62_$LT$kernel_lib..ModuleError$u20$as$u20$core..fmt..Display$GT$3fmt17ha8664c7d15920444E+0xa2>
    3946:	89 4c 24 14          	mov    %ecx,0x14(%esp)
    394a:	8d 4c 24 14          	lea    0x14(%esp),%ecx
    394e:	89 4c 24 18          	mov    %ecx,0x18(%esp)
    3952:	8d 8b 5c 96 ff ff    	lea    -0x69a4(%ebx),%ecx
    3958:	89 4c 24 1c          	mov    %ecx,0x1c(%esp)
    395c:	8d 8b 20 fe ff ff    	lea    -0x1e0(%ebx),%ecx
    3962:	89 4c 24 20          	mov    %ecx,0x20(%esp)
    3966:	c7 44 24 24 01 00 00 	movl   $0x1,0x24(%esp)
    396d:	00 
    396e:	c7 44 24 30 00 00 00 	movl   $0x0,0x30(%esp)
    3975:	00 
    3976:	8d 4c 24 18          	lea    0x18(%esp),%ecx
    397a:	89 4c 24 28          	mov    %ecx,0x28(%esp)
    397e:	c7 44 24 2c 01 00 00 	movl   $0x1,0x2c(%esp)
    3985:	00 
    3986:	8b 08                	mov    (%eax),%ecx
    3988:	8b 50 04             	mov    0x4(%eax),%edx
    398b:	8d 44 24 20          	lea    0x20(%esp),%eax
    398f:	89 04 24             	mov    %eax,(%esp)
    3992:	e8 b9 14 00 00       	call   4e50 <_ZN4core3fmt5write17h60dc8996c7a95b44E>
    3997:	83 c4 38             	add    $0x38,%esp
    399a:	5b                   	pop    %ebx
    399b:	c3                   	ret
    399c:	66 90                	xchg   %ax,%ax
    399e:	66 90                	xchg   %ax,%ax

000039a0 <init>:
    39a0:	53                   	push   %ebx
    39a1:	57                   	push   %edi
    39a2:	56                   	push   %esi
    39a3:	83 ec 60             	sub    $0x60,%esp
    39a6:	e8 00 00 00 00       	call   39ab <init+0xb>
    39ab:	5b                   	pop    %ebx
    39ac:	81 c3 49 46 00 00    	add    $0x4649,%ebx
    39b2:	b9 01 00 00 00       	mov    $0x1,%ecx
    39b7:	31 c0                	xor    %eax,%eax
    39b9:	f0 0f b1 8b 10 50 00 	lock cmpxchg %ecx,0x5010(%ebx)
    39c0:	00 
    39c1:	0f 85 c3 00 00 00    	jne    3a8a <init+0xea>
    39c7:	8d 83 94 e6 ff ff    	lea    -0x196c(%ebx),%eax
    39cd:	89 83 24 00 00 00    	mov    %eax,0x24(%ebx)
    39d3:	8d 83 58 fd ff ff    	lea    -0x2a8(%ebx),%eax
    39d9:	89 83 28 00 00 00    	mov    %eax,0x28(%ebx)
    39df:	c7 83 10 50 00 00 02 	movl   $0x2,0x5010(%ebx)
    39e6:	00 00 00 
    39e9:	c7 83 14 50 00 00 04 	movl   $0x4,0x5014(%ebx)
    39f0:	00 00 00 
    39f3:	c7 44 24 0c 00 80 0b 	movl   $0xb8000,0xc(%esp)
    39fa:	00 
    39fb:	8d bb 0c 40 00 00    	lea    0x400c(%ebx),%edi
    3a01:	89 7c 24 10          	mov    %edi,0x10(%esp)
    3a05:	c7 44 24 14 d0 07 00 	movl   $0x7d0,0x14(%esp)
    3a0c:	00 
    3a0d:	8d 74 24 0c          	lea    0xc(%esp),%esi
    3a11:	89 f2                	mov    %esi,%edx
    3a13:	b8 03 00 00 00       	mov    $0x3,%eax
    3a18:	cd 80                	int    $0x80
    3a1a:	85 c0                	test   %eax,%eax
    3a1c:	0f 85 ea 01 00 00    	jne    3c0c <init+0x26c>
    3a22:	31 c0                	xor    %eax,%eax
    3a24:	8d 8b 0e 40 00 00    	lea    0x400e(%ebx),%ecx
    3a2a:	90                   	nop
    3a2b:	90                   	nop
    3a2c:	90                   	nop
    3a2d:	90                   	nop
    3a2e:	90                   	nop
    3a2f:	90                   	nop
    3a30:	66 c7 41 fe 20 0f    	movw   $0xf20,-0x2(%ecx)
    3a36:	83 c0 02             	add    $0x2,%eax
    3a39:	66 c7 01 20 0f       	movw   $0xf20,(%ecx)
    3a3e:	83 c1 04             	add    $0x4,%ecx
    3a41:	3d d0 07 00 00       	cmp    $0x7d0,%eax
    3a46:	75 e8                	jne    3a30 <init+0x90>
    3a48:	31 c9                	xor    %ecx,%ecx
    3a4a:	31 d2                	xor    %edx,%edx
    3a4c:	e8 cf 02 00 00       	call   3d20 <_ZN3vga9VgaWriter13update_cursor17h4b56fee7b06e16b3E>
    3a51:	0f b6 83 0c 50 00 00 	movzbl 0x500c(%ebx),%eax
    3a58:	b1 01                	mov    $0x1,%cl
    3a5a:	90                   	nop
    3a5b:	90                   	nop
    3a5c:	90                   	nop
    3a5d:	90                   	nop
    3a5e:	90                   	nop
    3a5f:	90                   	nop
    3a60:	31 c0                	xor    %eax,%eax
    3a62:	f0 0f b0 8b 0c 00 00 	lock cmpxchg %cl,0xc(%ebx)
    3a69:	00 
    3a6a:	74 62                	je     3ace <init+0x12e>
    3a6c:	90                   	nop
    3a6d:	90                   	nop
    3a6e:	90                   	nop
    3a6f:	90                   	nop
    3a70:	0f b6 83 0c 00 00 00 	movzbl 0xc(%ebx),%eax
    3a77:	84 c0                	test   %al,%al
    3a79:	74 e5                	je     3a60 <init+0xc0>
    3a7b:	f3 90                	pause
    3a7d:	0f b6 83 0c 00 00 00 	movzbl 0xc(%ebx),%eax
    3a84:	84 c0                	test   %al,%al
    3a86:	75 f3                	jne    3a7b <init+0xdb>
    3a88:	eb d6                	jmp    3a60 <init+0xc0>
    3a8a:	83 f8 01             	cmp    $0x1,%eax
    3a8d:	75 19                	jne    3aa8 <init+0x108>
    3a8f:	90                   	nop
    3a90:	8b 83 10 50 00 00    	mov    0x5010(%ebx),%eax
    3a96:	83 f8 01             	cmp    $0x1,%eax
    3a99:	75 0d                	jne    3aa8 <init+0x108>
    3a9b:	f3 90                	pause
    3a9d:	8b 83 10 50 00 00    	mov    0x5010(%ebx),%eax
    3aa3:	83 f8 01             	cmp    $0x1,%eax
    3aa6:	74 f3                	je     3a9b <init+0xfb>
    3aa8:	83 ec 04             	sub    $0x4,%esp
    3aab:	8d 83 a0 fe ff ff    	lea    -0x160(%ebx),%eax
    3ab1:	8d b3 68 fe ff ff    	lea    -0x198(%ebx),%esi
    3ab7:	8d 7c 24 0f          	lea    0xf(%esp),%edi
    3abb:	8d 8b f7 ea ff ff    	lea    -0x1509(%ebx),%ecx
    3ac1:	ba 2b 00 00 00       	mov    $0x2b,%edx
    3ac6:	50                   	push   %eax
    3ac7:	56                   	push   %esi
    3ac8:	57                   	push   %edi
    3ac9:	e8 f2 d6 ff ff       	call   11c0 <_ZN4core6result13unwrap_failed17he01453759a0dabd3E>
    3ace:	b9 04 00 00 00       	mov    $0x4,%ecx
    3ad3:	ba 10 00 00 00       	mov    $0x10,%edx
    3ad8:	e8 f3 de ff ff       	call   19d0 <_ZN4talc4talc13Talc$LT$O$GT$6malloc17hfb0da288b1d6f9eaE>
    3add:	c6 83 0c 00 00 00 00 	movb   $0x0,0xc(%ebx)
    3ae4:	85 c0                	test   %eax,%eax
    3ae6:	0f 84 16 01 00 00    	je     3c02 <init+0x262>
    3aec:	89 38                	mov    %edi,(%eax)
    3aee:	c7 40 04 00 00 00 00 	movl   $0x0,0x4(%eax)
    3af5:	c7 40 08 00 00 00 00 	movl   $0x0,0x8(%eax)
    3afc:	c6 40 0c 0f          	movb   $0xf,0xc(%eax)
    3b00:	c7 44 24 0c 03 00 00 	movl   $0x3,0xc(%esp)
    3b07:	00 
    3b08:	66 c7 44 24 10 76 67 	movw   $0x6776,0x10(%esp)
    3b0f:	c6 44 24 12 61       	movb   $0x61,0x12(%esp)
    3b14:	89 44 24 1c          	mov    %eax,0x1c(%esp)
    3b18:	8d 7c 24 0c          	lea    0xc(%esp),%edi
    3b1c:	89 fa                	mov    %edi,%edx
    3b1e:	b8 81 00 00 00       	mov    $0x81,%eax
    3b23:	cd 80                	int    $0x80
    3b25:	85 c0                	test   %eax,%eax
    3b27:	0f 85 f2 00 00 00    	jne    3c1f <init+0x27f>
    3b2d:	8b 83 14 50 00 00    	mov    0x5014(%ebx),%eax
    3b33:	83 f8 03             	cmp    $0x3,%eax
    3b36:	0f 82 b6 00 00 00    	jb     3bf2 <init+0x252>
    3b3c:	c7 44 24 2c 03 00 00 	movl   $0x3,0x2c(%esp)
    3b43:	00 
    3b44:	8d 83 68 eb ff ff    	lea    -0x1498(%ebx),%eax
    3b4a:	89 44 24 30          	mov    %eax,0x30(%esp)
    3b4e:	c7 44 24 34 03 00 00 	movl   $0x3,0x34(%esp)
    3b55:	00 
    3b56:	8d 8b 98 fe ff ff    	lea    -0x168(%ebx),%ecx
    3b5c:	89 4c 24 38          	mov    %ecx,0x38(%esp)
    3b60:	c7 44 24 3c 01 00 00 	movl   $0x1,0x3c(%esp)
    3b67:	00 
    3b68:	c7 44 24 40 04 00 00 	movl   $0x4,0x40(%esp)
    3b6f:	00 
    3b70:	c7 44 24 44 00 00 00 	movl   $0x0,0x44(%esp)
    3b77:	00 
    3b78:	c7 44 24 48 00 00 00 	movl   $0x0,0x48(%esp)
    3b7f:	00 
    3b80:	c7 44 24 14 00 00 00 	movl   $0x0,0x14(%esp)
    3b87:	00 
    3b88:	89 44 24 18          	mov    %eax,0x18(%esp)
    3b8c:	c7 44 24 1c 03 00 00 	movl   $0x3,0x1c(%esp)
    3b93:	00 
    3b94:	c7 44 24 20 00 00 00 	movl   $0x0,0x20(%esp)
    3b9b:	00 
    3b9c:	8d 83 3d eb ff ff    	lea    -0x14c3(%ebx),%eax
    3ba2:	89 44 24 24          	mov    %eax,0x24(%esp)
    3ba6:	c7 44 24 28 0f 00 00 	movl   $0xf,0x28(%esp)
    3bad:	00 
    3bae:	c7 44 24 0c 01 00 00 	movl   $0x1,0xc(%esp)
    3bb5:	00 
    3bb6:	c7 44 24 10 a2 00 00 	movl   $0xa2,0x10(%esp)
    3bbd:	00 
    3bbe:	8b 83 10 50 00 00    	mov    0x5010(%ebx),%eax
    3bc4:	83 f8 02             	cmp    $0x2,%eax
    3bc7:	74 10                	je     3bd9 <init+0x239>
    3bc9:	8d 83 18 ff ff ff    	lea    -0xe8(%ebx),%eax
    3bcf:	75 10                	jne    3be1 <init+0x241>
    3bd1:	8b 8b 24 00 00 00    	mov    0x24(%ebx),%ecx
    3bd7:	eb 0e                	jmp    3be7 <init+0x247>
    3bd9:	8b 83 28 00 00 00    	mov    0x28(%ebx),%eax
    3bdf:	74 f0                	je     3bd1 <init+0x231>
    3be1:	8d 8b 10 ee ff ff    	lea    -0x11f0(%ebx),%ecx
    3be7:	83 ec 08             	sub    $0x8,%esp
    3bea:	57                   	push   %edi
    3beb:	51                   	push   %ecx
    3bec:	ff 50 10             	call   *0x10(%eax)
    3bef:	83 c4 10             	add    $0x10,%esp
    3bf2:	8d 93 fc bd ff ff    	lea    -0x4204(%ebx),%edx
    3bf8:	b9 02 00 00 00       	mov    $0x2,%ecx
    3bfd:	e8 9e fb ff ff       	call   37a0 <_ZN10kernel_lib8complete17hbeb237b8ef5fd0e2E>
    3c02:	b9 10 00 00 00       	mov    $0x10,%ecx
    3c07:	e8 f4 d3 ff ff       	call   1000 <_ZN5alloc5alloc18handle_alloc_error17h692534c446c02bcdE>
    3c0c:	b9 42 00 00 00       	mov    $0x42,%ecx
    3c11:	8d 50 ff             	lea    -0x1(%eax),%edx
    3c14:	83 fa 0a             	cmp    $0xa,%edx
    3c17:	73 02                	jae    3c1b <init+0x27b>
    3c19:	89 c1                	mov    %eax,%ecx
    3c1b:	31 c0                	xor    %eax,%eax
    3c1d:	eb 14                	jmp    3c33 <init+0x293>
    3c1f:	b9 42 00 00 00       	mov    $0x42,%ecx
    3c24:	8d 50 ff             	lea    -0x1(%eax),%edx
    3c27:	83 fa 09             	cmp    $0x9,%edx
    3c2a:	77 02                	ja     3c2e <init+0x28e>
    3c2c:	89 c1                	mov    %eax,%ecx
    3c2e:	b8 02 00 00 00       	mov    $0x2,%eax
    3c33:	89 44 24 50          	mov    %eax,0x50(%esp)
    3c37:	89 4c 24 54          	mov    %ecx,0x54(%esp)
    3c3b:	8b 83 14 50 00 00    	mov    0x5014(%ebx),%eax
    3c41:	85 c0                	test   %eax,%eax
    3c43:	0f 84 c8 00 00 00    	je     3d11 <init+0x371>
    3c49:	8d 44 24 50          	lea    0x50(%esp),%eax
    3c4d:	89 44 24 58          	mov    %eax,0x58(%esp)
    3c51:	8d 83 cc b8 ff ff    	lea    -0x4734(%ebx),%eax
    3c57:	89 44 24 5c          	mov    %eax,0x5c(%esp)
    3c5b:	c7 44 24 2c 01 00 00 	movl   $0x1,0x2c(%esp)
    3c62:	00 
    3c63:	8d 83 68 eb ff ff    	lea    -0x1498(%ebx),%eax
    3c69:	89 44 24 30          	mov    %eax,0x30(%esp)
    3c6d:	c7 44 24 34 03 00 00 	movl   $0x3,0x34(%esp)
    3c74:	00 
    3c75:	8d 8b b0 fe ff ff    	lea    -0x150(%ebx),%ecx
    3c7b:	89 4c 24 38          	mov    %ecx,0x38(%esp)
    3c7f:	c7 44 24 3c 01 00 00 	movl   $0x1,0x3c(%esp)
    3c86:	00 
    3c87:	8d 4c 24 58          	lea    0x58(%esp),%ecx
    3c8b:	89 4c 24 40          	mov    %ecx,0x40(%esp)
    3c8f:	c7 44 24 44 01 00 00 	movl   $0x1,0x44(%esp)
    3c96:	00 
    3c97:	c7 44 24 48 00 00 00 	movl   $0x0,0x48(%esp)
    3c9e:	00 
    3c9f:	c7 44 24 14 00 00 00 	movl   $0x0,0x14(%esp)
    3ca6:	00 
    3ca7:	89 44 24 18          	mov    %eax,0x18(%esp)
    3cab:	c7 44 24 1c 03 00 00 	movl   $0x3,0x1c(%esp)
    3cb2:	00 
    3cb3:	c7 44 24 20 00 00 00 	movl   $0x0,0x20(%esp)
    3cba:	00 
    3cbb:	8d 83 3d eb ff ff    	lea    -0x14c3(%ebx),%eax
    3cc1:	89 44 24 24          	mov    %eax,0x24(%esp)
    3cc5:	c7 44 24 28 0f 00 00 	movl   $0xf,0x28(%esp)
    3ccc:	00 
    3ccd:	c7 44 24 0c 01 00 00 	movl   $0x1,0xc(%esp)
    3cd4:	00 
    3cd5:	c7 44 24 10 0e 00 00 	movl   $0xe,0x10(%esp)
    3cdc:	00 
    3cdd:	8b 83 10 50 00 00    	mov    0x5010(%ebx),%eax
    3ce3:	83 f8 02             	cmp    $0x2,%eax
    3ce6:	74 08                	je     3cf0 <init+0x350>
    3ce8:	8d 83 18 ff ff ff    	lea    -0xe8(%ebx),%eax
    3cee:	eb 06                	jmp    3cf6 <init+0x356>
    3cf0:	8b 83 28 00 00 00    	mov    0x28(%ebx),%eax
    3cf6:	74 08                	je     3d00 <init+0x360>
    3cf8:	8d 8b 10 ee ff ff    	lea    -0x11f0(%ebx),%ecx
    3cfe:	eb 06                	jmp    3d06 <init+0x366>
    3d00:	8b 8b 24 00 00 00    	mov    0x24(%ebx),%ecx
    3d06:	83 ec 08             	sub    $0x8,%esp
    3d09:	56                   	push   %esi
    3d0a:	51                   	push   %ecx
    3d0b:	ff 50 10             	call   *0x10(%eax)
    3d0e:	83 c4 10             	add    $0x10,%esp
    3d11:	b8 01 00 00 00       	mov    $0x1,%eax
    3d16:	89 c0                	mov    %eax,%eax
    3d18:	cd 81                	int    $0x81
    3d1a:	0f 0b                	ud2
    3d1c:	66 90                	xchg   %ax,%ax
    3d1e:	66 90                	xchg   %ax,%ax

00003d20 <_ZN3vga9VgaWriter13update_cursor17h4b56fee7b06e16b3E>:
    3d20:	53                   	push   %ebx
    3d21:	57                   	push   %edi
    3d22:	56                   	push   %esi
    3d23:	81 ec 10 01 00 00    	sub    $0x110,%esp
    3d29:	e8 00 00 00 00       	call   3d2e <_ZN3vga9VgaWriter13update_cursor17h4b56fee7b06e16b3E+0xe>
    3d2e:	5b                   	pop    %ebx
    3d2f:	81 c3 c6 42 00 00    	add    $0x42c6,%ebx
    3d35:	8d 04 92             	lea    (%edx,%edx,4),%eax
    3d38:	c1 e0 04             	shl    $0x4,%eax
    3d3b:	01 c8                	add    %ecx,%eax
    3d3d:	c7 44 24 0c 00 00 00 	movl   $0x0,0xc(%esp)
    3d44:	00 
    3d45:	c7 44 24 08 00 0f d4 	movl   $0x3d40f00,0x8(%esp)
    3d4c:	03 
    3d4d:	89 c1                	mov    %eax,%ecx
    3d4f:	c1 e1 08             	shl    $0x8,%ecx
    3d52:	0f b7 c9             	movzwl %cx,%ecx
    3d55:	81 c9 00 00 d5 03    	or     $0x3d50000,%ecx
    3d5b:	89 4c 24 10          	mov    %ecx,0x10(%esp)
    3d5f:	c7 44 24 14 00 00 00 	movl   $0x0,0x14(%esp)
    3d66:	00 
    3d67:	c7 44 24 1c 00 00 00 	movl   $0x0,0x1c(%esp)
    3d6e:	00 
    3d6f:	c7 44 24 18 00 0e d4 	movl   $0x3d40e00,0x18(%esp)
    3d76:	03 
    3d77:	25 00 ff 00 00       	and    $0xff00,%eax
    3d7c:	0d 00 00 d5 03       	or     $0x3d50000,%eax
    3d81:	89 44 24 20          	mov    %eax,0x20(%esp)
    3d85:	c7 44 24 24 00 00 00 	movl   $0x0,0x24(%esp)
    3d8c:	00 
    3d8d:	c7 84 24 08 01 00 00 	movl   $0x4,0x108(%esp)
    3d94:	04 00 00 00 
    3d98:	8d 54 24 08          	lea    0x8(%esp),%edx
    3d9c:	b9 04 00 00 00       	mov    $0x4,%ecx
    3da1:	b8 84 00 00 00       	mov    $0x84,%eax
    3da6:	cd 80                	int    $0x80
    3da8:	85 c0                	test   %eax,%eax
    3daa:	75 0a                	jne    3db6 <_ZN3vga9VgaWriter13update_cursor17h4b56fee7b06e16b3E+0x96>
    3dac:	81 c4 10 01 00 00    	add    $0x110,%esp
    3db2:	5e                   	pop    %esi
    3db3:	5f                   	pop    %edi
    3db4:	5b                   	pop    %ebx
    3db5:	c3                   	ret
    3db6:	89 c1                	mov    %eax,%ecx
    3db8:	e8 33 1c 00 00       	call   59f0 <_ZN79_$LT$kernel_types..syscall..SyscallError$u20$as$u20$num_enum..FromPrimitive$GT$14from_primitive17h002ef1ea9aba70d5E>
    3dbd:	89 44 24 04          	mov    %eax,0x4(%esp)
    3dc1:	83 ec 04             	sub    $0x4,%esp
    3dc4:	8d 83 88 fe ff ff    	lea    -0x178(%ebx),%eax
    3dca:	8d b3 58 fe ff ff    	lea    -0x1a8(%ebx),%esi
    3dd0:	8d 7c 24 08          	lea    0x8(%esp),%edi
    3dd4:	8d 8b 4c eb ff ff    	lea    -0x14b4(%ebx),%ecx
    3dda:	ba 1b 00 00 00       	mov    $0x1b,%edx
    3ddf:	50                   	push   %eax
    3de0:	56                   	push   %esi
    3de1:	57                   	push   %edi
    3de2:	e8 d9 d3 ff ff       	call   11c0 <_ZN4core6result13unwrap_failed17he01453759a0dabd3E>
    3de7:	66 90                	xchg   %ax,%ax
    3de9:	66 90                	xchg   %ax,%ax
    3deb:	66 90                	xchg   %ax,%ax
    3ded:	66 90                	xchg   %ax,%ax
    3def:	90                   	nop

00003df0 <_ZN3vga5write17hdf203e499db81710E>:
    3df0:	55                   	push   %ebp
    3df1:	53                   	push   %ebx
    3df2:	57                   	push   %edi
    3df3:	56                   	push   %esi
    3df4:	83 ec 1c             	sub    $0x1c,%esp
    3df7:	e8 00 00 00 00       	call   3dfc <_ZN3vga5write17hdf203e499db81710E+0xc>
    3dfc:	58                   	pop    %eax
    3dfd:	81 c0 f8 41 00 00    	add    $0x41f8,%eax
    3e03:	89 44 24 10          	mov    %eax,0x10(%esp)
    3e07:	8b 4c 24 34          	mov    0x34(%esp),%ecx
    3e0b:	8b 44 24 30          	mov    0x30(%esp),%eax
    3e0f:	8b 58 08             	mov    0x8(%eax),%ebx
    3e12:	8b 41 04             	mov    0x4(%ecx),%eax
    3e15:	8b 51 08             	mov    0x8(%ecx),%edx
    3e18:	85 d2                	test   %edx,%edx
    3e1a:	89 44 24 0c          	mov    %eax,0xc(%esp)
    3e1e:	0f 84 96 00 00 00    	je     3eba <_ZN3vga5write17hdf203e499db81710E+0xca>
    3e24:	31 ed                	xor    %ebp,%ebp
    3e26:	89 54 24 18          	mov    %edx,0x18(%esp)
    3e2a:	eb 12                	jmp    3e3e <_ZN3vga5write17hdf203e499db81710E+0x4e>
    3e2c:	90                   	nop
    3e2d:	90                   	nop
    3e2e:	90                   	nop
    3e2f:	90                   	nop
    3e30:	89 7b 08             	mov    %edi,0x8(%ebx)
    3e33:	31 c9                	xor    %ecx,%ecx
    3e35:	45                   	inc    %ebp
    3e36:	39 ea                	cmp    %ebp,%edx
    3e38:	0f 84 7f 00 00 00    	je     3ebd <_ZN3vga5write17hdf203e499db81710E+0xcd>
    3e3e:	0f b6 34 28          	movzbl (%eax,%ebp,1),%esi
    3e42:	66 83 fe 0a          	cmp    $0xa,%si
    3e46:	75 18                	jne    3e60 <_ZN3vga5write17hdf203e499db81710E+0x70>
    3e48:	c7 43 04 00 00 00 00 	movl   $0x0,0x4(%ebx)
    3e4f:	8b 7b 08             	mov    0x8(%ebx),%edi
    3e52:	47                   	inc    %edi
    3e53:	83 ff 18             	cmp    $0x18,%edi
    3e56:	72 d8                	jb     3e30 <_ZN3vga5write17hdf203e499db81710E+0x40>
    3e58:	eb 56                	jmp    3eb0 <_ZN3vga5write17hdf203e499db81710E+0xc0>
    3e5a:	90                   	nop
    3e5b:	90                   	nop
    3e5c:	90                   	nop
    3e5d:	90                   	nop
    3e5e:	90                   	nop
    3e5f:	90                   	nop
    3e60:	8b 4b 04             	mov    0x4(%ebx),%ecx
    3e63:	8b 7b 08             	mov    0x8(%ebx),%edi
    3e66:	8d 04 bf             	lea    (%edi,%edi,4),%eax
    3e69:	c1 e0 04             	shl    $0x4,%eax
    3e6c:	01 c8                	add    %ecx,%eax
    3e6e:	3d d0 07 00 00       	cmp    $0x7d0,%eax
    3e73:	0f 83 a2 02 00 00    	jae    411b <_ZN3vga5write17hdf203e499db81710E+0x32b>
    3e79:	8b 13                	mov    (%ebx),%edx
    3e7b:	89 54 24 14          	mov    %edx,0x14(%esp)
    3e7f:	8b 53 0c             	mov    0xc(%ebx),%edx
    3e82:	c1 e2 08             	shl    $0x8,%edx
    3e85:	0f b7 f6             	movzwl %si,%esi
    3e88:	09 d6                	or     %edx,%esi
    3e8a:	8b 54 24 14          	mov    0x14(%esp),%edx
    3e8e:	66 89 34 42          	mov    %si,(%edx,%eax,2)
    3e92:	41                   	inc    %ecx
    3e93:	89 4b 04             	mov    %ecx,0x4(%ebx)
    3e96:	83 f9 50             	cmp    $0x50,%ecx
    3e99:	8b 44 24 0c          	mov    0xc(%esp),%eax
    3e9d:	8b 54 24 18          	mov    0x18(%esp),%edx
    3ea1:	72 92                	jb     3e35 <_ZN3vga5write17hdf203e499db81710E+0x45>
    3ea3:	c7 43 04 00 00 00 00 	movl   $0x0,0x4(%ebx)
    3eaa:	47                   	inc    %edi
    3eab:	83 ff 18             	cmp    $0x18,%edi
    3eae:	72 80                	jb     3e30 <_ZN3vga5write17hdf203e499db81710E+0x40>
    3eb0:	bf 18 00 00 00       	mov    $0x18,%edi
    3eb5:	e9 76 ff ff ff       	jmp    3e30 <_ZN3vga5write17hdf203e499db81710E+0x40>
    3eba:	8b 4b 04             	mov    0x4(%ebx),%ecx
    3ebd:	8b 53 08             	mov    0x8(%ebx),%edx
    3ec0:	8b 5c 24 10          	mov    0x10(%esp),%ebx
    3ec4:	e8 57 fe ff ff       	call   3d20 <_ZN3vga9VgaWriter13update_cursor17h4b56fee7b06e16b3E>
    3ec9:	8b 44 24 34          	mov    0x34(%esp),%eax
    3ecd:	8b 08                	mov    (%eax),%ecx
    3ecf:	85 c9                	test   %ecx,%ecx
    3ed1:	0f 84 2f 02 00 00    	je     4106 <_ZN3vga5write17hdf203e499db81710E+0x316>
    3ed7:	b2 01                	mov    $0x1,%dl
    3ed9:	90                   	nop
    3eda:	90                   	nop
    3edb:	90                   	nop
    3edc:	90                   	nop
    3edd:	90                   	nop
    3ede:	90                   	nop
    3edf:	90                   	nop
    3ee0:	31 c0                	xor    %eax,%eax
    3ee2:	f0 0f b0 93 0c 00 00 	lock cmpxchg %dl,0xc(%ebx)
    3ee9:	00 
    3eea:	75 06                	jne    3ef2 <_ZN3vga5write17hdf203e499db81710E+0x102>
    3eec:	eb 11                	jmp    3eff <_ZN3vga5write17hdf203e499db81710E+0x10f>
    3eee:	90                   	nop
    3eef:	90                   	nop
    3ef0:	f3 90                	pause
    3ef2:	0f b6 83 0c 00 00 00 	movzbl 0xc(%ebx),%eax
    3ef9:	84 c0                	test   %al,%al
    3efb:	75 f3                	jne    3ef0 <_ZN3vga5write17hdf203e499db81710E+0x100>
    3efd:	eb e1                	jmp    3ee0 <_ZN3vga5write17hdf203e499db81710E+0xf0>
    3eff:	8b 44 24 0c          	mov    0xc(%esp),%eax
    3f03:	01 c8                	add    %ecx,%eax
    3f05:	83 c0 03             	add    $0x3,%eax
    3f08:	83 e0 fc             	and    $0xfffffffc,%eax
    3f0b:	8b 28                	mov    (%eax),%ebp
    3f0d:	39 c5                	cmp    %eax,%ebp
    3f0f:	76 05                	jbe    3f16 <_ZN3vga5write17hdf203e499db81710E+0x126>
    3f11:	8b 4d 00             	mov    0x0(%ebp),%ecx
    3f14:	eb 04                	jmp    3f1a <_ZN3vga5write17hdf203e499db81710E+0x12a>
    3f16:	89 e9                	mov    %ebp,%ecx
    3f18:	89 c5                	mov    %eax,%ebp
    3f1a:	89 cf                	mov    %ecx,%edi
    3f1c:	83 e7 fc             	and    $0xfffffffc,%edi
    3f1f:	8b 47 fc             	mov    -0x4(%edi),%eax
    3f22:	a8 01                	test   $0x1,%al
    3f24:	75 13                	jne    3f39 <_ZN3vga5write17hdf203e499db81710E+0x149>
    3f26:	29 c7                	sub    %eax,%edi
    3f28:	83 f8 40             	cmp    $0x40,%eax
    3f2b:	89 4c 24 0c          	mov    %ecx,0xc(%esp)
    3f2f:	73 1b                	jae    3f4c <_ZN3vga5write17hdf203e499db81710E+0x15c>
    3f31:	83 c0 f4             	add    $0xfffffff4,%eax
    3f34:	c1 e8 02             	shr    $0x2,%eax
    3f37:	eb 3f                	jmp    3f78 <_ZN3vga5write17hdf203e499db81710E+0x188>
    3f39:	83 c0 02             	add    $0x2,%eax
    3f3c:	89 47 fc             	mov    %eax,-0x4(%edi)
    3f3f:	8d 55 04             	lea    0x4(%ebp),%edx
    3f42:	f6 c1 02             	test   $0x2,%cl
    3f45:	74 57                	je     3f9e <_ZN3vga5write17hdf203e499db81710E+0x1ae>
    3f47:	e9 8e 00 00 00       	jmp    3fda <_ZN3vga5write17hdf203e499db81710E+0x1ea>
    3f4c:	3d 80 00 00 00       	cmp    $0x80,%eax
    3f51:	73 08                	jae    3f5b <_ZN3vga5write17hdf203e499db81710E+0x16b>
    3f53:	c1 e8 03             	shr    $0x3,%eax
    3f56:	83 c0 05             	add    $0x5,%eax
    3f59:	eb 1d                	jmp    3f78 <_ZN3vga5write17hdf203e499db81710E+0x188>
    3f5b:	0f bd d0             	bsr    %eax,%edx
    3f5e:	83 f2 1f             	xor    $0x1f,%edx
    3f61:	b1 1e                	mov    $0x1e,%cl
    3f63:	28 d1                	sub    %dl,%cl
    3f65:	d3 e8                	shr    %cl,%eax
    3f67:	01 d2                	add    %edx,%edx
    3f69:	29 d0                	sub    %edx,%eax
    3f6b:	83 c0 43             	add    $0x43,%eax
    3f6e:	83 f8 3f             	cmp    $0x3f,%eax
    3f71:	72 05                	jb     3f78 <_ZN3vga5write17hdf203e499db81710E+0x188>
    3f73:	b8 3f 00 00 00       	mov    $0x3f,%eax
    3f78:	8b 0f                	mov    (%edi),%ecx
    3f7a:	8b 57 04             	mov    0x4(%edi),%edx
    3f7d:	89 0a                	mov    %ecx,(%edx)
    3f7f:	85 c9                	test   %ecx,%ecx
    3f81:	74 03                	je     3f86 <_ZN3vga5write17hdf203e499db81710E+0x196>
    3f83:	89 51 04             	mov    %edx,0x4(%ecx)
    3f86:	8b 8b 20 00 00 00    	mov    0x20(%ebx),%ecx
    3f8c:	83 3c 81 00          	cmpl   $0x0,(%ecx,%eax,4)
    3f90:	74 24                	je     3fb6 <_ZN3vga5write17hdf203e499db81710E+0x1c6>
    3f92:	8b 4c 24 0c          	mov    0xc(%esp),%ecx
    3f96:	8d 55 04             	lea    0x4(%ebp),%edx
    3f99:	f6 c1 02             	test   $0x2,%cl
    3f9c:	75 3c                	jne    3fda <_ZN3vga5write17hdf203e499db81710E+0x1ea>
    3f9e:	89 d5                	mov    %edx,%ebp
    3fa0:	29 fd                	sub    %edi,%ebp
    3fa2:	83 fd 40             	cmp    $0x40,%ebp
    3fa5:	0f 83 ca 00 00 00    	jae    4075 <_ZN3vga5write17hdf203e499db81710E+0x285>
    3fab:	8d 45 f4             	lea    -0xc(%ebp),%eax
    3fae:	c1 e8 02             	shr    $0x2,%eax
    3fb1:	e9 f4 00 00 00       	jmp    40aa <_ZN3vga5write17hdf203e499db81710E+0x2ba>
    3fb6:	31 d2                	xor    %edx,%edx
    3fb8:	83 f8 20             	cmp    $0x20,%eax
    3fbb:	0f 93 c2             	setae  %dl
    3fbe:	be 01 00 00 00       	mov    $0x1,%esi
    3fc3:	89 c1                	mov    %eax,%ecx
    3fc5:	d3 e6                	shl    %cl,%esi
    3fc7:	31 b4 93 18 00 00 00 	xor    %esi,0x18(%ebx,%edx,4)
    3fce:	8b 4c 24 0c          	mov    0xc(%esp),%ecx
    3fd2:	8d 55 04             	lea    0x4(%ebp),%edx
    3fd5:	f6 c1 02             	test   $0x2,%cl
    3fd8:	74 c4                	je     3f9e <_ZN3vga5write17hdf203e499db81710E+0x1ae>
    3fda:	8b 75 0c             	mov    0xc(%ebp),%esi
    3fdd:	83 fe 40             	cmp    $0x40,%esi
    3fe0:	89 54 24 14          	mov    %edx,0x14(%esp)
    3fe4:	73 08                	jae    3fee <_ZN3vga5write17hdf203e499db81710E+0x1fe>
    3fe6:	8d 46 f4             	lea    -0xc(%esi),%eax
    3fe9:	c1 e8 02             	shr    $0x2,%eax
    3fec:	eb 39                	jmp    4027 <_ZN3vga5write17hdf203e499db81710E+0x237>
    3fee:	81 fe 80 00 00 00    	cmp    $0x80,%esi
    3ff4:	73 0a                	jae    4000 <_ZN3vga5write17hdf203e499db81710E+0x210>
    3ff6:	89 f0                	mov    %esi,%eax
    3ff8:	c1 e8 03             	shr    $0x3,%eax
    3ffb:	83 c0 05             	add    $0x5,%eax
    3ffe:	eb 27                	jmp    4027 <_ZN3vga5write17hdf203e499db81710E+0x237>
    4000:	0f bd c6             	bsr    %esi,%eax
    4003:	83 f0 1f             	xor    $0x1f,%eax
    4006:	89 44 24 0c          	mov    %eax,0xc(%esp)
    400a:	b1 1e                	mov    $0x1e,%cl
    400c:	28 c1                	sub    %al,%cl
    400e:	89 f0                	mov    %esi,%eax
    4010:	d3 e8                	shr    %cl,%eax
    4012:	8b 4c 24 0c          	mov    0xc(%esp),%ecx
    4016:	01 c9                	add    %ecx,%ecx
    4018:	29 c8                	sub    %ecx,%eax
    401a:	83 c0 43             	add    $0x43,%eax
    401d:	83 f8 3f             	cmp    $0x3f,%eax
    4020:	72 05                	jb     4027 <_ZN3vga5write17hdf203e499db81710E+0x237>
    4022:	b8 3f 00 00 00       	mov    $0x3f,%eax
    4027:	8b 4d 04             	mov    0x4(%ebp),%ecx
    402a:	8b 55 08             	mov    0x8(%ebp),%edx
    402d:	89 0a                	mov    %ecx,(%edx)
    402f:	85 c9                	test   %ecx,%ecx
    4031:	74 03                	je     4036 <_ZN3vga5write17hdf203e499db81710E+0x246>
    4033:	89 51 04             	mov    %edx,0x4(%ecx)
    4036:	8b 8b 20 00 00 00    	mov    0x20(%ebx),%ecx
    403c:	83 3c 81 00          	cmpl   $0x0,(%ecx,%eax,4)
    4040:	75 20                	jne    4062 <_ZN3vga5write17hdf203e499db81710E+0x272>
    4042:	31 d2                	xor    %edx,%edx
    4044:	83 f8 20             	cmp    $0x20,%eax
    4047:	0f 93 c2             	setae  %dl
    404a:	bb 01 00 00 00       	mov    $0x1,%ebx
    404f:	89 c1                	mov    %eax,%ecx
    4051:	d3 e3                	shl    %cl,%ebx
    4053:	8b 44 24 10          	mov    0x10(%esp),%eax
    4057:	31 9c 90 18 00 00 00 	xor    %ebx,0x18(%eax,%edx,4)
    405e:	8b 5c 24 10          	mov    0x10(%esp),%ebx
    4062:	8b 54 24 14          	mov    0x14(%esp),%edx
    4066:	01 f2                	add    %esi,%edx
    4068:	89 d5                	mov    %edx,%ebp
    406a:	29 fd                	sub    %edi,%ebp
    406c:	83 fd 40             	cmp    $0x40,%ebp
    406f:	0f 82 36 ff ff ff    	jb     3fab <_ZN3vga5write17hdf203e499db81710E+0x1bb>
    4075:	81 fd 80 00 00 00    	cmp    $0x80,%ebp
    407b:	73 0a                	jae    4087 <_ZN3vga5write17hdf203e499db81710E+0x297>
    407d:	89 e8                	mov    %ebp,%eax
    407f:	c1 e8 03             	shr    $0x3,%eax
    4082:	83 c0 05             	add    $0x5,%eax
    4085:	eb 23                	jmp    40aa <_ZN3vga5write17hdf203e499db81710E+0x2ba>
    4087:	89 d6                	mov    %edx,%esi
    4089:	0f bd d5             	bsr    %ebp,%edx
    408c:	83 f2 1f             	xor    $0x1f,%edx
    408f:	b1 1e                	mov    $0x1e,%cl
    4091:	28 d1                	sub    %dl,%cl
    4093:	89 e8                	mov    %ebp,%eax
    4095:	d3 e8                	shr    %cl,%eax
    4097:	01 d2                	add    %edx,%edx
    4099:	29 d0                	sub    %edx,%eax
    409b:	83 c0 43             	add    $0x43,%eax
    409e:	83 f8 3f             	cmp    $0x3f,%eax
    40a1:	72 05                	jb     40a8 <_ZN3vga5write17hdf203e499db81710E+0x2b8>
    40a3:	b8 3f 00 00 00       	mov    $0x3f,%eax
    40a8:	89 f2                	mov    %esi,%edx
    40aa:	8b 8b 20 00 00 00    	mov    0x20(%ebx),%ecx
    40b0:	8d 34 81             	lea    (%ecx,%eax,4),%esi
    40b3:	8b 0c 81             	mov    (%ecx,%eax,4),%ecx
    40b6:	85 c9                	test   %ecx,%ecx
    40b8:	74 0c                	je     40c6 <_ZN3vga5write17hdf203e499db81710E+0x2d6>
    40ba:	89 0f                	mov    %ecx,(%edi)
    40bc:	89 77 04             	mov    %esi,0x4(%edi)
    40bf:	89 3e                	mov    %edi,(%esi)
    40c1:	89 79 04             	mov    %edi,0x4(%ecx)
    40c4:	eb 33                	jmp    40f9 <_ZN3vga5write17hdf203e499db81710E+0x309>
    40c6:	89 54 24 14          	mov    %edx,0x14(%esp)
    40ca:	31 d2                	xor    %edx,%edx
    40cc:	83 f8 20             	cmp    $0x20,%eax
    40cf:	0f 93 c2             	setae  %dl
    40d2:	bb 01 00 00 00       	mov    $0x1,%ebx
    40d7:	89 c1                	mov    %eax,%ecx
    40d9:	d3 e3                	shl    %cl,%ebx
    40db:	8b 44 24 10          	mov    0x10(%esp),%eax
    40df:	31 9c 90 18 00 00 00 	xor    %ebx,0x18(%eax,%edx,4)
    40e6:	8b 54 24 14          	mov    0x14(%esp),%edx
    40ea:	8b 5c 24 10          	mov    0x10(%esp),%ebx
    40ee:	c7 07 00 00 00 00    	movl   $0x0,(%edi)
    40f4:	89 77 04             	mov    %esi,0x4(%edi)
    40f7:	89 3e                	mov    %edi,(%esi)
    40f9:	89 6f 08             	mov    %ebp,0x8(%edi)
    40fc:	89 6a fc             	mov    %ebp,-0x4(%edx)
    40ff:	c6 83 0c 00 00 00 00 	movb   $0x0,0xc(%ebx)
    4106:	8b 44 24 30          	mov    0x30(%esp),%eax
    410a:	8b 08                	mov    (%eax),%ecx
    410c:	e8 0f 16 00 00       	call   5720 <_ZN81_$LT$kernel_types..object..handle..RawHandle$u20$as$u20$core..ops..drop..Drop$GT$4drop17h3ae0020523155c57E>
    4111:	31 c0                	xor    %eax,%eax
    4113:	83 c4 1c             	add    $0x1c,%esp
    4116:	5e                   	pop    %esi
    4117:	5f                   	pop    %edi
    4118:	5b                   	pop    %ebx
    4119:	5d                   	pop    %ebp
    411a:	c3                   	ret
    411b:	89 c1                	mov    %eax,%ecx
    411d:	8b 5c 24 10          	mov    0x10(%esp),%ebx
    4121:	e8 a3 cf ff ff       	call   10c9 <_ZN4core9panicking18panic_bounds_check17h1db588f06ac7ac58E>
    4126:	66 90                	xchg   %ax,%ax
    4128:	66 90                	xchg   %ax,%ax
    412a:	66 90                	xchg   %ax,%ax
    412c:	66 90                	xchg   %ax,%ax
    412e:	66 90                	xchg   %ax,%ax

00004130 <_ZN67_$LT$kernel_lib..io..error..IoError$u20$as$u20$core..fmt..Debug$GT$3fmt17h49ee300309aa25d9E>:
    4130:	55                   	push   %ebp
    4131:	53                   	push   %ebx
    4132:	57                   	push   %edi
    4133:	56                   	push   %esi
    4134:	83 ec 1c             	sub    $0x1c,%esp
    4137:	e8 00 00 00 00       	call   413c <_ZN67_$LT$kernel_lib..io..error..IoError$u20$as$u20$core..fmt..Debug$GT$3fmt17h49ee300309aa25d9E+0xc>
    413c:	5b                   	pop    %ebx
    413d:	81 c3 b8 3e 00 00    	add    $0x3eb8,%ebx
    4143:	8b 6c 24 34          	mov    0x34(%esp),%ebp
    4147:	8b 44 24 30          	mov    0x30(%esp),%eax
    414b:	83 38 00             	cmpl   $0x0,(%eax)
    414e:	74 71                	je     41c1 <_ZN67_$LT$kernel_lib..io..error..IoError$u20$as$u20$core..fmt..Debug$GT$3fmt17h49ee300309aa25d9E+0x91>
    4150:	8b 55 00             	mov    0x0(%ebp),%edx
    4153:	8b 45 04             	mov    0x4(%ebp),%eax
    4156:	89 44 24 0c          	mov    %eax,0xc(%esp)
    415a:	8b 48 0c             	mov    0xc(%eax),%ecx
    415d:	83 ec 04             	sub    $0x4,%esp
    4160:	8d 83 30 eb ff ff    	lea    -0x14d0(%ebx),%eax
    4166:	6a 0d                	push   $0xd
    4168:	50                   	push   %eax
    4169:	89 d7                	mov    %edx,%edi
    416b:	52                   	push   %edx
    416c:	89 ce                	mov    %ecx,%esi
    416e:	ff d1                	call   *%ecx
    4170:	83 c4 10             	add    $0x10,%esp
    4173:	b1 01                	mov    $0x1,%cl
    4175:	84 c0                	test   %al,%al
    4177:	0f 85 e5 00 00 00    	jne    4262 <_ZN67_$LT$kernel_lib..io..error..IoError$u20$as$u20$core..fmt..Debug$GT$3fmt17h49ee300309aa25d9E+0x132>
    417d:	f6 45 0a 80          	testb  $0x80,0xa(%ebp)
    4181:	75 5b                	jne    41de <_ZN67_$LT$kernel_lib..io..error..IoError$u20$as$u20$core..fmt..Debug$GT$3fmt17h49ee300309aa25d9E+0xae>
    4183:	83 ec 04             	sub    $0x4,%esp
    4186:	8d 83 ee eb ff ff    	lea    -0x1412(%ebx),%eax
    418c:	6a 01                	push   $0x1
    418e:	50                   	push   %eax
    418f:	57                   	push   %edi
    4190:	ff d6                	call   *%esi
    4192:	83 c4 10             	add    $0x10,%esp
    4195:	84 c0                	test   %al,%al
    4197:	0f 85 8e 00 00 00    	jne    422b <_ZN67_$LT$kernel_lib..io..error..IoError$u20$as$u20$core..fmt..Debug$GT$3fmt17h49ee300309aa25d9E+0xfb>
    419d:	83 ec 0c             	sub    $0xc,%esp
    41a0:	8b 4c 24 3c          	mov    0x3c(%esp),%ecx
    41a4:	89 fa                	mov    %edi,%edx
    41a6:	ff 74 24 18          	push   0x18(%esp)
    41aa:	e8 c1 00 00 00       	call   4270 <_ZN42_$LT$$RF$T$u20$as$u20$core..fmt..Debug$GT$3fmt17hdb15e9bf68e318a9E>
    41af:	83 c4 10             	add    $0x10,%esp
    41b2:	84 c0                	test   %al,%al
    41b4:	b1 01                	mov    $0x1,%cl
    41b6:	0f 85 a6 00 00 00    	jne    4262 <_ZN67_$LT$kernel_lib..io..error..IoError$u20$as$u20$core..fmt..Debug$GT$3fmt17h49ee300309aa25d9E+0x132>
    41bc:	e9 8d 00 00 00       	jmp    424e <_ZN67_$LT$kernel_lib..io..error..IoError$u20$as$u20$core..fmt..Debug$GT$3fmt17h49ee300309aa25d9E+0x11e>
    41c1:	8b 45 04             	mov    0x4(%ebp),%eax
    41c4:	83 ec 04             	sub    $0x4,%esp
    41c7:	8d 8b 78 ed ff ff    	lea    -0x1288(%ebx),%ecx
    41cd:	6a 0c                	push   $0xc
    41cf:	51                   	push   %ecx
    41d0:	ff 75 00             	push   0x0(%ebp)
    41d3:	ff 50 0c             	call   *0xc(%eax)
    41d6:	83 c4 2c             	add    $0x2c,%esp
    41d9:	e9 89 00 00 00       	jmp    4267 <_ZN67_$LT$kernel_lib..io..error..IoError$u20$as$u20$core..fmt..Debug$GT$3fmt17h49ee300309aa25d9E+0x137>
    41de:	83 ec 04             	sub    $0x4,%esp
    41e1:	8d 83 ef eb ff ff    	lea    -0x1411(%ebx),%eax
    41e7:	6a 02                	push   $0x2
    41e9:	50                   	push   %eax
    41ea:	57                   	push   %edi
    41eb:	ff d6                	call   *%esi
    41ed:	83 c4 10             	add    $0x10,%esp
    41f0:	84 c0                	test   %al,%al
    41f2:	75 37                	jne    422b <_ZN67_$LT$kernel_lib..io..error..IoError$u20$as$u20$core..fmt..Debug$GT$3fmt17h49ee300309aa25d9E+0xfb>
    41f4:	c6 44 24 0b 01       	movb   $0x1,0xb(%esp)
    41f9:	89 7c 24 10          	mov    %edi,0x10(%esp)
    41fd:	8b 44 24 0c          	mov    0xc(%esp),%eax
    4201:	89 44 24 14          	mov    %eax,0x14(%esp)
    4205:	8d 44 24 0b          	lea    0xb(%esp),%eax
    4209:	89 44 24 18          	mov    %eax,0x18(%esp)
    420d:	83 ec 0c             	sub    $0xc,%esp
    4210:	8d 83 f0 fe ff ff    	lea    -0x110(%ebx),%eax
    4216:	8d 54 24 1c          	lea    0x1c(%esp),%edx
    421a:	8b 4c 24 3c          	mov    0x3c(%esp),%ecx
    421e:	50                   	push   %eax
    421f:	e8 4c 00 00 00       	call   4270 <_ZN42_$LT$$RF$T$u20$as$u20$core..fmt..Debug$GT$3fmt17hdb15e9bf68e318a9E>
    4224:	83 c4 10             	add    $0x10,%esp
    4227:	84 c0                	test   %al,%al
    4229:	74 04                	je     422f <_ZN67_$LT$kernel_lib..io..error..IoError$u20$as$u20$core..fmt..Debug$GT$3fmt17h49ee300309aa25d9E+0xff>
    422b:	b1 01                	mov    $0x1,%cl
    422d:	eb 33                	jmp    4262 <_ZN67_$LT$kernel_lib..io..error..IoError$u20$as$u20$core..fmt..Debug$GT$3fmt17h49ee300309aa25d9E+0x132>
    422f:	83 ec 04             	sub    $0x4,%esp
    4232:	8d 83 e9 eb ff ff    	lea    -0x1417(%ebx),%eax
    4238:	6a 02                	push   $0x2
    423a:	50                   	push   %eax
    423b:	8d 44 24 1c          	lea    0x1c(%esp),%eax
    423f:	50                   	push   %eax
    4240:	e8 fb 10 00 00       	call   5340 <_ZN68_$LT$core..fmt..builders..PadAdapter$u20$as$u20$core..fmt..Write$GT$9write_str17h24b9d0f154c11ae5E>
    4245:	83 c4 10             	add    $0x10,%esp
    4248:	84 c0                	test   %al,%al
    424a:	b1 01                	mov    $0x1,%cl
    424c:	75 14                	jne    4262 <_ZN67_$LT$kernel_lib..io..error..IoError$u20$as$u20$core..fmt..Debug$GT$3fmt17h49ee300309aa25d9E+0x132>
    424e:	83 ec 04             	sub    $0x4,%esp
    4251:	8d 83 91 eb ff ff    	lea    -0x146f(%ebx),%eax
    4257:	6a 01                	push   $0x1
    4259:	50                   	push   %eax
    425a:	57                   	push   %edi
    425b:	ff d6                	call   *%esi
    425d:	83 c4 10             	add    $0x10,%esp
    4260:	89 c1                	mov    %eax,%ecx
    4262:	89 c8                	mov    %ecx,%eax
    4264:	83 c4 1c             	add    $0x1c,%esp
    4267:	5e                   	pop    %esi
    4268:	5f                   	pop    %edi
    4269:	5b                   	pop    %ebx
    426a:	5d                   	pop    %ebp
    426b:	c3                   	ret
    426c:	66 90                	xchg   %ax,%ax
    426e:	66 90                	xchg   %ax,%ax

00004270 <_ZN42_$LT$$RF$T$u20$as$u20$core..fmt..Debug$GT$3fmt17hdb15e9bf68e318a9E>:
    4270:	53                   	push   %ebx
    4271:	56                   	push   %esi
    4272:	50                   	push   %eax
    4273:	e8 00 00 00 00       	call   4278 <_ZN42_$LT$$RF$T$u20$as$u20$core..fmt..Debug$GT$3fmt17hdb15e9bf68e318a9E+0x8>
    4278:	5b                   	pop    %ebx
    4279:	81 c3 7c 3d 00 00    	add    $0x3d7c,%ebx
    427f:	8b 31                	mov    (%ecx),%esi
    4281:	8d 83 78 ed ff ff    	lea    -0x1288(%ebx),%eax
    4287:	b9 0c 00 00 00       	mov    $0xc,%ecx
    428c:	4e                   	dec    %esi
    428d:	8b b4 b3 7c e3 ff ff 	mov    -0x1c84(%ebx,%esi,4),%esi
    4294:	01 de                	add    %ebx,%esi
    4296:	ff e6                	jmp    *%esi
    4298:	8d 83 84 ed ff ff    	lea    -0x127c(%ebx),%eax
    429e:	b9 0b 00 00 00       	mov    $0xb,%ecx
    42a3:	eb 69                	jmp    430e <_ZN42_$LT$$RF$T$u20$as$u20$core..fmt..Debug$GT$3fmt17hdb15e9bf68e318a9E+0x9e>
    42a5:	8d 83 f5 e9 ff ff    	lea    -0x160b(%ebx),%eax
    42ab:	b9 08 00 00 00       	mov    $0x8,%ecx
    42b0:	eb 5c                	jmp    430e <_ZN42_$LT$$RF$T$u20$as$u20$core..fmt..Debug$GT$3fmt17hdb15e9bf68e318a9E+0x9e>
    42b2:	8d 83 e9 ed ff ff    	lea    -0x1217(%ebx),%eax
    42b8:	b9 0f 00 00 00       	mov    $0xf,%ecx
    42bd:	eb 4f                	jmp    430e <_ZN42_$LT$$RF$T$u20$as$u20$core..fmt..Debug$GT$3fmt17hdb15e9bf68e318a9E+0x9e>
    42bf:	8d 83 8f ed ff ff    	lea    -0x1271(%ebx),%eax
    42c5:	b9 0f 00 00 00       	mov    $0xf,%ecx
    42ca:	eb 42                	jmp    430e <_ZN42_$LT$$RF$T$u20$as$u20$core..fmt..Debug$GT$3fmt17hdb15e9bf68e318a9E+0x9e>
    42cc:	8d 83 9e ed ff ff    	lea    -0x1262(%ebx),%eax
    42d2:	eb 3a                	jmp    430e <_ZN42_$LT$$RF$T$u20$as$u20$core..fmt..Debug$GT$3fmt17hdb15e9bf68e318a9E+0x9e>
    42d4:	8d 83 ba ed ff ff    	lea    -0x1246(%ebx),%eax
    42da:	b9 10 00 00 00       	mov    $0x10,%ecx
    42df:	eb 2d                	jmp    430e <_ZN42_$LT$$RF$T$u20$as$u20$core..fmt..Debug$GT$3fmt17hdb15e9bf68e318a9E+0x9e>
    42e1:	8d 83 f8 ed ff ff    	lea    -0x1208(%ebx),%eax
    42e7:	b9 06 00 00 00       	mov    $0x6,%ecx
    42ec:	eb 20                	jmp    430e <_ZN42_$LT$$RF$T$u20$as$u20$core..fmt..Debug$GT$3fmt17hdb15e9bf68e318a9E+0x9e>
    42ee:	8d 83 aa ed ff ff    	lea    -0x1256(%ebx),%eax
    42f4:	b9 10 00 00 00       	mov    $0x10,%ecx
    42f9:	eb 13                	jmp    430e <_ZN42_$LT$$RF$T$u20$as$u20$core..fmt..Debug$GT$3fmt17hdb15e9bf68e318a9E+0x9e>
    42fb:	8d 83 ca ed ff ff    	lea    -0x1236(%ebx),%eax
    4301:	eb 0b                	jmp    430e <_ZN42_$LT$$RF$T$u20$as$u20$core..fmt..Debug$GT$3fmt17hdb15e9bf68e318a9E+0x9e>
    4303:	8d 83 d6 ed ff ff    	lea    -0x122a(%ebx),%eax
    4309:	b9 13 00 00 00       	mov    $0x13,%ecx
    430e:	8b 74 24 10          	mov    0x10(%esp),%esi
    4312:	83 ec 04             	sub    $0x4,%esp
    4315:	51                   	push   %ecx
    4316:	50                   	push   %eax
    4317:	52                   	push   %edx
    4318:	ff 56 0c             	call   *0xc(%esi)
    431b:	83 c4 14             	add    $0x14,%esp
    431e:	5e                   	pop    %esi
    431f:	5b                   	pop    %ebx
    4320:	c3                   	ret
    4321:	0f 0b                	ud2
    4323:	66 90                	xchg   %ax,%ax
    4325:	66 90                	xchg   %ax,%ax
    4327:	66 90                	xchg   %ax,%ax
    4329:	66 90                	xchg   %ax,%ax
    432b:	66 90                	xchg   %ax,%ax
    432d:	66 90                	xchg   %ax,%ax
    432f:	90                   	nop

00004330 <_ZN56_$LT$log..SetLoggerError$u20$as$u20$core..fmt..Debug$GT$3fmt17h5f6a409d114caf80E>:
    4330:	55                   	push   %ebp
    4331:	53                   	push   %ebx
    4332:	57                   	push   %edi
    4333:	56                   	push   %esi
    4334:	83 ec 2c             	sub    $0x2c,%esp
    4337:	e8 00 00 00 00       	call   433c <_ZN56_$LT$log..SetLoggerError$u20$as$u20$core..fmt..Debug$GT$3fmt17h5f6a409d114caf80E+0xc>
    433c:	5b                   	pop    %ebx
    433d:	81 c3 b8 3c 00 00    	add    $0x3cb8,%ebx
    4343:	8b 74 24 44          	mov    0x44(%esp),%esi
    4347:	8b 3e                	mov    (%esi),%edi
    4349:	8b 6e 04             	mov    0x4(%esi),%ebp
    434c:	8b 4d 0c             	mov    0xc(%ebp),%ecx
    434f:	83 ec 04             	sub    $0x4,%esp
    4352:	8d 83 22 eb ff ff    	lea    -0x14de(%ebx),%eax
    4358:	6a 0e                	push   $0xe
    435a:	50                   	push   %eax
    435b:	57                   	push   %edi
    435c:	89 4c 24 1c          	mov    %ecx,0x1c(%esp)
    4360:	ff d1                	call   *%ecx
    4362:	83 c4 10             	add    $0x10,%esp
    4365:	b1 01                	mov    $0x1,%cl
    4367:	84 c0                	test   %al,%al
    4369:	0f 85 e3 00 00 00    	jne    4452 <_ZN56_$LT$log..SetLoggerError$u20$as$u20$core..fmt..Debug$GT$3fmt17h5f6a409d114caf80E+0x122>
    436f:	f6 46 0a 80          	testb  $0x80,0xa(%esi)
    4373:	75 40                	jne    43b5 <_ZN56_$LT$log..SetLoggerError$u20$as$u20$core..fmt..Debug$GT$3fmt17h5f6a409d114caf80E+0x85>
    4375:	83 ec 04             	sub    $0x4,%esp
    4378:	8d 83 ee eb ff ff    	lea    -0x1412(%ebx),%eax
    437e:	6a 01                	push   $0x1
    4380:	50                   	push   %eax
    4381:	57                   	push   %edi
    4382:	ff 54 24 1c          	call   *0x1c(%esp)
    4386:	83 c4 10             	add    $0x10,%esp
    4389:	84 c0                	test   %al,%al
    438b:	0f 85 8c 00 00 00    	jne    441d <_ZN56_$LT$log..SetLoggerError$u20$as$u20$core..fmt..Debug$GT$3fmt17h5f6a409d114caf80E+0xed>
    4391:	83 ec 0c             	sub    $0xc,%esp
    4394:	8d 93 f5 ea ff ff    	lea    -0x150b(%ebx),%edx
    439a:	89 f1                	mov    %esi,%ecx
    439c:	6a 02                	push   $0x2
    439e:	e8 cd 04 00 00       	call   4870 <_ZN4core3fmt9Formatter3pad17hca3954b393b06d6eE>
    43a3:	83 c4 10             	add    $0x10,%esp
    43a6:	84 c0                	test   %al,%al
    43a8:	b1 01                	mov    $0x1,%cl
    43aa:	0f 84 8c 00 00 00    	je     443c <_ZN56_$LT$log..SetLoggerError$u20$as$u20$core..fmt..Debug$GT$3fmt17h5f6a409d114caf80E+0x10c>
    43b0:	e9 9d 00 00 00       	jmp    4452 <_ZN56_$LT$log..SetLoggerError$u20$as$u20$core..fmt..Debug$GT$3fmt17h5f6a409d114caf80E+0x122>
    43b5:	83 ec 04             	sub    $0x4,%esp
    43b8:	8d 83 ef eb ff ff    	lea    -0x1411(%ebx),%eax
    43be:	6a 02                	push   $0x2
    43c0:	50                   	push   %eax
    43c1:	57                   	push   %edi
    43c2:	ff 54 24 1c          	call   *0x1c(%esp)
    43c6:	83 c4 10             	add    $0x10,%esp
    43c9:	84 c0                	test   %al,%al
    43cb:	75 50                	jne    441d <_ZN56_$LT$log..SetLoggerError$u20$as$u20$core..fmt..Debug$GT$3fmt17h5f6a409d114caf80E+0xed>
    43cd:	c6 44 24 0b 01       	movb   $0x1,0xb(%esp)
    43d2:	89 7c 24 10          	mov    %edi,0x10(%esp)
    43d6:	89 6c 24 14          	mov    %ebp,0x14(%esp)
    43da:	8d 44 24 0b          	lea    0xb(%esp),%eax
    43de:	89 44 24 18          	mov    %eax,0x18(%esp)
    43e2:	8b 46 08             	mov    0x8(%esi),%eax
    43e5:	8b 4e 0c             	mov    0xc(%esi),%ecx
    43e8:	89 4c 24 28          	mov    %ecx,0x28(%esp)
    43ec:	89 44 24 24          	mov    %eax,0x24(%esp)
    43f0:	8d 74 24 10          	lea    0x10(%esp),%esi
    43f4:	89 74 24 1c          	mov    %esi,0x1c(%esp)
    43f8:	8d 83 f0 fe ff ff    	lea    -0x110(%ebx),%eax
    43fe:	89 44 24 20          	mov    %eax,0x20(%esp)
    4402:	83 ec 0c             	sub    $0xc,%esp
    4405:	8d 93 f5 ea ff ff    	lea    -0x150b(%ebx),%edx
    440b:	8d 4c 24 28          	lea    0x28(%esp),%ecx
    440f:	6a 02                	push   $0x2
    4411:	e8 5a 04 00 00       	call   4870 <_ZN4core3fmt9Formatter3pad17hca3954b393b06d6eE>
    4416:	83 c4 10             	add    $0x10,%esp
    4419:	84 c0                	test   %al,%al
    441b:	74 04                	je     4421 <_ZN56_$LT$log..SetLoggerError$u20$as$u20$core..fmt..Debug$GT$3fmt17h5f6a409d114caf80E+0xf1>
    441d:	b1 01                	mov    $0x1,%cl
    441f:	eb 31                	jmp    4452 <_ZN56_$LT$log..SetLoggerError$u20$as$u20$core..fmt..Debug$GT$3fmt17h5f6a409d114caf80E+0x122>
    4421:	83 ec 04             	sub    $0x4,%esp
    4424:	8d 83 e9 eb ff ff    	lea    -0x1417(%ebx),%eax
    442a:	6a 02                	push   $0x2
    442c:	50                   	push   %eax
    442d:	56                   	push   %esi
    442e:	e8 0d 0f 00 00       	call   5340 <_ZN68_$LT$core..fmt..builders..PadAdapter$u20$as$u20$core..fmt..Write$GT$9write_str17h24b9d0f154c11ae5E>
    4433:	83 c4 10             	add    $0x10,%esp
    4436:	84 c0                	test   %al,%al
    4438:	b1 01                	mov    $0x1,%cl
    443a:	75 16                	jne    4452 <_ZN56_$LT$log..SetLoggerError$u20$as$u20$core..fmt..Debug$GT$3fmt17h5f6a409d114caf80E+0x122>
    443c:	83 ec 04             	sub    $0x4,%esp
    443f:	8d 83 91 eb ff ff    	lea    -0x146f(%ebx),%eax
    4445:	6a 01                	push   $0x1
    4447:	50                   	push   %eax
    4448:	57                   	push   %edi
    4449:	ff 54 24 1c          	call   *0x1c(%esp)
    444d:	83 c4 10             	add    $0x10,%esp
    4450:	89 c1                	mov    %eax,%ecx
    4452:	89 c8                	mov    %ecx,%eax
    4454:	83 c4 2c             	add    $0x2c,%esp
    4457:	5e                   	pop    %esi
    4458:	5f                   	pop    %edi
    4459:	5b                   	pop    %ebx
    445a:	5d                   	pop    %ebp
    445b:	c3                   	ret
    445c:	66 90                	xchg   %ax,%ax
    445e:	66 90                	xchg   %ax,%ax

00004460 <_ZN4core3fmt3num3imp54_$LT$impl$u20$core..fmt..Display$u20$for$u20$usize$GT$3fmt17h10e52ed1ac19dcc3E>:
    4460:	55                   	push   %ebp
    4461:	53                   	push   %ebx
    4462:	57                   	push   %edi
    4463:	56                   	push   %esi
    4464:	83 ec 1c             	sub    $0x1c,%esp
    4467:	e8 00 00 00 00       	call   446c <_ZN4core3fmt3num3imp54_$LT$impl$u20$core..fmt..Display$u20$for$u20$usize$GT$3fmt17h10e52ed1ac19dcc3E+0xc>
    446c:	5b                   	pop    %ebx
    446d:	81 c3 88 3b 00 00    	add    $0x3b88,%ebx
    4473:	8b 44 24 30          	mov    0x30(%esp),%eax
    4477:	8b 08                	mov    (%eax),%ecx
    4479:	b8 0a 00 00 00       	mov    $0xa,%eax
    447e:	89 ca                	mov    %ecx,%edx
    4480:	89 4c 24 0c          	mov    %ecx,0xc(%esp)
    4484:	81 f9 e8 03 00 00    	cmp    $0x3e8,%ecx
    448a:	72 64                	jb     44f0 <_ZN4core3fmt3num3imp54_$LT$impl$u20$core..fmt..Display$u20$for$u20$usize$GT$3fmt17h10e52ed1ac19dcc3E+0x90>
    448c:	bd 0a 00 00 00       	mov    $0xa,%ebp
    4491:	8b 74 24 0c          	mov    0xc(%esp),%esi
    4495:	90                   	nop
    4496:	90                   	nop
    4497:	90                   	nop
    4498:	90                   	nop
    4499:	90                   	nop
    449a:	90                   	nop
    449b:	90                   	nop
    449c:	90                   	nop
    449d:	90                   	nop
    449e:	90                   	nop
    449f:	90                   	nop
    44a0:	89 f0                	mov    %esi,%eax
    44a2:	b9 59 17 b7 d1       	mov    $0xd1b71759,%ecx
    44a7:	f7 e1                	mul    %ecx
    44a9:	c1 ea 0d             	shr    $0xd,%edx
    44ac:	69 c2 10 27 00 00    	imul   $0x2710,%edx,%eax
    44b2:	89 f1                	mov    %esi,%ecx
    44b4:	29 c1                	sub    %eax,%ecx
    44b6:	69 c1 7b 14 00 00    	imul   $0x147b,%ecx,%eax
    44bc:	c1 e8 13             	shr    $0x13,%eax
    44bf:	6b f8 64             	imul   $0x64,%eax,%edi
    44c2:	29 f9                	sub    %edi,%ecx
    44c4:	0f b7 84 43 f3 eb ff 	movzwl -0x140d(%ebx,%eax,2),%eax
    44cb:	ff 
    44cc:	66 89 44 2c 0e       	mov    %ax,0xe(%esp,%ebp,1)
    44d1:	0f b7 c1             	movzwl %cx,%eax
    44d4:	0f b7 84 43 f3 eb ff 	movzwl -0x140d(%ebx,%eax,2),%eax
    44db:	ff 
    44dc:	66 89 44 2c 10       	mov    %ax,0x10(%esp,%ebp,1)
    44e1:	8d 45 fc             	lea    -0x4(%ebp),%eax
    44e4:	89 c5                	mov    %eax,%ebp
    44e6:	81 fe 7f 96 98 00    	cmp    $0x98967f,%esi
    44ec:	89 d6                	mov    %edx,%esi
    44ee:	77 b0                	ja     44a0 <_ZN4core3fmt3num3imp54_$LT$impl$u20$core..fmt..Display$u20$for$u20$usize$GT$3fmt17h10e52ed1ac19dcc3E+0x40>
    44f0:	83 fa 09             	cmp    $0x9,%edx
    44f3:	76 29                	jbe    451e <_ZN4core3fmt3num3imp54_$LT$impl$u20$core..fmt..Display$u20$for$u20$usize$GT$3fmt17h10e52ed1ac19dcc3E+0xbe>
    44f5:	0f b7 ca             	movzwl %dx,%ecx
    44f8:	c1 e9 02             	shr    $0x2,%ecx
    44fb:	69 c9 7b 14 00 00    	imul   $0x147b,%ecx,%ecx
    4501:	c1 e9 11             	shr    $0x11,%ecx
    4504:	6b f1 64             	imul   $0x64,%ecx,%esi
    4507:	29 f2                	sub    %esi,%edx
    4509:	0f b7 d2             	movzwl %dx,%edx
    450c:	0f b7 94 53 f3 eb ff 	movzwl -0x140d(%ebx,%edx,2),%edx
    4513:	ff 
    4514:	66 89 54 04 10       	mov    %dx,0x10(%esp,%eax,1)
    4519:	83 c0 fe             	add    $0xfffffffe,%eax
    451c:	89 ca                	mov    %ecx,%edx
    451e:	8b 4c 24 34          	mov    0x34(%esp),%ecx
    4522:	83 7c 24 0c 00       	cmpl   $0x0,0xc(%esp)
    4527:	74 04                	je     452d <_ZN4core3fmt3num3imp54_$LT$impl$u20$core..fmt..Display$u20$for$u20$usize$GT$3fmt17h10e52ed1ac19dcc3E+0xcd>
    4529:	85 d2                	test   %edx,%edx
    452b:	74 10                	je     453d <_ZN4core3fmt3num3imp54_$LT$impl$u20$core..fmt..Display$u20$for$u20$usize$GT$3fmt17h10e52ed1ac19dcc3E+0xdd>
    452d:	83 e2 0f             	and    $0xf,%edx
    4530:	0f b6 94 53 f4 eb ff 	movzbl -0x140c(%ebx,%edx,2),%edx
    4537:	ff 
    4538:	88 54 04 11          	mov    %dl,0x11(%esp,%eax,1)
    453c:	48                   	dec    %eax
    453d:	be 0a 00 00 00       	mov    $0xa,%esi
    4542:	29 c6                	sub    %eax,%esi
    4544:	01 e0                	add    %esp,%eax
    4546:	83 c0 12             	add    $0x12,%eax
    4549:	ba 01 00 00 00       	mov    $0x1,%edx
    454e:	56                   	push   %esi
    454f:	50                   	push   %eax
    4550:	6a 00                	push   $0x0
    4552:	6a 01                	push   $0x1
    4554:	e8 17 00 00 00       	call   4570 <_ZN4core3fmt9Formatter12pad_integral17h098dc4ffcfaf833fE>
    4559:	83 c4 2c             	add    $0x2c,%esp
    455c:	5e                   	pop    %esi
    455d:	5f                   	pop    %edi
    455e:	5b                   	pop    %ebx
    455f:	5d                   	pop    %ebp
    4560:	c3                   	ret
    4561:	66 90                	xchg   %ax,%ax
    4563:	66 90                	xchg   %ax,%ax
    4565:	66 90                	xchg   %ax,%ax
    4567:	66 90                	xchg   %ax,%ax
    4569:	66 90                	xchg   %ax,%ax
    456b:	66 90                	xchg   %ax,%ax
    456d:	66 90                	xchg   %ax,%ax
    456f:	90                   	nop

00004570 <_ZN4core3fmt9Formatter12pad_integral17h098dc4ffcfaf833fE>:
    4570:	55                   	push   %ebp
    4571:	53                   	push   %ebx
    4572:	57                   	push   %edi
    4573:	56                   	push   %esi
    4574:	83 ec 1c             	sub    $0x1c,%esp
    4577:	e8 00 00 00 00       	call   457c <_ZN4core3fmt9Formatter12pad_integral17h098dc4ffcfaf833fE+0xc>
    457c:	5b                   	pop    %ebx
    457d:	81 c3 78 3a 00 00    	add    $0x3a78,%ebx
    4583:	8b 44 24 3c          	mov    0x3c(%esp),%eax
    4587:	85 d2                	test   %edx,%edx
    4589:	74 65                	je     45f0 <_ZN4core3fmt9Formatter12pad_integral17h098dc4ffcfaf833fE+0x80>
    458b:	8b 79 08             	mov    0x8(%ecx),%edi
    458e:	89 fa                	mov    %edi,%edx
    4590:	c7 44 24 04 00 00 11 	movl   $0x110000,0x4(%esp)
    4597:	00 
    4598:	81 e2 00 00 20 00    	and    $0x200000,%edx
    459e:	74 08                	je     45a8 <_ZN4core3fmt9Formatter12pad_integral17h098dc4ffcfaf833fE+0x38>
    45a0:	c7 44 24 04 2b 00 00 	movl   $0x2b,0x4(%esp)
    45a7:	00 
    45a8:	c1 ea 15             	shr    $0x15,%edx
    45ab:	01 c2                	add    %eax,%edx
    45ad:	8b 74 24 34          	mov    0x34(%esp),%esi
    45b1:	f7 c7 00 00 80 00    	test   $0x800000,%edi
    45b7:	74 51                	je     460a <_ZN4core3fmt9Formatter12pad_integral17h098dc4ffcfaf833fE+0x9a>
    45b9:	8b 6c 24 30          	mov    0x30(%esp),%ebp
    45bd:	85 f6                	test   %esi,%esi
    45bf:	89 6c 24 10          	mov    %ebp,0x10(%esp)
    45c3:	0f 84 91 00 00 00    	je     465a <_ZN4core3fmt9Formatter12pad_integral17h098dc4ffcfaf833fE+0xea>
    45c9:	31 c0                	xor    %eax,%eax
    45cb:	80 7d 00 c0          	cmpb   $0xc0,0x0(%ebp)
    45cf:	0f 9d c0             	setge  %al
    45d2:	83 fe 01             	cmp    $0x1,%esi
    45d5:	0f 84 81 00 00 00    	je     465c <_ZN4core3fmt9Formatter12pad_integral17h098dc4ffcfaf833fE+0xec>
    45db:	89 54 24 0c          	mov    %edx,0xc(%esp)
    45df:	31 d2                	xor    %edx,%edx
    45e1:	80 7d 01 c0          	cmpb   $0xc0,0x1(%ebp)
    45e5:	0f 9d c2             	setge  %dl
    45e8:	01 d0                	add    %edx,%eax
    45ea:	8b 54 24 0c          	mov    0xc(%esp),%edx
    45ee:	eb 6c                	jmp    465c <_ZN4core3fmt9Formatter12pad_integral17h098dc4ffcfaf833fE+0xec>
    45f0:	8d 50 01             	lea    0x1(%eax),%edx
    45f3:	8b 79 08             	mov    0x8(%ecx),%edi
    45f6:	c7 44 24 04 2d 00 00 	movl   $0x2d,0x4(%esp)
    45fd:	00 
    45fe:	8b 74 24 34          	mov    0x34(%esp),%esi
    4602:	f7 c7 00 00 80 00    	test   $0x800000,%edi
    4608:	75 af                	jne    45b9 <_ZN4core3fmt9Formatter12pad_integral17h098dc4ffcfaf833fE+0x49>
    460a:	c7 44 24 10 00 00 00 	movl   $0x0,0x10(%esp)
    4611:	00 
    4612:	0f b7 69 0c          	movzwl 0xc(%ecx),%ebp
    4616:	39 ea                	cmp    %ebp,%edx
    4618:	72 50                	jb     466a <_ZN4core3fmt9Formatter12pad_integral17h098dc4ffcfaf833fE+0xfa>
    461a:	89 c5                	mov    %eax,%ebp
    461c:	8b 39                	mov    (%ecx),%edi
    461e:	8b 71 04             	mov    0x4(%ecx),%esi
    4621:	83 ec 04             	sub    $0x4,%esp
    4624:	89 f9                	mov    %edi,%ecx
    4626:	89 f2                	mov    %esi,%edx
    4628:	ff 74 24 38          	push   0x38(%esp)
    462c:	ff 74 24 18          	push   0x18(%esp)
    4630:	ff 74 24 10          	push   0x10(%esp)
    4634:	e8 d7 01 00 00       	call   4810 <_ZN4core3fmt9Formatter12pad_integral12write_prefix17hcfe3f7c8045b9b50E>
    4639:	83 c4 10             	add    $0x10,%esp
    463c:	b1 01                	mov    $0x1,%cl
    463e:	84 c0                	test   %al,%al
    4640:	0f 85 ba 01 00 00    	jne    4800 <_ZN4core3fmt9Formatter12pad_integral17h098dc4ffcfaf833fE+0x290>
    4646:	83 ec 04             	sub    $0x4,%esp
    4649:	55                   	push   %ebp
    464a:	ff 74 24 40          	push   0x40(%esp)
    464e:	57                   	push   %edi
    464f:	ff 56 0c             	call   *0xc(%esi)
    4652:	83 c4 2c             	add    $0x2c,%esp
    4655:	e9 ab 01 00 00       	jmp    4805 <_ZN4core3fmt9Formatter12pad_integral17h098dc4ffcfaf833fE+0x295>
    465a:	31 c0                	xor    %eax,%eax
    465c:	01 c2                	add    %eax,%edx
    465e:	8b 44 24 3c          	mov    0x3c(%esp),%eax
    4662:	0f b7 69 0c          	movzwl 0xc(%ecx),%ebp
    4666:	39 ea                	cmp    %ebp,%edx
    4668:	73 b0                	jae    461a <_ZN4core3fmt9Formatter12pad_integral17h098dc4ffcfaf833fE+0xaa>
    466a:	f7 c7 00 00 00 01    	test   $0x1000000,%edi
    4670:	89 54 24 0c          	mov    %edx,0xc(%esp)
    4674:	75 20                	jne    4696 <_ZN4core3fmt9Formatter12pad_integral17h098dc4ffcfaf833fE+0x126>
    4676:	89 ee                	mov    %ebp,%esi
    4678:	29 d6                	sub    %edx,%esi
    467a:	89 f8                	mov    %edi,%eax
    467c:	c1 e8 1d             	shr    $0x1d,%eax
    467f:	83 e0 03             	and    $0x3,%eax
    4682:	31 d2                	xor    %edx,%edx
    4684:	8b 84 83 84 e4 ff ff 	mov    -0x1b7c(%ebx,%eax,4),%eax
    468b:	01 d8                	add    %ebx,%eax
    468d:	ff e0                	jmp    *%eax
    468f:	89 f2                	mov    %esi,%edx
    4691:	e9 a9 00 00 00       	jmp    473f <_ZN4core3fmt9Formatter12pad_integral17h098dc4ffcfaf833fE+0x1cf>
    4696:	8b 41 0c             	mov    0xc(%ecx),%eax
    4699:	89 44 24 14          	mov    %eax,0x14(%esp)
    469d:	8b 41 08             	mov    0x8(%ecx),%eax
    46a0:	89 04 24             	mov    %eax,(%esp)
    46a3:	25 00 00 e0 9f       	and    $0x9fe00000,%eax
    46a8:	0d 30 00 00 20       	or     $0x20000030,%eax
    46ad:	89 41 08             	mov    %eax,0x8(%ecx)
    46b0:	8b 39                	mov    (%ecx),%edi
    46b2:	89 4c 24 08          	mov    %ecx,0x8(%esp)
    46b6:	8b 71 04             	mov    0x4(%ecx),%esi
    46b9:	83 ec 04             	sub    $0x4,%esp
    46bc:	89 f9                	mov    %edi,%ecx
    46be:	89 f2                	mov    %esi,%edx
    46c0:	ff 74 24 38          	push   0x38(%esp)
    46c4:	ff 74 24 18          	push   0x18(%esp)
    46c8:	ff 74 24 10          	push   0x10(%esp)
    46cc:	e8 3f 01 00 00       	call   4810 <_ZN4core3fmt9Formatter12pad_integral12write_prefix17hcfe3f7c8045b9b50E>
    46d1:	83 c4 10             	add    $0x10,%esp
    46d4:	b1 01                	mov    $0x1,%cl
    46d6:	84 c0                	test   %al,%al
    46d8:	0f 85 22 01 00 00    	jne    4800 <_ZN4core3fmt9Formatter12pad_integral17h098dc4ffcfaf833fE+0x290>
    46de:	2b 6c 24 0c          	sub    0xc(%esp),%ebp
    46e2:	45                   	inc    %ebp
    46e3:	90                   	nop
    46e4:	90                   	nop
    46e5:	90                   	nop
    46e6:	90                   	nop
    46e7:	90                   	nop
    46e8:	90                   	nop
    46e9:	90                   	nop
    46ea:	90                   	nop
    46eb:	90                   	nop
    46ec:	90                   	nop
    46ed:	90                   	nop
    46ee:	90                   	nop
    46ef:	90                   	nop
    46f0:	66 4d                	dec    %bp
    46f2:	74 12                	je     4706 <_ZN4core3fmt9Formatter12pad_integral17h098dc4ffcfaf833fE+0x196>
    46f4:	83 ec 08             	sub    $0x8,%esp
    46f7:	6a 30                	push   $0x30
    46f9:	57                   	push   %edi
    46fa:	ff 56 10             	call   *0x10(%esi)
    46fd:	83 c4 10             	add    $0x10,%esp
    4700:	84 c0                	test   %al,%al
    4702:	74 ec                	je     46f0 <_ZN4core3fmt9Formatter12pad_integral17h098dc4ffcfaf833fE+0x180>
    4704:	eb 73                	jmp    4779 <_ZN4core3fmt9Formatter12pad_integral17h098dc4ffcfaf833fE+0x209>
    4706:	83 ec 04             	sub    $0x4,%esp
    4709:	ff 74 24 40          	push   0x40(%esp)
    470d:	ff 74 24 40          	push   0x40(%esp)
    4711:	57                   	push   %edi
    4712:	ff 56 0c             	call   *0xc(%esi)
    4715:	83 c4 10             	add    $0x10,%esp
    4718:	84 c0                	test   %al,%al
    471a:	b1 01                	mov    $0x1,%cl
    471c:	0f 85 de 00 00 00    	jne    4800 <_ZN4core3fmt9Formatter12pad_integral17h098dc4ffcfaf833fE+0x290>
    4722:	8b 44 24 08          	mov    0x8(%esp),%eax
    4726:	8b 0c 24             	mov    (%esp),%ecx
    4729:	89 48 08             	mov    %ecx,0x8(%eax)
    472c:	8b 4c 24 14          	mov    0x14(%esp),%ecx
    4730:	89 48 0c             	mov    %ecx,0xc(%eax)
    4733:	31 c9                	xor    %ecx,%ecx
    4735:	e9 c6 00 00 00       	jmp    4800 <_ZN4core3fmt9Formatter12pad_integral17h098dc4ffcfaf833fE+0x290>
    473a:	0f b7 d6             	movzwl %si,%edx
    473d:	d1 ea                	shr    $1,%edx
    473f:	89 34 24             	mov    %esi,(%esp)
    4742:	81 e7 ff ff 1f 00    	and    $0x1fffff,%edi
    4748:	89 7c 24 14          	mov    %edi,0x14(%esp)
    474c:	8b 01                	mov    (%ecx),%eax
    474e:	89 44 24 08          	mov    %eax,0x8(%esp)
    4752:	8b 79 04             	mov    0x4(%ecx),%edi
    4755:	89 54 24 18          	mov    %edx,0x18(%esp)
    4759:	8d 72 01             	lea    0x1(%edx),%esi
    475c:	90                   	nop
    475d:	90                   	nop
    475e:	90                   	nop
    475f:	90                   	nop
    4760:	66 4e                	dec    %si
    4762:	74 1c                	je     4780 <_ZN4core3fmt9Formatter12pad_integral17h098dc4ffcfaf833fE+0x210>
    4764:	83 ec 08             	sub    $0x8,%esp
    4767:	ff 74 24 1c          	push   0x1c(%esp)
    476b:	ff 74 24 14          	push   0x14(%esp)
    476f:	ff 57 10             	call   *0x10(%edi)
    4772:	83 c4 10             	add    $0x10,%esp
    4775:	84 c0                	test   %al,%al
    4777:	74 e7                	je     4760 <_ZN4core3fmt9Formatter12pad_integral17h098dc4ffcfaf833fE+0x1f0>
    4779:	b1 01                	mov    $0x1,%cl
    477b:	e9 80 00 00 00       	jmp    4800 <_ZN4core3fmt9Formatter12pad_integral17h098dc4ffcfaf833fE+0x290>
    4780:	83 ec 04             	sub    $0x4,%esp
    4783:	8b 74 24 0c          	mov    0xc(%esp),%esi
    4787:	89 f1                	mov    %esi,%ecx
    4789:	89 fa                	mov    %edi,%edx
    478b:	ff 74 24 38          	push   0x38(%esp)
    478f:	ff 74 24 18          	push   0x18(%esp)
    4793:	ff 74 24 10          	push   0x10(%esp)
    4797:	e8 74 00 00 00       	call   4810 <_ZN4core3fmt9Formatter12pad_integral12write_prefix17hcfe3f7c8045b9b50E>
    479c:	83 c4 10             	add    $0x10,%esp
    479f:	b1 01                	mov    $0x1,%cl
    47a1:	84 c0                	test   %al,%al
    47a3:	75 5b                	jne    4800 <_ZN4core3fmt9Formatter12pad_integral17h098dc4ffcfaf833fE+0x290>
    47a5:	83 ec 04             	sub    $0x4,%esp
    47a8:	ff 74 24 40          	push   0x40(%esp)
    47ac:	ff 74 24 40          	push   0x40(%esp)
    47b0:	56                   	push   %esi
    47b1:	ff 57 0c             	call   *0xc(%edi)
    47b4:	b1 01                	mov    $0x1,%cl
    47b6:	83 c4 10             	add    $0x10,%esp
    47b9:	84 c0                	test   %al,%al
    47bb:	75 43                	jne    4800 <_ZN4core3fmt9Formatter12pad_integral17h098dc4ffcfaf833fE+0x290>
    47bd:	8b 4c 24 18          	mov    0x18(%esp),%ecx
    47c1:	29 0c 24             	sub    %ecx,(%esp)
    47c4:	03 4c 24 0c          	add    0xc(%esp),%ecx
    47c8:	29 e9                	sub    %ebp,%ecx
    47ca:	66 bd ff ff          	mov    $0xffff,%bp
    47ce:	90                   	nop
    47cf:	90                   	nop
    47d0:	8d 04 29             	lea    (%ecx,%ebp,1),%eax
    47d3:	66 83 f8 ff          	cmp    $0xffff,%ax
    47d7:	74 1d                	je     47f6 <_ZN4core3fmt9Formatter12pad_integral17h098dc4ffcfaf833fE+0x286>
    47d9:	83 ec 08             	sub    $0x8,%esp
    47dc:	ff 74 24 1c          	push   0x1c(%esp)
    47e0:	56                   	push   %esi
    47e1:	89 ce                	mov    %ecx,%esi
    47e3:	ff 57 10             	call   *0x10(%edi)
    47e6:	89 f1                	mov    %esi,%ecx
    47e8:	8b 74 24 18          	mov    0x18(%esp),%esi
    47ec:	83 c4 10             	add    $0x10,%esp
    47ef:	45                   	inc    %ebp
    47f0:	84 c0                	test   %al,%al
    47f2:	74 dc                	je     47d0 <_ZN4core3fmt9Formatter12pad_integral17h098dc4ffcfaf833fE+0x260>
    47f4:	eb 03                	jmp    47f9 <_ZN4core3fmt9Formatter12pad_integral17h098dc4ffcfaf833fE+0x289>
    47f6:	8b 2c 24             	mov    (%esp),%ebp
    47f9:	66 3b 2c 24          	cmp    (%esp),%bp
    47fd:	0f 92 c1             	setb   %cl
    4800:	89 c8                	mov    %ecx,%eax
    4802:	83 c4 1c             	add    $0x1c,%esp
    4805:	5e                   	pop    %esi
    4806:	5f                   	pop    %edi
    4807:	5b                   	pop    %ebx
    4808:	5d                   	pop    %ebp
    4809:	c3                   	ret
    480a:	66 90                	xchg   %ax,%ax
    480c:	66 90                	xchg   %ax,%ax
    480e:	66 90                	xchg   %ax,%ax

00004810 <_ZN4core3fmt9Formatter12pad_integral12write_prefix17hcfe3f7c8045b9b50E>:
    4810:	53                   	push   %ebx
    4811:	57                   	push   %edi
    4812:	56                   	push   %esi
    4813:	89 d6                	mov    %edx,%esi
    4815:	89 cf                	mov    %ecx,%edi
    4817:	e8 00 00 00 00       	call   481c <_ZN4core3fmt9Formatter12pad_integral12write_prefix17hcfe3f7c8045b9b50E+0xc>
    481c:	5b                   	pop    %ebx
    481d:	81 c3 d8 37 00 00    	add    $0x37d8,%ebx
    4823:	8b 44 24 10          	mov    0x10(%esp),%eax
    4827:	3d 00 00 11 00       	cmp    $0x110000,%eax
    482c:	74 13                	je     4841 <_ZN4core3fmt9Formatter12pad_integral12write_prefix17hcfe3f7c8045b9b50E+0x31>
    482e:	83 ec 08             	sub    $0x8,%esp
    4831:	50                   	push   %eax
    4832:	57                   	push   %edi
    4833:	ff 56 10             	call   *0x10(%esi)
    4836:	83 c4 10             	add    $0x10,%esp
    4839:	89 c1                	mov    %eax,%ecx
    483b:	b0 01                	mov    $0x1,%al
    483d:	84 c9                	test   %cl,%cl
    483f:	75 1d                	jne    485e <_ZN4core3fmt9Formatter12pad_integral12write_prefix17hcfe3f7c8045b9b50E+0x4e>
    4841:	8b 44 24 14          	mov    0x14(%esp),%eax
    4845:	85 c0                	test   %eax,%eax
    4847:	74 13                	je     485c <_ZN4core3fmt9Formatter12pad_integral12write_prefix17hcfe3f7c8045b9b50E+0x4c>
    4849:	83 ec 04             	sub    $0x4,%esp
    484c:	ff 74 24 1c          	push   0x1c(%esp)
    4850:	50                   	push   %eax
    4851:	57                   	push   %edi
    4852:	ff 56 0c             	call   *0xc(%esi)
    4855:	83 c4 10             	add    $0x10,%esp
    4858:	5e                   	pop    %esi
    4859:	5f                   	pop    %edi
    485a:	5b                   	pop    %ebx
    485b:	c3                   	ret
    485c:	31 c0                	xor    %eax,%eax
    485e:	5e                   	pop    %esi
    485f:	5f                   	pop    %edi
    4860:	5b                   	pop    %ebx
    4861:	c3                   	ret
    4862:	66 90                	xchg   %ax,%ax
    4864:	66 90                	xchg   %ax,%ax
    4866:	66 90                	xchg   %ax,%ax
    4868:	66 90                	xchg   %ax,%ax
    486a:	66 90                	xchg   %ax,%ax
    486c:	66 90                	xchg   %ax,%ax
    486e:	66 90                	xchg   %ax,%ax

00004870 <_ZN4core3fmt9Formatter3pad17hca3954b393b06d6eE>:
    4870:	55                   	push   %ebp
    4871:	53                   	push   %ebx
    4872:	57                   	push   %edi
    4873:	56                   	push   %esi
    4874:	83 ec 2c             	sub    $0x2c,%esp
    4877:	89 cd                	mov    %ecx,%ebp
    4879:	e8 00 00 00 00       	call   487e <_ZN4core3fmt9Formatter3pad17hca3954b393b06d6eE+0xe>
    487e:	58                   	pop    %eax
    487f:	81 c0 76 37 00 00    	add    $0x3776,%eax
    4885:	89 44 24 24          	mov    %eax,0x24(%esp)
    4889:	8b 4c 24 40          	mov    0x40(%esp),%ecx
    488d:	8b 7d 08             	mov    0x8(%ebp),%edi
    4890:	f7 c7 00 00 00 18    	test   $0x18000000,%edi
    4896:	74 3c                	je     48d4 <_ZN4core3fmt9Formatter3pad17hca3954b393b06d6eE+0x64>
    4898:	f7 c7 00 00 00 10    	test   $0x10000000,%edi
    489e:	89 54 24 0c          	mov    %edx,0xc(%esp)
